Archive member included because of file (symbol)

c:/program files (x86)/microchip/xc32/v1.44/bin/bin/../../lib/gcc/pic32mx/4.8.3/fpu64\libgcc.a(_udivdi3.o)
                              build/pic32mz_ef_sk/production/_ext/29024758/tfm.o (__udivdi3)
c:/program files (x86)/microchip/xc32/v1.44/bin/bin/../../lib/gcc/pic32mx/4.8.3/../../../../pic32mx/lib/fpu64\libpic32.a(memcmp.o)
                              build/pic32mz_ef_sk/production/_ext/1360937237/custom_http_app.o (memcmp)
c:/program files (x86)/microchip/xc32/v1.44/bin/bin/../../lib/gcc/pic32mx/4.8.3/../../../../pic32mx/lib/fpu64\libpic32.a(memcpy.o)
                              build/pic32mz_ef_sk/production/_ext/2046866571/deflate.o (memcpy)
c:/program files (x86)/microchip/xc32/v1.44/bin/bin/../../lib/gcc/pic32mx/4.8.3/../../../../pic32mx/lib/fpu64\libpic32.a(memset.o)
                              build/pic32mz_ef_sk/production/_ext/2046866571/deflate.o (memset)
c:/program files (x86)/microchip/xc32/v1.44/bin/bin/../../lib/gcc/pic32mx/4.8.3/../../../../pic32mx/lib/fpu64\libpic32.a(strcmp.o)
                              build/pic32mz_ef_sk/production/_ext/1360937237/custom_http_app.o (strcmp)
c:/program files (x86)/microchip/xc32/v1.44/bin/bin/../../lib/gcc/pic32mx/4.8.3/../../../../pic32mx/lib/fpu64\libpic32.a(strcpy.o)
                              build/pic32mz_ef_sk/production/_ext/1891376032/sys_command.o (strcpy)
c:/program files (x86)/microchip/xc32/v1.44/bin/bin/../../lib/gcc/pic32mx/4.8.3/../../../../pic32mx/lib/fpu64\libpic32.a(strlen.o)
                              build/pic32mz_ef_sk/production/_ext/1360937237/streamer.o (strlen)
c:/program files (x86)/microchip/xc32/v1.44/bin/bin/../../lib/gcc/pic32mx/4.8.3/../../../../pic32mx/lib/fpu64\libpic32.a(default-bootstrap-exception-handler.o)
                              c:/program files (x86)/microchip/xc32/v1.44/bin/bin/../../lib/gcc/pic32mx/4.8.3/../../../../pic32mx/lib/./proc/32MZ2048EFH144/crt0_mips32r2.o (_bootstrap_exception_handler)
c:/program files (x86)/microchip/xc32/v1.44/bin/bin/../../lib/gcc/pic32mx/4.8.3/../../../../pic32mx/lib/fpu64\libpic32.a(default-on-reset.o)
                              c:/program files (x86)/microchip/xc32/v1.44/bin/bin/../../lib/gcc/pic32mx/4.8.3/../../../../pic32mx/lib/./proc/32MZ2048EFH144/crt0_mips32r2.o (_on_reset)
c:/program files (x86)/microchip/xc32/v1.44/bin/bin/../../lib/gcc/pic32mx/4.8.3/../../../../pic32mx/lib/fpu64\libpic32.a(default-on-bootstrap.o)
                              c:/program files (x86)/microchip/xc32/v1.44/bin/bin/../../lib/gcc/pic32mx/4.8.3/../../../../pic32mx/lib/./proc/32MZ2048EFH144/crt0_mips32r2.o (_on_bootstrap)
c:/program files (x86)/microchip/xc32/v1.44/bin/bin/../../lib/gcc/pic32mx/4.8.3/../../../../pic32mx/lib/fpu64\libpic32.a(default-nmi-handler.o)
                              c:/program files (x86)/microchip/xc32/v1.44/bin/bin/../../lib/gcc/pic32mx/4.8.3/../../../../pic32mx/lib/./proc/32MZ2048EFH144/crt0_mips32r2.o (_nmi_handler)
c:/program files (x86)/microchip/xc32/v1.44/bin/bin/../../lib/gcc/pic32mx/4.8.3/../../../../pic32mx/lib/fpu64\libpic32.a(pic32_init_cache.o)
                              c:/program files (x86)/microchip/xc32/v1.44/bin/bin/../../lib/gcc/pic32mx/4.8.3/../../../../pic32mx/lib/./proc/32MZ2048EFH144/crt0_mips32r2.o (__pic32_init_cache)
c:/program files (x86)/microchip/xc32/v1.44/bin/bin/../../lib/gcc/pic32mx/4.8.3/../../../../pic32mx/lib/fpu64\libpic32.a(pic32_init_tlb_ebi_sqi.o)
                              c:/program files (x86)/microchip/xc32/v1.44/bin/bin/../../lib/gcc/pic32mx/4.8.3/../../../../pic32mx/lib/./proc/32MZ2048EFH144/crt0_mips32r2.o (__pic32_tlb_init_ebi_sqi)
c:/program files (x86)/microchip/xc32/v1.44/bin/bin/../../lib/gcc/pic32mx/4.8.3/../../../../pic32mx/lib/fpu64\libpic32.a(general-exception.o)
                              c:/program files (x86)/microchip/xc32/v1.44/bin/bin/../../lib/gcc/pic32mx/4.8.3/../../../../pic32mx/lib/./proc/32MZ2048EFH144/crt0_mips32r2.o (_general_exception_context)
c:/program files (x86)/microchip/xc32/v1.44/bin/bin/../../lib/gcc/pic32mx/4.8.3/../../../../pic32mx/lib/fpu64\libpic32.a(cache-err-exception.o)
                              c:/program files (x86)/microchip/xc32/v1.44/bin/bin/../../lib/gcc/pic32mx/4.8.3/../../../../pic32mx/lib/./proc/32MZ2048EFH144/crt0_mips32r2.o (_cache_err_exception_context)
c:/program files (x86)/microchip/xc32/v1.44/bin/bin/../../lib/gcc/pic32mx/4.8.3/../../../../pic32mx/lib/fpu64\libpic32.a(simple-tlb-refill-exception.o)
                              c:/program files (x86)/microchip/xc32/v1.44/bin/bin/../../lib/gcc/pic32mx/4.8.3/../../../../pic32mx/lib/./proc/32MZ2048EFH144/crt0_mips32r2.o (_simple_tlb_refill_exception_context)
c:/program files (x86)/microchip/xc32/v1.44/bin/bin/../../lib/gcc/pic32mx/4.8.3/../../../../pic32mx/lib/fpu64\libpic32.a(defaultinterrupt.o)
                              c:/program files (x86)/microchip/xc32/v1.44/bin/bin/../../lib/gcc/pic32mx/4.8.3/../../../../pic32mx/lib/./proc/32MZ2048EFH144\default_isr_vectors.o (_DefaultInterrupt)
c:/program files (x86)/microchip/xc32/v1.44/bin/bin/../../lib/gcc/pic32mx/4.8.3/../../../../pic32mx/lib/fpu64\libpic32.a(default-cache-err-exception-handler.o)
                              c:/program files (x86)/microchip/xc32/v1.44/bin/bin/../../lib/gcc/pic32mx/4.8.3/../../../../pic32mx/lib/fpu64\libpic32.a(cache-err-exception.o) (_cache_err_exception_handler)
c:/program files (x86)/microchip/xc32/v1.44/bin/bin/../../lib/gcc/pic32mx/4.8.3/../../../../pic32mx/lib/fpu64\libpic32.a(default-simple-tlb-refill-exception-handler.o)
                              c:/program files (x86)/microchip/xc32/v1.44/bin/bin/../../lib/gcc/pic32mx/4.8.3/../../../../pic32mx/lib/fpu64\libpic32.a(simple-tlb-refill-exception.o) (_simple_tlb_refill_exception_handler)
c:/program files (x86)/microchip/xc32/v1.44/bin/bin/../../lib/gcc/pic32mx/4.8.3/../../../../pic32mx/lib/fpu64\libc.a(fassert.o)
                              build/pic32mz_ef_sk/production/_ext/1360937237/websocket.o (_fassert)
c:/program files (x86)/microchip/xc32/v1.44/bin/bin/../../lib/gcc/pic32mx/4.8.3/../../../../pic32mx/lib/fpu64\libc.a(atoi.o)
                              build/pic32mz_ef_sk/production/_ext/1164207549/smtp.o (atoi)
c:/program files (x86)/microchip/xc32/v1.44/bin/bin/../../lib/gcc/pic32mx/4.8.3/../../../../pic32mx/lib/fpu64\libc.a(atol.o)
                              build/pic32mz_ef_sk/production/_ext/1360937237/custom_http_app.o (atol)
c:/program files (x86)/microchip/xc32/v1.44/bin/bin/../../lib/gcc/pic32mx/4.8.3/../../../../pic32mx/lib/fpu64\libc.a(calloc.o)
                              build/pic32mz_ef_sk/production/_ext/849053718/system_init.o (calloc)
c:/program files (x86)/microchip/xc32/v1.44/bin/bin/../../lib/gcc/pic32mx/4.8.3/../../../../pic32mx/lib/fpu64\libc.a(ctype.o)
                              build/pic32mz_ef_sk/production/_ext/1164207549/dhcp.o (_ctype)
c:/program files (x86)/microchip/xc32/v1.44/bin/bin/../../lib/gcc/pic32mx/4.8.3/../../../../pic32mx/lib/fpu64\libc.a(ctypef.o)
                              build/pic32mz_ef_sk/production/_ext/1360937237/websocket.o (tolower)
c:/program files (x86)/microchip/xc32/v1.44/bin/bin/../../lib/gcc/pic32mx/4.8.3/../../../../pic32mx/lib/fpu64\libc.a(malloc.o)
                              build/pic32mz_ef_sk/production/_ext/849053718/system_init.o (malloc)
c:/program files (x86)/microchip/xc32/v1.44/bin/bin/../../lib/gcc/pic32mx/4.8.3/../../../../pic32mx/lib/fpu64\libc.a(perror.o)
                              build/pic32mz_ef_sk/production/_ext/1360937237/websocket_thread.o (perror)
c:/program files (x86)/microchip/xc32/v1.44/bin/bin/../../lib/gcc/pic32mx/4.8.3/../../../../pic32mx/lib/fpu64\libc.a(rand.o)
                              build/pic32mz_ef_sk/production/_ext/470001640/sys_random.o (srand)
c:/program files (x86)/microchip/xc32/v1.44/bin/bin/../../lib/gcc/pic32mx/4.8.3/../../../../pic32mx/lib/fpu64\libc.a(signal.o)
                              c:/program files (x86)/microchip/xc32/v1.44/bin/bin/../../lib/gcc/pic32mx/4.8.3/../../../../pic32mx/lib/fpu64\libc.a(fassert.o) (abort)
c:/program files (x86)/microchip/xc32/v1.44/bin/bin/../../lib/gcc/pic32mx/4.8.3/../../../../pic32mx/lib/fpu64\libc.a(strcat.o)
                              build/pic32mz_ef_sk/production/_ext/1360937237/streamer.o (strcat)
c:/program files (x86)/microchip/xc32/v1.44/bin/bin/../../lib/gcc/pic32mx/4.8.3/../../../../pic32mx/lib/fpu64\libc.a(strchr.o)
                              build/pic32mz_ef_sk/production/_ext/1164207549/smtp.o (strchr)
c:/program files (x86)/microchip/xc32/v1.44/bin/bin/../../lib/gcc/pic32mx/4.8.3/../../../../pic32mx/lib/fpu64\libc.a(strncat.o)
                              build/pic32mz_ef_sk/production/_ext/1886247299/sys_fs_wrapper.o (strncat)
c:/program files (x86)/microchip/xc32/v1.44/bin/bin/../../lib/gcc/pic32mx/4.8.3/../../../../pic32mx/lib/fpu64\libc.a(strncmp.o)
                              build/pic32mz_ef_sk/production/_ext/1750042194/sys_fs.o (strncmp)
c:/program files (x86)/microchip/xc32/v1.44/bin/bin/../../lib/gcc/pic32mx/4.8.3/../../../../pic32mx/lib/fpu64\libc.a(strncpy.o)
                              build/pic32mz_ef_sk/production/_ext/1360937237/custom_http_app.o (strncpy)
c:/program files (x86)/microchip/xc32/v1.44/bin/bin/../../lib/gcc/pic32mx/4.8.3/../../../../pic32mx/lib/fpu64\libc.a(strstr.o)
                              build/pic32mz_ef_sk/production/_ext/1164207549/smtp.o (strstr)
c:/program files (x86)/microchip/xc32/v1.44/bin/bin/../../lib/gcc/pic32mx/4.8.3/../../../../pic32mx/lib/fpu64\libc.a(strtol.o)
                              build/pic32mz_ef_sk/production/_ext/1164207549/tcpip_helpers.o (strtol)
c:/program files (x86)/microchip/xc32/v1.44/bin/bin/../../lib/gcc/pic32mx/4.8.3/../../../../pic32mx/lib/fpu64\libc.a(sys_err.o)
                              c:/program files (x86)/microchip/xc32/v1.44/bin/bin/../../lib/gcc/pic32mx/4.8.3/../../../../pic32mx/lib/fpu64\libc.a(perror.o) (strerror)
c:/program files (x86)/microchip/xc32/v1.44/bin/bin/../../lib/gcc/pic32mx/4.8.3/../../../../pic32mx/lib/fpu64\libc.a(exit.o)
                              build/pic32mz_ef_sk/production/_ext/1360937237/websocket_thread.o (exit)
c:/program files (x86)/microchip/xc32/v1.44/bin/bin/../../lib/gcc/pic32mx/4.8.3/../../../../pic32mx/lib/fpu64\libc.a(stdclean_simple.o)
                              c:/program files (x86)/microchip/xc32/v1.44/bin/bin/../../lib/gcc/pic32mx/4.8.3/../../../../pic32mx/lib/fpu64\libc.a(exit.o) (_cleanup)
c:/program files (x86)/microchip/xc32/v1.44/bin/bin/../../lib/gcc/pic32mx/4.8.3/../../../../pic32mx/lib/fpu64\libc.a(fprintf_cdnopsuxX.eo)
                              c:/program files (x86)/microchip/xc32/v1.44/bin/bin/../../lib/gcc/pic32mx/4.8.3/../../../../pic32mx/lib/fpu64\libc.a(fassert.o) (_fprintf_cdnopsuxX)
c:/program files (x86)/microchip/xc32/v1.44/bin/bin/../../lib/gcc/pic32mx/4.8.3/../../../../pic32mx/lib/fpu64\libc.a(snprintf_cdnopsuxX.eo)
                              build/pic32mz_ef_sk/production/_ext/1164207549/tcpip_manager.o (_snprintf_cdnopsuxX)
c:/program files (x86)/microchip/xc32/v1.44/bin/bin/../../lib/gcc/pic32mx/4.8.3/../../../../pic32mx/lib/fpu64\libc.a(sprintf_cdnopsuxX.eo)
                              (_sprintf_cdnopsuxX)
c:/program files (x86)/microchip/xc32/v1.44/bin/bin/../../lib/gcc/pic32mx/4.8.3/../../../../pic32mx/lib/fpu64\libc.a(sprintf_cdnopuxX.eo)
                              build/pic32mz_ef_sk/production/_ext/1164207549/tcpip_helpers.o (_sprintf_cdnopuxX)
c:/program files (x86)/microchip/xc32/v1.44/bin/bin/../../lib/gcc/pic32mx/4.8.3/../../../../pic32mx/lib/fpu64\libc.a(sprintf_s.eo)
                              build/pic32mz_ef_sk/production/_ext/1360937237/websocket.o (_sprintf_s)
c:/program files (x86)/microchip/xc32/v1.44/bin/bin/../../lib/gcc/pic32mx/4.8.3/../../../../pic32mx/lib/fpu64\libc.a(sscanf_s.eo)
                              build/pic32mz_ef_sk/production/_ext/1360937237/websocket.o (_sscanf_s)
c:/program files (x86)/microchip/xc32/v1.44/bin/bin/../../lib/gcc/pic32mx/4.8.3/../../../../pic32mx/lib/fpu64\libc.a(vsnprintf_cdnopsuxX.eo)
                              c:/program files (x86)/microchip/xc32/v1.44/bin/bin/../../lib/gcc/pic32mx/4.8.3/../../../../pic32mx/lib/fpu64\libc.a(snprintf_cdnopsuxX.eo) (_vsnprintf_cdnopsuxX)
c:/program files (x86)/microchip/xc32/v1.44/bin/bin/../../lib/gcc/pic32mx/4.8.3/../../../../pic32mx/lib/fpu64\libc.a(vsnprintf.o)
                              build/pic32mz_ef_sk/production/_ext/1891376032/sys_command.o (vsnprintf)
c:/program files (x86)/microchip/xc32/v1.44/bin/bin/../../lib/gcc/pic32mx/4.8.3/../../../../pic32mx/lib/fpu64\libc.a(_iob.o)
                              c:/program files (x86)/microchip/xc32/v1.44/bin/bin/../../lib/gcc/pic32mx/4.8.3/../../../../pic32mx/lib/fpu64\libc.a(fassert.o) (_iob)
c:/program files (x86)/microchip/xc32/v1.44/bin/bin/../../lib/gcc/pic32mx/4.8.3/../../../../pic32mx/lib/fpu64\libc.a(_fputc_simple.o)
                              c:/program files (x86)/microchip/xc32/v1.44/bin/bin/../../lib/gcc/pic32mx/4.8.3/../../../../pic32mx/lib/fpu64\libc.a(perror.o) (fputc)
c:/program files (x86)/microchip/xc32/v1.44/bin/bin/../../lib/gcc/pic32mx/4.8.3/../../../../pic32mx/lib/fpu64\libc.a(errno.o)
                              c:/program files (x86)/microchip/xc32/v1.44/bin/bin/../../lib/gcc/pic32mx/4.8.3/../../../../pic32mx/lib/fpu64\libc.a(perror.o) (errno)
c:/program files (x86)/microchip/xc32/v1.44/bin/bin/../../lib/gcc/pic32mx/4.8.3/../../../../pic32mx/lib/fpu64\libc.a(doprnt_cdnopsuxX.eo)
                              c:/program files (x86)/microchip/xc32/v1.44/bin/bin/../../lib/gcc/pic32mx/4.8.3/../../../../pic32mx/lib/fpu64\libc.a(fprintf_cdnopsuxX.eo) (_vfprintf_cdnopsuxX)
c:/program files (x86)/microchip/xc32/v1.44/bin/bin/../../lib/gcc/pic32mx/4.8.3/../../../../pic32mx/lib/fpu64\libc.a(doprnt_cdnopuxX.eo)
                              c:/program files (x86)/microchip/xc32/v1.44/bin/bin/../../lib/gcc/pic32mx/4.8.3/../../../../pic32mx/lib/fpu64\libc.a(sprintf_cdnopuxX.eo) (_vfprintf_cdnopuxX)
c:/program files (x86)/microchip/xc32/v1.44/bin/bin/../../lib/gcc/pic32mx/4.8.3/../../../../pic32mx/lib/fpu64\libc.a(doprnt_s.eo)
                              c:/program files (x86)/microchip/xc32/v1.44/bin/bin/../../lib/gcc/pic32mx/4.8.3/../../../../pic32mx/lib/fpu64\libc.a(sprintf_s.eo) (_vfprintf_s)
c:/program files (x86)/microchip/xc32/v1.44/bin/bin/../../lib/gcc/pic32mx/4.8.3/../../../../pic32mx/lib/fpu64\libc.a(doprnt.o)
                              c:/program files (x86)/microchip/xc32/v1.44/bin/bin/../../lib/gcc/pic32mx/4.8.3/../../../../pic32mx/lib/fpu64\libc.a(vsnprintf.o) (vfprintf)
c:/program files (x86)/microchip/xc32/v1.44/bin/bin/../../lib/gcc/pic32mx/4.8.3/../../../../pic32mx/lib/fpu64\libc.a(doscan_s.eo)
                              c:/program files (x86)/microchip/xc32/v1.44/bin/bin/../../lib/gcc/pic32mx/4.8.3/../../../../pic32mx/lib/fpu64\libc.a(sscanf_s.eo) (_vfscanf_s)
c:/program files (x86)/microchip/xc32/v1.44/bin/bin/../../lib/gcc/pic32mx/4.8.3/../../../../pic32mx/lib/fpu64\libc.a(_flsbuf_simple.o)
                              c:/program files (x86)/microchip/xc32/v1.44/bin/bin/../../lib/gcc/pic32mx/4.8.3/../../../../pic32mx/lib/fpu64\libc.a(_fputc_simple.o) (_flsbuf)
c:/program files (x86)/microchip/xc32/v1.44/bin/bin/../../lib/gcc/pic32mx/4.8.3/../../../../pic32mx/lib/fpu64\libc.a(fgetc.o)
                              c:/program files (x86)/microchip/xc32/v1.44/bin/bin/../../lib/gcc/pic32mx/4.8.3/../../../../pic32mx/lib/fpu64\libc.a(doscan_s.eo) (fgetc)
c:/program files (x86)/microchip/xc32/v1.44/bin/bin/../../lib/gcc/pic32mx/4.8.3/../../../../pic32mx/lib/fpu64\libc.a(ldpowers.o)
                              c:/program files (x86)/microchip/xc32/v1.44/bin/bin/../../lib/gcc/pic32mx/4.8.3/../../../../pic32mx/lib/fpu64\libc.a(doprnt.o) (_npowers_)
c:/program files (x86)/microchip/xc32/v1.44/bin/bin/../../lib/gcc/pic32mx/4.8.3/../../../../pic32mx/lib/fpu64\libc.a(ungetc.o)
                              c:/program files (x86)/microchip/xc32/v1.44/bin/bin/../../lib/gcc/pic32mx/4.8.3/../../../../pic32mx/lib/fpu64\libc.a(doscan_s.eo) (ungetc)
c:/program files (x86)/microchip/xc32/v1.44/bin/bin/../../lib/gcc/pic32mx/4.8.3/../../../../pic32mx/lib/fpu64\libc.a(filbuf.o)
                              c:/program files (x86)/microchip/xc32/v1.44/bin/bin/../../lib/gcc/pic32mx/4.8.3/../../../../pic32mx/lib/fpu64\libc.a(fgetc.o) (_filbuf)
c:/program files (x86)/microchip/xc32/v1.44/bin/bin/../../lib/gcc/pic32mx/4.8.3/../../../../pic32mx/lib/fpu64\libc.a(fflush.o)
                              c:/program files (x86)/microchip/xc32/v1.44/bin/bin/../../lib/gcc/pic32mx/4.8.3/../../../../pic32mx/lib/fpu64\libc.a(filbuf.o) (fflush)
c:/program files (x86)/microchip/xc32/v1.44/bin/bin/../../lib/gcc/pic32mx/4.8.3/../../../../pic32mx/lib/fpu64\libmfd.a(s_frexp.o)
                              c:/program files (x86)/microchip/xc32/v1.44/bin/bin/../../lib/gcc/pic32mx/4.8.3/../../../../pic32mx/lib/fpu64\libc.a(doprnt.o) (_frexpx)
c:/program files (x86)/microchip/xc32/v1.44/bin/bin/../../lib/gcc/pic32mx/4.8.3/fpu64\libgcc.a(_cmpdi2.o)
                              c:/program files (x86)/microchip/xc32/v1.44/bin/bin/../../lib/gcc/pic32mx/4.8.3/../../../../pic32mx/lib/fpu64\libc.a(doprnt.o) (__cmpdi2)
c:/program files (x86)/microchip/xc32/v1.44/bin/bin/../../lib/gcc/pic32mx/4.8.3/fpu64\libgcc.a(_umoddi3.o)
                              c:/program files (x86)/microchip/xc32/v1.44/bin/bin/../../lib/gcc/pic32mx/4.8.3/../../../../pic32mx/lib/fpu64\libc.a(doprnt_cdnopsuxX.eo) (__umoddi3)
c:/program files (x86)/microchip/xc32/v1.44/bin/bin/../../lib/gcc/pic32mx/4.8.3/../../../../pic32mx/lib/fpu64\libpic32.a(sbrk.o)
                              c:/program files (x86)/microchip/xc32/v1.44/bin/bin/../../lib/gcc/pic32mx/4.8.3/../../../../pic32mx/lib/fpu64\libc.a(malloc.o) (sbrk)
c:/program files (x86)/microchip/xc32/v1.44/bin/bin/../../lib/gcc/pic32mx/4.8.3/../../../../pic32mx/lib/fpu64\libpic32.a(read.o)
                              c:/program files (x86)/microchip/xc32/v1.44/bin/bin/../../lib/gcc/pic32mx/4.8.3/../../../../pic32mx/lib/fpu64\libc.a(filbuf.o) (read)
c:/program files (x86)/microchip/xc32/v1.44/bin/bin/../../lib/gcc/pic32mx/4.8.3/../../../../pic32mx/lib/fpu64\libpic32.a(write.o)
                              c:/program files (x86)/microchip/xc32/v1.44/bin/bin/../../lib/gcc/pic32mx/4.8.3/../../../../pic32mx/lib/fpu64\libc.a(_fputc_simple.o) (write)
c:/program files (x86)/microchip/xc32/v1.44/bin/bin/../../lib/gcc/pic32mx/4.8.3/../../../../pic32mx/lib/fpu64\libpic32.a(xc32_uart.o)
                              c:/program files (x86)/microchip/xc32/v1.44/bin/bin/../../lib/gcc/pic32mx/4.8.3/../../../../pic32mx/lib/fpu64\libpic32.a(read.o) (__XC_UART)
c:/program files (x86)/microchip/xc32/v1.44/bin/bin/../../lib/gcc/pic32mx/4.8.3/../../../../pic32mx/lib/fpu64\libpic32.a(_mon_putc.o)
                              c:/program files (x86)/microchip/xc32/v1.44/bin/bin/../../lib/gcc/pic32mx/4.8.3/../../../../pic32mx/lib/fpu64\libpic32.a(write.o) (_mon_putc)

Allocating common symbols
Common symbol       size              file

VolToPart           0x2               build/pic32mz_ef_sk/production/_ext/1750042194/sys_fs_media_manager.o
sysRandCtx          0x108             build/pic32mz_ef_sk/production/_ext/470001640/sys_random.o
gDrvUSARTBufferObj  0x370             build/pic32mz_ef_sk/production/_ext/821589181/drv_usart_buffer_queue.o
gDrvNVMObj          0x34              build/pic32mz_ef_sk/production/_ext/184581597/drv_nvm.o
ws_serverData       0xc               build/pic32mz_ef_sk/production/_ext/1360937237/ws_server.o
sysObj              0x24              build/pic32mz_ef_sk/production/_ext/849053718/system_init.o
nvmBufObjMutex      0x4               build/pic32mz_ef_sk/production/_ext/184581597/drv_nvm.o
gDrvNVMMediaGeometry
                    0x4               build/pic32mz_ef_sk/production/_ext/184581597/drv_nvm.o
gSYSFSVolumeObject  0x1c              build/pic32mz_ef_sk/production/_ext/1750042194/sys_fs_media_manager.o
gblErrLvl           0x4               build/pic32mz_ef_sk/production/_ext/2137108136/sys_debug.o
gDrvNVMBufferObject
                    0xf0              build/pic32mz_ef_sk/production/_ext/184581597/drv_nvm.o
gSYSFSObj           0x8               build/pic32mz_ef_sk/production/_ext/1750042194/sys_fs.o
gNVMGeometryTable   0x4               build/pic32mz_ef_sk/production/_ext/184581597/drv_nvm.o
sysDevconObj        0x8               build/pic32mz_ef_sk/production/_ext/1868830280/sys_devcon.o
errorValue          0x4               build/pic32mz_ef_sk/production/_ext/1750042194/sys_fs.o
gSYSFSFileObj       0x1a90            build/pic32mz_ef_sk/production/_ext/1750042194/sys_fs.o
gDrvUSARTClientObj  0x50              build/pic32mz_ef_sk/production/_ext/821589181/drv_usart.o
sNetPresSockets     0x168             build/pic32mz_ef_sk/production/_ext/871719959/net_pres.o
sNetPresData        0x20c             build/pic32mz_ef_sk/production/_ext/871719959/net_pres.o
gDrvNVMClientObj    0x18              build/pic32mz_ef_sk/production/_ext/184581597/drv_nvm.o
mutexFileSystemObj  0x4               build/pic32mz_ef_sk/production/_ext/1750042194/sys_fs.o
sysDebugInstance    0x10              build/pic32mz_ef_sk/production/_ext/2137108136/sys_debug.o
gSYSFSDirObj        0x190             build/pic32mz_ef_sk/production/_ext/1750042194/sys_fs.o
gDrvUSARTObj        0x60              build/pic32mz_ef_sk/production/_ext/821589181/drv_usart.o
gSYSFSMountPoint    0x18              build/pic32mz_ef_sk/production/_ext/1750042194/sys_fs.o
gSYSFSMediaObject   0x2c              build/pic32mz_ef_sk/production/_ext/1750042194/sys_fs_media_manager.o
gBuffer             0xffff            build/pic32mz_ef_sk/production/_ext/1360937237/websocket_thread.o
gSYSFSCurrentMountPoint
                    0x8               build/pic32mz_ef_sk/production/_ext/1750042194/sys_fs.o
ROUTER_SOLICITATION_STATE
                    0x4               build/pic32mz_ef_sk/production/_ext/1164207549/ndp.o
streamerData        0x4               build/pic32mz_ef_sk/production/_ext/1360937237/streamer.o
appData             0x8               build/pic32mz_ef_sk/production/_ext/1360937237/app.o
gDrvUSARTCommonDataObj
                    0xc               build/pic32mz_ef_sk/production/_ext/821589181/drv_usart.o
mutexDirObj         0x4               build/pic32mz_ef_sk/production/_ext/1750042194/sys_fs.o
IPV6_INIT_STATE     0x4               build/pic32mz_ef_sk/production/_ext/1164207549/ipv6.o
nvmClientObjMutex   0x4               build/pic32mz_ef_sk/production/_ext/184581597/drv_nvm.o
DUPLICATE_ADDR_DISCOVERY_STATE
                    0x4               build/pic32mz_ef_sk/production/_ext/1164207549/ndp.o
icmpStartTick       0x4               build/pic32mz_ef_sk/production/_ext/1164207549/tcpip_commands.o

Microchip PIC32 Memory-Usage Report

kseg0 Program-Memory Usage
section                    address  length [bytes]      (dec)  Description
-------                 ----------  -------------------------  -----------
.text.vfprintf          0x9d000000         0x2018        8216   
.rodata                 0x9d002018         0x19d4        6612  Read-only const 
.text.TCPIP_ICMPV6_Proc 0x9d0039ec         0x158c        5516   
.text.TCPIP_HTTP_Proces 0x9d004f78         0x158c        5516   
.text.TCPIP_SMTP_Client 0x9d006504         0x1074        4212   
.text.TCPIP_HTTP_PostEx 0x9d007578          0xe70        3696   
.text._TcpHandleSeg     0x9d0083e8          0xe08        3592   
.text._vfprintf_cdnopsu 0x9d0091f0          0xc8c        3212   
.dinit                  0x9d009e7c          0xc50        3152   
.text.Transform         0x9d00aacc          0xa8c        2700   
.text._TcpSend          0x9d00b558          0x980        2432   
.text._vfscanf_s        0x9d00bed8          0x908        2312   
.text.TCPIP_STACK_Task  0x9d00c7e0          0x8e4        2276   
.text.TCPIP_NDP_Task    0x9d00d0c4          0x8cc        2252   
.text._Command_DNS_Serv 0x9d00d990          0x8c4        2244   
.text.TCPIP_TCP_Task    0x9d00e254          0x838        2104   
.text.TCPIP_DHCP_Task   0x9d00ea8c          0x7c0        1984   
.text.DRV_ETHMAC_PIC32M 0x9d00f24c          0x7a0        1952   
.text.clientWorker      0x9d00f9ec          0x608        1544   
.text.SYS_CLK_SystemFre 0x9d00fff4            0xc          12   
.simple_tlb_refill_excp 0x9d010000           0x10          16   
.text.DRV_ETHMAC_LibMAC 0x9d010010           0xf0         240   
.cache_err_excpt        0x9d010100           0x10          16   
.text.TCPIP_HTTP_Print_ 0x9d010110           0x70         112   
.app_excpt              0x9d010180           0x10          16  General-Exception 
.text._EnetPoolFreeDcpt 0x9d010190           0x70         112   
.vectors                0x9d010200         0x1204        4612   
.text.TCPIP_UDP_Flush   0x9d011404          0x3fc        1020   
.rodata.NVM_MEDIA_DATA. 0x9d011800        0x80000      524288   
.text.SYS_FS_MEDIA_MANA 0x9d091800          0x6c8        1736   
.text.TCPIP_IPV6_Proces 0x9d091ec8          0x660        1632   
.text.TCPIP_SNTP_Task   0x9d092528          0x638        1592   
.text.TCPIP_IPV6_Task   0x9d092b60          0x620        1568   
.text.TCPIP_ZCLL_Task   0x9d093180          0x600        1536   
.rodata                 0x9d093780          0x5fc        1532  Read-only const 
.text.TCPIP_COMMAND_Tas 0x9d093d7c          0x5c0        1472   
.text.TCPIP_STACK_Initi 0x9d09433c          0x5a8        1448   
.text.TCPIP_IPV6_Packet 0x9d0948e4          0x588        1416   
.rodata                 0x9d094e6c          0x584        1412  Read-only const 
.text.TCPIP_ARP_Task    0x9d0953f0          0x548        1352   
.text.NET_PRES_Initiali 0x9d095938          0x518        1304   
.text.wsParseHandshake  0x9d095e50          0x500        1280   
.text.SYS_CMD_Tasks     0x9d096350          0x4f0        1264   
.text.TCPIP_TCP_FifoSiz 0x9d096840          0x4c4        1220   
.text._Command_NetInfo  0x9d096d04          0x484        1156   
.text                   0x9d097188          0x8bc        2236  App's exec code 
.text.TCPIP_HTTP_Print  0x9d097a44          0x450        1104   
.text._CommandArp       0x9d097e94          0x434        1076   
.rodata                 0x9d0982c8          0x428        1064  Read-only const 
.text.TCPIP_IPV6_Fragme 0x9d0986f0          0x3f0        1008   
.text.DRV_MIIM_Tasks    0x9d098ae0          0x3ec        1004   
.text.TCPIP_Helper_Stri 0x9d098ecc          0x3e8        1000   
.text.NET_PRES_SocketOp 0x9d0992b4          0x3d4         980   
.text._Command_StackOnO 0x9d099688          0x3d4         980   
.text._DNS_Send_Query   0x9d099a5c          0x3c8         968   
.rodata                 0x9d099e24          0x3bc         956  Read-only const 
.text.DRV_NVM_Tasks     0x9d09a1e0          0x3b8         952   
.text.TCPIP_UDP_Task    0x9d09a598          0x3b8         952   
.text.TCPIP_TCP_ArrayFi 0x9d09a950          0x398         920   
.text.TCPIP_DNS_ClientI 0x9d09ace8          0x398         920   
.text.Console_UART_Task 0x9d09b080          0x38c         908   
.text.TCPIP_IPV6_Flush  0x9d09b40c          0x38c         908   
.text._CommandDhcpOptio 0x9d09b798          0x38c         908   
.text.TCPIP_STACK_Bring 0x9d09bb24          0x378         888   
.text.TCPIP_ARP_Initial 0x9d09be9c          0x374         884   
.text._DHCPReceive      0x9d09c210          0x364         868   
.text.TCPIP_STACK_NetCo 0x9d09c574          0x360         864   
.text._TCP_Open         0x9d09c8d4          0x354         852   
.rodata                 0x9d09cc28          0x354         852  Read-only const 
.text._CommandPing      0x9d09cf7c          0x34c         844   
.text.sha1mix           0x9d09d2c8          0x340         832   
.text.TCPIP_NBNS_Task   0x9d09d608          0x330         816   
.text.TCPIP_NDP_DupAddr 0x9d09d938          0x324         804   
.text._DHCPSend         0x9d09dc5c          0x31c         796   
.text.ParseCmdBuffer    0x9d09df78          0x30c         780   
.text._Command_NetworkO 0x9d09e284          0x308         776   
.text._UDPFindMatchingS 0x9d09e58c          0x300         768   
.text.TCPIP_IPV4_Packet 0x9d09e88c          0x2e8         744   
.text.CommandHelp       0x9d09eb74          0x2dc         732   
.text._DNS_ProcessPacke 0x9d09ee50          0x2dc         732   
.text.DRV_USART_BufferA 0x9d09f12c          0x2d4         724   
.text._TcpFindMatchingS 0x9d09f400          0x2d4         724   
.text.TCPIP_UDP_Options 0x9d09f6d4          0x2d4         724   
.text.TCPIP_STACK_NetIP 0x9d09f9a8          0x2d0         720   
.text.TCPIP_IPV6_Timest 0x9d09fc78          0x2c8         712   
.text.xTaskCreate       0x9d09ff40          0x2c8         712   
.text.SYS_FS_FileOpen   0x9d0a0208          0x2c4         708   
.text.TCPIP_IPV4_Task   0x9d0a04cc          0x2c0         704   
.text.TCPIP_ANNOUNCE_Se 0x9d0a078c          0x2c0         704   
.text._UDPOpen          0x9d0a0a4c          0x2b0         688   
.text.DRV_USART_BufferA 0x9d0a0cfc          0x2ac         684   
.text.TCPIP_IPV4_Packet 0x9d0a0fa8          0x2ac         684   
.rodata                 0x9d0a1254          0x2a4         676  Read-only const 
.text.TCPIP_IPV6_HopByH 0x9d0a14f8          0x2a4         676   
.text.TCPIP_TCP_ArrayPu 0x9d0a179c          0x29c         668   
.text.TCPIP_IPV6_Destin 0x9d0a1a38          0x290         656   
.text.malloc            0x9d0a1cc8          0x28c         652   
.text.DRV_ETHMAC_PIC32M 0x9d0a1f54          0x288         648   
.text.TCPIP_IPV6_ASComp 0x9d0a21dc          0x284         644   
.text._Command_MacInfo  0x9d0a2460          0x284         644   
.text.DRV_USART_Read    0x9d0a26e4          0x27c         636   
.text.TCPIP_HTTP_Initia 0x9d0a2960          0x27c         636   
.text.SYS_Initialize    0x9d0a2bdc          0x264         612   
.rodata                 0x9d0a2e40          0x264         612  Read-only const 
.text._TcpCloseSocket   0x9d0a30a4          0x264         612   
.text.xQueueGenericRece 0x9d0a3308          0x264         612   
.text._Command_IPAddres 0x9d0a356c          0x25c         604   
.text                   0x9d0a37c8          0x25c         604  App's exec code 
.text._LoadNetworkConfi 0x9d0a3a24          0x25c         604   
.text.DRV_NVM_EraseWrit 0x9d0a3c80          0x250         592   
.text.DRV_ETHMAC_PIC32M 0x9d0a3ed0          0x24c         588   
.text.TCPIP_DNS_EntryQu 0x9d0a411c          0x23c         572   
.text.TCPIP_IPV6_TxPack 0x9d0a4358          0x238         568   
.text.TCPIP_IPV6_Packet 0x9d0a4590          0x238         568   
.text.TCPIP_DHCP_Initia 0x9d0a47c8          0x238         568   
.text._DHCPOptionHostNa 0x9d0a4a00          0x234         564   
.text.SYS_TMR_Tasks     0x9d0a4c34          0x230         560   
.text.wsGetHandshakeAns 0x9d0a4e64          0x230         560   
.text._DRV_NVM_BlockOpe 0x9d0a5094          0x22c         556   
.text.DRV_ETHMAC_LibRxB 0x9d0a52c0          0x224         548   
.text.TCPIP_ICMP_Task   0x9d0a54e4          0x220         544   
.text._Command_AddressS 0x9d0a5704          0x218         536   
.text.TCPIP_UDP_SocketI 0x9d0a591c          0x214         532   
.text.TCPIP_IPV6_Unicas 0x9d0a5b30          0x210         528   
.text.xQueueGenericSend 0x9d0a5d40          0x20c         524   
.text.APP_Tasks         0x9d0a5f4c          0x208         520   
.text.DRV_USART_Open    0x9d0a6154          0x208         520   
.text.DRV_USART_Initial 0x9d0a635c          0x208         520   
.text._DRV_USART_Buffer 0x9d0a6564          0x208         520   
.text.TCPIP_IPV6_Packet 0x9d0a676c          0x204         516   
.text.TCPIP_ANNOUNCE_In 0x9d0a6970          0x200         512   
.text.SYS_PORTS_Initial 0x9d0a6b70          0x1fc         508   
.text.sha1              0x9d0a6d6c          0x1fc         508   
.text._TCPIP_HEAP_Free  0x9d0a6f68          0x1f4         500   
.text._DRV_ETHPHY_Setup 0x9d0a715c          0x1f0         496   
.text._DNS_IsNameResolv 0x9d0a734c          0x1dc         476   
.text.TCPIP_UDP_Bind    0x9d0a7528          0x1d8         472   
.text._DNS_RESPONSE_Has 0x9d0a7700          0x1d8         472   
.text.DRV_ETHMAC_PIC32M 0x9d0a78d8          0x1d4         468   
.text.strtoul           0x9d0a7aac          0x1d4         468   
.text.scale             0x9d0a7c80          0x1d4         468   
.text.TCPIP_IPV6_Initia 0x9d0a7e54          0x1d0         464   
.text.TCPIP_DNS_ClientT 0x9d0a8024          0x1d0         464   
.text._DRV_USART_Hardwa 0x9d0a81f4          0x1cc         460   
.text._UDPv4TxAckFnc    0x9d0a83c0          0x1cc         460   
.text.TCPIP_Helper_Stri 0x9d0a858c          0x1cc         460   
.text._DRV_ETHMAC_AddRx 0x9d0a8758          0x1c8         456   
.text.TCPIP_TCP_Initial 0x9d0a8920          0x1c8         456   
.text.TCPIP_ARP_EntryRe 0x9d0a8ae8          0x1c8         456   
.text._DRV_MIIM_ClientD 0x9d0a8cb0          0x1c4         452   
.text.TCPIP_UDP_Options 0x9d0a8e74          0x1c4         452   
.text.wc_Md5Final       0x9d0a9038          0x1bc         444   
.text._EthAckPacket     0x9d0a91f4          0x1bc         444   
.text.DRV_NVM_Read      0x9d0a93b0          0x1b8         440   
.text.MPFS_DirRead      0x9d0a9568          0x1b4         436   
.text.DRV_ETHMAC_LibRxA 0x9d0a971c          0x1b0         432   
.text._DNS_Resolve      0x9d0a98cc          0x1b0         432   
.text.SYS_FS_Mount      0x9d0a9a7c          0x1ac         428   
.text.TCPIP_UDP_ArrayGe 0x9d0a9c28          0x1ac         428   
.text.TCPIP_UDP_PutIsRe 0x9d0a9dd4          0x1a4         420   
.text._DNS_GetAddresses 0x9d0a9f78          0x1a4         420   
.text.TCPIP_Helper_Base 0x9d0aa11c          0x1a4         420   
.text.DRV_TMR_Initializ 0x9d0aa2c0          0x1a0         416   
.text._Tcpv4TxAckFnc    0x9d0aa460          0x1a0         416   
.text.TCPIP_UDP_Deiniti 0x9d0aa600          0x1a0         416   
.rodata                 0x9d0aa7a0          0x1a0         416  Read-only const 
.text                   0x9d0aa940          0x1a0         416  App's exec code 
.text.MPFSFindFile      0x9d0aaae0          0x19c         412   
.text.strtol            0x9d0aac7c          0x19c         412   
.text.DRV_EXTPHY_MDIXCo 0x9d0aae18          0x198         408   
.text._DRV_MIIM_StartOp 0x9d0aafb0          0x198         408   
.text._ARPProbeAddress  0x9d0ab148          0x198         408   
.text.TCPIP_ICMP_EchoRe 0x9d0ab2e0          0x198         408   
.text.DRV_ETHMAC_LibRxG 0x9d0ab478          0x194         404   
.text.NET_PRES_SocketWr 0x9d0ab60c          0x194         404   
.text.TCPIP_TCP_Options 0x9d0ab7a0          0x194         404   
.text._sbrk_init        0x9d0ab934          0x194         404   
.text.TCPIP_IPV6_ArrayP 0x9d0abac8          0x190         400   
.text._HTTP_ReadTo      0x9d0abc58          0x190         400   
.text.TCPIP_TCP_ArrayGe 0x9d0abde8          0x18c         396   
.text._UDPsetPacketInfo 0x9d0abf74          0x18c         396   
.text.TCPIP_SNTP_Initia 0x9d0ac100          0x18c         396   
.text.TCPIP_Helper_Base 0x9d0ac28c          0x18c         396   
.text.SYS_FS_FileSeek   0x9d0ac418          0x188         392   
.text.TCPIP_TCP_SocketI 0x9d0ac5a0          0x188         392   
.text.TCPIP_HEAP_Create 0x9d0ac728          0x188         392   
.text._filbuf           0x9d0ac8b0          0x188         392   
.text._TcpClientSocketC 0x9d0aca38          0x184         388   
.text.TCPIP_NDP_SAAPref 0x9d0acbbc          0x180         384   
.text._Command_HeapInfo 0x9d0acd3c          0x180         384   
.text._DRV_ETHPHY_NegRe 0x9d0acebc          0x17c         380   
.text._Command_GatewayA 0x9d0ad038          0x17c         380   
.text.CommandPingHandle 0x9d0ad1b4          0x17c         380   
.text.DRV_ETHMAC_LibTxS 0x9d0ad330          0x178         376   
.text._DRV_PHY_SMITrans 0x9d0ad4a8          0x178         376   
.text.TCPIP_NDP_LinkedL 0x9d0ad620          0x178         376   
.text.TCPIP_UDP_RemoteB 0x9d0ad798          0x178         376   
.text.TCPIP_HTTP_FileIn 0x9d0ad910          0x178         376   
.text._ZeroconfARPPktNo 0x9d0ada88          0x178         376   
.text.WS_SERVER_Tasks   0x9d0adc00          0x174         372   
.text.DRV_EXTPHY_MIICon 0x9d0add74          0x174         372   
.text.TCPIP_UDP_Initial 0x9d0adee8          0x174         372   
.text._DRV_USART_Buffer 0x9d0ae05c          0x170         368   
.text.TCPIP_IPV6_DataSe 0x9d0ae1cc          0x170         368   
.text.TCPIP_IPV6_Fragme 0x9d0ae33c          0x170         368   
.text.TCPIP_TCP_Deiniti 0x9d0ae4ac          0x16c         364   
.text.DRV_MIIM_Setup    0x9d0ae618          0x168         360   
.text.wsParseInputFrame 0x9d0ae780          0x168         360   
.text                   0x9d0ae8e8          0x2d0         720  App's exec code 
.text._DHCPStartOperati 0x9d0aebb8          0x164         356   
.text._DHCPProcessRecei 0x9d0aed1c          0x164         356   
.text.xTaskIncrementTic 0x9d0aee80          0x164         356   
.text.TCPIP_HTTP_GetExe 0x9d0aefe4          0x160         352   
.text.NET_PRES_Tasks    0x9d0af144          0x160         352   
.text.TCPIP_IPV4_Select 0x9d0af2a4          0x160         352   
.text.TCPIP_IPV6_DASPol 0x9d0af404          0x160         352   
.rodata                 0x9d0af564            0x4           4  Read-only const 
.rodata                 0x9d0af568          0x160         352  Read-only const 
.text._DRV_ETHPHY_Setup 0x9d0af6c8          0x15c         348   
.rodata                 0x9d0af824          0x158         344  Read-only const 
.text.TCPIP_HTTP_Print_ 0x9d0af97c          0x158         344   
.text.DRV_ETHMAC_PIC32M 0x9d0afad4          0x158         344   
.text.TCPIP_NDP_NborEnt 0x9d0afc2c          0x158         344   
.text.TCPIP_IPV6_DASSou 0x9d0afd84          0x158         344   
.text.TCPIP_TCP_Options 0x9d0afedc          0x158         344   
.text.read              0x9d0b0034          0x158         344   
.text._SYS_TMR_AlarmCal 0x9d0b018c          0x154         340   
.text.TCPIP_TCP_Bind    0x9d0b02e0          0x154         340   
.text._ARPSendIfPkt     0x9d0b0434          0x154         340   
.text.wsMakeFrame       0x9d0b0588          0x154         340   
.text._MACDeinit        0x9d0b06dc          0x150         336   
.text.DRV_USART_BaudSet 0x9d0b082c          0x150         336   
.text.MPFS_Open         0x9d0b097c          0x150         336   
.text.TCPIP_Helper_IPv6 0x9d0b0acc          0x150         336   
.text._TcpDisconnect    0x9d0b0c1c          0x14c         332   
.text.TCPIP_SMTP_ArrayP 0x9d0b0d68          0x14c         332   
.text.DRV_ETHMAC_PIC32M 0x9d0b0eb4          0x148         328   
.text._EthAppendBusyLis 0x9d0b0ffc          0x148         328   
.text.DRV_ETHPHY_Setup  0x9d0b1144          0x148         328   
.text.DRV_NVM_Initializ 0x9d0b128c          0x148         328   
.text._SYS_TMR_ClientCr 0x9d0b13d4          0x148         328   
.text.TCPIP_HTTP_URLDec 0x9d0b151c          0x148         328   
.text.xTaskResumeAll    0x9d0b1664          0x148         328   
.text.fputc             0x9d0b17ac          0x144         324   
.text.DisplayNodeMsg    0x9d0b18f0          0x140         320   
.text.TCPIP_IPV6_ErrorS 0x9d0b1a30          0x140         320   
.text._Tcpv6MacAckFnc   0x9d0b1b70          0x140         320   
.text.TCPIP_UDP_OpenSer 0x9d0b1cb0          0x140         320   
.text._TCPIP_HEAP_Mallo 0x9d0b1df0          0x140         320   
.text.TCPIP_Commands_In 0x9d0b1f30          0x138         312   
.text.DRV_MIIM_Operatio 0x9d0b2068          0x134         308   
.text.TCPIP_NDP_NextHop 0x9d0b219c          0x134         308   
.text.TCPIP_STACK_KillS 0x9d0b22d0          0x134         308   
.text.TCPIP_STACK_NetUp 0x9d0b2404          0x134         308   
.text.TCPIP_HTTP_Print_ 0x9d0b2538          0x130         304   
.text._ARPDeleteResourc 0x9d0b2668          0x130         304   
.text._Command_MACAddre 0x9d0b2798          0x130         304   
.text.DRV_ETHMAC_LibDes 0x9d0b28c8          0x12c         300   
.text.DRV_TMR_AlarmRegi 0x9d0b29f4          0x12c         300   
.text.TCPIP_TCP_ServerO 0x9d0b2b20          0x12c         300   
.text._flsbuf           0x9d0b2c4c          0x12c         300   
.text._UDPv6AllocateTxP 0x9d0b2d78          0x128         296   
.text.vTaskPriorityInhe 0x9d0b2ea0          0x128         296   
.text.fround            0x9d0b2fc8          0x128         296   
.text.MPFS_Read         0x9d0b30f0          0x124         292   
.text.MPFS_Stat         0x9d0b3214          0x124         292   
.text.TCPIP_NDP_RemoteN 0x9d0b3338          0x124         292   
.text._OAHashFindBkt    0x9d0b345c          0x124         292   
.text.TCPIP_Helper_Stri 0x9d0b3580          0x124         292   
.text.DRV_ETHMAC_PIC32M 0x9d0b36a4          0x120         288   
.rodata                 0x9d0b37c4          0x120         288  Read-only const 
.text.TCPIP_NDP_NborCac 0x9d0b38e4          0x120         288   
.text.TCPIP_IPV6_Payloa 0x9d0b3a04          0x120         288   
.rodata                 0x9d0b3b24          0x120         288  Read-only const 
.text.TCPIP_Helper_Pack 0x9d0b3c44          0x120         288   
.text                   0x9d0b3d64          0x120         288  App's exec code 
.rodata                 0x9d0b3e84          0x11c         284  Read-only const 
.text.TCPIP_IPV4_ArpHan 0x9d0b3fa0          0x11c         284   
.text.TCPIP_IPV6_TxIsPu 0x9d0b40bc          0x11c         284   
.text._GetMaxSegSizeOpt 0x9d0b41d8          0x11c         284   
.text.TCPIP_ARP_IsResol 0x9d0b42f4          0x11c         284   
.text._FieldSetIpv6Addr 0x9d0b4410          0x11c         284   
.text.base64            0x9d0b452c          0x11c         284   
.text._DRV_ETHPHY_Setup 0x9d0b4648          0x118         280   
.text.DRV_MIIM_Initiali 0x9d0b4760          0x118         280   
.text._DHCPSetLeaseTime 0x9d0b4878          0x118         280   
.text.TCPIP_STACK_Addre 0x9d0b4990          0x118         280   
.text.BSP_LEDStateSet   0x9d0b4aa8          0x114         276   
.text.DRV_ETHMAC_PIC32M 0x9d0b4bbc          0x114         276   
.text.DRV_MIIM_Open     0x9d0b4cd0          0x114         276   
.text.DRV_NVM_Close     0x9d0b4de4          0x114         276   
.text._Command_PrimaryD 0x9d0b4ef8          0x114         276   
.text.TCPIP_Helper_Pack 0x9d0b500c          0x114         276   
.text._TCPIP_IPV6_Packe 0x9d0b5120          0x110         272   
.text.TCPIP_ARP_EntryQu 0x9d0b5230          0x110         272   
.text._TCPIPStackModule 0x9d0b5340          0x110         272   
.text._MacRxPacketAck   0x9d0b5450          0x10c         268   
.text.DRV_ETHMAC_LibIni 0x9d0b555c          0x10c         268   
.text.SYS_CMD_ADDGRP    0x9d0b5668          0x10c         268   
.text.TCPIP_NDP_NborEnt 0x9d0b5774          0x10c         268   
.text.TCPIP_ICMPV6_Head 0x9d0b5880          0x10c         268   
.text.TCPIP_DHCP_InfoGe 0x9d0b598c          0x10c         268   
.text.wc_Md5Update      0x9d0b5a98          0x108         264   
.text._DRV_ETHPHY_Setup 0x9d0b5ba0          0x108         264   
.text._SYS_FS_DiskNumbe 0x9d0b5ca8          0x108         264   
.text.TCPIP_NDP_PrefixF 0x9d0b5db0          0x108         264   
.text.TCPIP_IPV6_Multic 0x9d0b5eb8          0x108         264   
.text._UDPv6TxAckFnc    0x9d0b5fc0          0x108         264   
.text._UDPv4AllocateSkt 0x9d0b60c8          0x108         264   
.rodata                 0x9d0b61d0          0x108         264  Read-only const 
.text.SYS_DEVCON_Perfor 0x9d0b62d8          0x104         260   
.text.NET_PRES_SocketCl 0x9d0b63dc          0x104         260   
.text._TcpSocketSetIdle 0x9d0b64e0          0x104         260   
.text._DHCPEnable       0x9d0b65e4          0x104         260   
.text.TCPIP_STACK_NetCo 0x9d0b66e8          0x104         260   
.text                   0x9d0b67ec          0x104         260  App's exec code 
.rodata                 0x9d0b68f0          0x104         260  Read-only const 
.text.fgetc             0x9d0b69f4          0x104         260   
.text.TCPIP_NDP_LinkedL 0x9d0b6af8          0x100         256   
.text.TCPIP_NDP_DestCac 0x9d0b6bf8          0x100         256   
.text.TCPIP_IPV6_Addres 0x9d0b6cf8          0x100         256   
.text._DNS_ValidateIf   0x9d0b6df8          0x100         256   
.text.DRV_NVM_Open      0x9d0b6ef8           0xfc         252   
.text.MPFS_Mount        0x9d0b6ff4           0xfc         252   
.text.TCPIP_HTTP_Task   0x9d0b70f0           0xfc         252   
.text.prvUnlockQueue    0x9d0b71ec           0xfc         252   
.text.DRV_ETHMAC_Tasks_ 0x9d0b72e8           0xf8         248   
.text.SYS_CMD_READY_TO_ 0x9d0b73e0           0xf8         248   
.text.Console_UART_Writ 0x9d0b74d8           0xf8         248   
.text.SYS_DEBUG_Print   0x9d0b75d0           0xf8         248   
.text.SYS_CLK_Initializ 0x9d0b76c8           0xf4         244   
.text.STREAMER_Tasks    0x9d0b77bc           0xf4         244   
.text._DRV_ETHPHY_NegCo 0x9d0b78b0           0xf4         244   
.text.SYS_FS_FileStat   0x9d0b79a4           0xf4         244   
.text.TCPIP_NDP_Initial 0x9d0b7a98           0xf4         244   
.text.TCPIP_NDP_Unicast 0x9d0b7b8c           0xf4         244   
.text.prvCopyDataToQueu 0x9d0b7c80           0xf4         244   
.text.xTaskPriorityDisi 0x9d0b7d74           0xf4         244   
.text._DRV_ETHPHY_Reset 0x9d0b7e68           0xf0         240   
.text.TCPIP_UDP_Disconn 0x9d0b7f58           0xf0         240   
.text._DHCPClientClose  0x9d0b8048           0xf0         240   
.text.TCPIP_SMTP_Put    0x9d0b8138           0xf0         240   
.text.DRV_ETHMAC_PIC32M 0x9d0b8228           0xec         236   
.text._DRV_ETHPHY_Setup 0x9d0b8314           0xec         236   
.text.SYS_FS_FileRead   0x9d0b8400           0xec         236   
.text.SYS_TMR_SystemCou 0x9d0b84ec           0xec         236   
.text.TCPIP_IPV4_DeInit 0x9d0b85d8           0xec         236   
.text._DRV_TMR_ClockSou 0x9d0b86c4           0xe8         232   
.text._SYS_TMR_ClientPa 0x9d0b87ac           0xe8         232   
.text.TCPIP_NDP_Reachab 0x9d0b8894           0xe8         232   
.text._Tcpv6AckFnc      0x9d0b897c           0xe8         232   
.text._DHCPPacketFilter 0x9d0b8a64           0xe8         232   
.text.TCPIP_STACK_NetAd 0x9d0b8b4c           0xe8         232   
.text._DRV_USART_Buffer 0x9d0b8c34           0xe4         228   
.text.TCPIP_TCP_ArrayPe 0x9d0b8d18           0xe4         228   
.text.TCPIP_NBNS_Initia 0x9d0b8dfc           0xe4         228   
.text._TCPIP_StackSyncF 0x9d0b8ee0           0xe4         228   
.text.prvAddCurrentTask 0x9d0b8fc4           0xe4         228   
.text.TCPIP_IPV6_Header 0x9d0b90a8           0xe0         224   
.text._UDPv6TxMacAckFnc 0x9d0b9188           0xe0         224   
.text._FieldIpV6NextAdd 0x9d0b9268           0xe0         224   
.text.TCPIP_OAHASH_Entr 0x9d0b9348           0xe0         224   
.text.TCPIP_STACK_Bring 0x9d0b9428           0xe0         224   
.text.vTaskSwitchContex 0x9d0b9508           0xe0         224   
.text.SYS_Tasks         0x9d0b95e8           0xdc         220   
.text.SYS_CMD_DELETE    0x9d0b96c4           0xdc         220   
.text._TcpAbort         0x9d0b97a0           0xdc         220   
.text.TCPIP_DHCP_Connec 0x9d0b987c           0xdc         220   
.text._HTTP_CloseConnec 0x9d0b9958           0xdc         220   
.text._Command_BIOSName 0x9d0b9a34           0xdc         220   
.text._Command_DefaultI 0x9d0b9b10           0xdc         220   
.text.general_exception 0x9d0b9bec           0xdc         220   
.text.SYS_CMD_Initializ 0x9d0b9cc8           0xd8         216   
.text._ARPUpdateEntry   0x9d0b9da0           0xd8         216   
.text.TCPIP_ARP_CacheEn 0x9d0b9e78           0xd8         216   
.text._TCPIP_PKT_Packet 0x9d0b9f50           0xd8         216   
.text._cache_err_except 0x9d0ba028           0xd8         216   
.text.simple_tlb_refill 0x9d0ba100           0xd8         216   
.rodata                 0x9d0ba1d8           0xd4         212  Read-only const 
.text._MacTxPendingPack 0x9d0ba2ac           0xd4         212   
.text._DRV_ETHPHY_NegRe 0x9d0ba380           0xd4         212   
.text.DRV_TMR_CounterFr 0x9d0ba454           0xd4         212   
.text.NET_PRES_SocketRe 0x9d0ba528           0xd4         212   
.text.SYS_TMR_Initializ 0x9d0ba5fc           0xd4         212   
.text.TCPIP_IPV6_Pseudo 0x9d0ba6d0           0xd4         212   
.text.FindEmailAddress  0x9d0ba7a4           0xd4         212   
.text._mon_putc         0x9d0ba878           0xd4         212   
.text._DRV_ETHMAC_LinkS 0x9d0ba94c           0xd0         208   
.text.DRV_ETHPHY_Open   0x9d0baa1c           0xd0         208   
.text.SYS_FS_Initialize 0x9d0baaec           0xd0         208   
.rodata                 0x9d0babc0           0xd0         208  Read-only const 
.text.TCPIP_HTTP_Print_ 0x9d0bac90           0xcc         204   
.text.DRV_ETHMAC_LibTxA 0x9d0bad5c           0xcc         204   
.text.NET_PRES_SocketWr 0x9d0bae28           0xcc         204   
.text.NET_PRES_SocketRe 0x9d0baef4           0xcc         204   
.text.SYS_FS_FileClose  0x9d0bafc0           0xcc         204   
.text.TCPIP_NDP_PrefixL 0x9d0bb08c           0xcc         204   
.text.TCPIP_NDP_PrefixI 0x9d0bb158           0xcc         204   
.text.TCPIP_IPV6_NewRou 0x9d0bb224           0xcc         204   
.text._TCPIP_IPV6_Queue 0x9d0bb2f0           0xcc         204   
.text.TCPIP_IPV6_Addres 0x9d0bb3bc           0xcc         204   
.text.TCPIP_ICMPV6_Head 0x9d0bb488           0xcc         204   
.text.TCPIP_ARP_EntryRe 0x9d0bb554           0xcc         204   
.text.TCPIP_ZCLL_Initia 0x9d0bb620           0xcc         204   
.text.DRV_TMR_Tasks     0x9d0bb6ec           0xc8         200   
.text._TCP_PayloadSet   0x9d0bb7b4           0xc8         200   
.text.TCPIP_OAHASH_Entr 0x9d0bb87c           0xc8         200   
.text._NetConfigStringT 0x9d0bb944           0xc8         200   
.text.safeSend          0x9d0bba0c           0xc8         200   
.text._sbrk             0x9d0bbad4           0xc8         200   
.text._DRV_TMR_ClockPre 0x9d0bbb9c           0xc4         196   
.text.DRV_USART_LineCon 0x9d0bbc60           0xc4         196   
.text.TCPIP_IPV6_TxPack 0x9d0bbd24           0xc4         196   
.text._DHCPOptionWriteS 0x9d0bbde8           0xc4         196   
.text._DRV_MIIM_Release 0x9d0bbeac           0xc0         192   
.text.SYS_CMD_PRINT     0x9d0bbf6c           0xc0         192   
.text.TCPIP_NDP_Default 0x9d0bc02c           0xc0         192   
.text.TCPIP_IPV6_Solici 0x9d0bc0ec           0xc0         192   
.text._DHCPOptionProces 0x9d0bc1ac           0xc0         192   
.text.TCPIP_ANNOUNCE_Ta 0x9d0bc26c           0xc0         192   
.text._TCPIPStackIPv6Ad 0x9d0bc32c           0xc0         192   
.text.xQueueGenericRese 0x9d0bc3ec           0xc0         192   
.text.xQueueGiveFromISR 0x9d0bc4ac           0xc0         192   
.text.SendCommandPrint  0x9d0bc56c           0xbc         188   
.text.SYS_CMDIO_ADD     0x9d0bc628           0xbc         188   
.text.TCPIP_TCP_Destina 0x9d0bc6e4           0xbc         188   
.text.TCPIP_UDP_ArrayPu 0x9d0bc7a0           0xbc         188   
.text.TCPIP_UDP_SocketN 0x9d0bc85c           0xbc         188   
.text.TCPIP_UDP_Destina 0x9d0bc918           0xbc         188   
.text._DHCPOptionWriteI 0x9d0bc9d4           0xbc         188   
.text.TCPIP_DNS_Disable 0x9d0bca90           0xbc         188   
.text.xTaskRemoveFromEv 0x9d0bcb4c           0xbc         188   
.tlb.__pic32_tlb_init_e 0x9d0bcc08           0xbc         188   
.text._SYS_FS_DiskGet   0x9d0bccc4           0xb8         184   
.text.TCPIP_DNS_OAHASH_ 0x9d0bcd7c           0xb8         184   
.text.TCPIP_DNS_GetIPAd 0x9d0bce34           0xb8         184   
.text.TCPIP_PKT_DataSeg 0x9d0bceec           0xb8         184   
.text._EthTxSchedBuffer 0x9d0bcfa4           0xb4         180   
.text.Console_UART_Read 0x9d0bd058           0xb4         180   
.text.SYS_FS_MEDIA_MANA 0x9d0bd10c           0xb4         180   
.text.TCPIP_UDP_BcastIP 0x9d0bd1c0           0xb4         180   
.text._ARPNotifyClients 0x9d0bd274           0xb4         180   
.text.TCPIP_DHCP_Disabl 0x9d0bd328           0xb4         180   
.text._DNS_DeleteHash   0x9d0bd3dc           0xb4         180   
.text.TCPIP_STACK_NetDo 0x9d0bd490           0xb4         180   
.text._TCPIPStackInsert 0x9d0bd544           0xb4         180   
.text.pvPortMalloc      0x9d0bd5f8           0xb4         180   
.text.prvIdleTask       0x9d0bd6ac           0xb4         180   
.text.getUptoLinefeed   0x9d0bd760           0xb4         180   
.text._DRV_ETHPHY_Reset 0x9d0bd814           0xb0         176   
.text.TCPIP_NDP_PrefixO 0x9d0bd8c4           0xb0         176   
.text.TCPIP_ICMPV6_Head 0x9d0bd974           0xb0         176   
.text._DNS_AddSelection 0x9d0bda24           0xb0         176   
.text.TCPIP_HTTP_PostVa 0x9d0bdad4           0xb0         176   
.text.BSP_LEDOff        0x9d0bdb84           0xac         172   
.text.TCPIP_HTTP_Print_ 0x9d0bdc30           0xac         172   
.text._DRV_ETHMAC_LinkS 0x9d0bdcdc           0xac         172   
.text._DRV_ETHPHY_NegCo 0x9d0bdd88           0xac         172   
.text._DRV_NVM_UnlockSe 0x9d0bde34           0xac         172   
.text.TCPIP_IPV6_Routin 0x9d0bdee0           0xac         172   
.text.TCPIP_TCP_RemoteB 0x9d0bdf8c           0xac         172   
.text.TCPIP_UDP_IsConne 0x9d0be038           0xac         172   
.text._DNS_Enable       0x9d0be0e4           0xac         172   
.text._TCPIP_AnnounceCl 0x9d0be190           0xac         172   
.text.atol              0x9d0be23c           0xac         172   
.text.TCPIP_HTTP_Print_ 0x9d0be2e8           0xa8         168   
.text.DRV_ETHMAC_PIC32M 0x9d0be390           0xa8         168   
.text.DRV_ETHPHY_Vendor 0x9d0be438           0xa8         168   
.text.DRV_ETHPHY_Vendor 0x9d0be4e0           0xa8         168   
.text.SYS_FS_FileNameFo 0x9d0be588           0xa8         168   
.text.TCPIP_IPV6_Transm 0x9d0be630           0xa8         168   
.text.TCPIP_UDP_OpenCli 0x9d0be6d8           0xa8         168   
.text.TCPIP_PKT_PacketM 0x9d0be780           0xa8         168   
.text                   0x9d0be828           0xa8         168  App's exec code 
.text.atoi              0x9d0be8d0           0xa8         168   
.text.range             0x9d0be978           0xa8         168   
.text.DRV_ETHPHY_Initia 0x9d0bea20           0xa4         164   
.text._DRV_ETHPHY_Setup 0x9d0beac4           0xa4         164   
.text.TCPIP_IPV4_Initia 0x9d0beb68           0xa4         164   
.text.TCPIP_NDP_Address 0x9d0bec0c           0xa4         164   
.text._ICMPV6_NotifyCli 0x9d0becb0           0xa4         164   
.text.TCPIP_ICMPV6_Open 0x9d0bed54           0xa4         164   
.text._TCPIPStackModule 0x9d0bedf8           0xa4         164   
.text._DRV_ETHPHY_LinkS 0x9d0bee9c           0xa0         160   
.text.DRV_USART_TasksRe 0x9d0bef3c           0xa0         160   
.text.DRV_USART_TasksTr 0x9d0befdc           0xa0         160   
.text.DRV_USART_TasksEr 0x9d0bf07c           0xa0         160   
.text.Console_UART_Stat 0x9d0bf11c           0xa0         160   
.text.TCPIP_NDP_DupAddr 0x9d0bf1bc           0xa0         160   
.text.TCPIP_IPV6_UpperL 0x9d0bf25c           0xa0         160   
.text.TCPIP_ICMPV6_Head 0x9d0bf2fc           0xa0         160   
.text._TCPSendWinIncUpd 0x9d0bf39c           0xa0         160   
.rodata                 0x9d0bf43c           0xa0         160  Read-only const 
.text.TCPIP_DNS_RemoveA 0x9d0bf4dc           0xa0         160   
.text.TCPIP_Helper_Find 0x9d0bf57c           0xa0         160   
.text.TCPIP_Helper_Sing 0x9d0bf61c           0xa0         160   
.text._TCPIP_PKT_Packet 0x9d0bf6bc           0xa0         160   
.text.xTaskCheckForTime 0x9d0bf75c           0xa0         160   
.text.fflush            0x9d0bf7fc           0xa0         160   
.text._DRV_ETHMAC_LinkS 0x9d0bf89c           0x9c         156   
.text.Helper_SingleList 0x9d0bf938           0x9c         156   
.text.DRV_MIIM_Operatio 0x9d0bf9d4           0x9c         156   
.text._DRV_USART_ErrorC 0x9d0bfa70           0x9c         156   
.text.SYS_FS_MEDIA_MANA 0x9d0bfb0c           0x9c         156   
.text.TCPIP_ARP_Probe   0x9d0bfba8           0x9c         156   
.rodata                 0x9d0bfc44           0x9c         156  Read-only const 
.text.TCPIP_STACK_Strin 0x9d0bfce0           0x9c         156   
.text._TCPIPStackModule 0x9d0bfd7c           0x9c         156   
.text.write             0x9d0bfe18           0x9c         156   
.text.DRV_ETHMAC_PIC32M 0x9d0bfeb4           0x98         152   
.text._EthTxSchedList   0x9d0bff4c           0x98         152   
.text.DRV_ETHMAC_LibDes 0x9d0bffe4           0x98         152   
.text._DRV_MIIM_GetClie 0x9d0c007c           0x98         152   
.text.MPFSGetFileRecord 0x9d0c0114           0x98         152   
.text.TCPIP_IPV6_MacPac 0x9d0c01ac           0x98         152   
.text.TCPIP_IPV6_Source 0x9d0c0244           0x98         152   
.text._UDPSetSourceAddr 0x9d0c02dc           0x98         152   
.text._UDPSetNewRxPacke 0x9d0c0374           0x98         152   
.text._HTTP_Cleanup     0x9d0c040c           0x98         152   
.text.TCPIP_Helper_IPAd 0x9d0c04a4           0x98         152   
.text.TCPIP_Helper_Form 0x9d0c053c           0x98         152   
.text.TCPIP_ICMP_Initia 0x9d0c05d4           0x98         152   
.text                   0x9d0c066c           0x98         152  App's exec code 
.rodata                 0x9d0c0704           0x94         148  Read-only const 
.text.TCPIP_IPV6_Deinit 0x9d0c0798           0x94         148   
.text._TcpCleanup       0x9d0c082c           0x94         148   
.text.TCPIP_ARP_Deiniti 0x9d0c08c0           0x94         148   
.text._DNS_CleanCacheEn 0x9d0c0954           0x94         148   
.text.TCPIP_HTTP_ArgGet 0x9d0c09e8           0x94         148   
.text.xQueueGenericCrea 0x9d0c0a7c           0x94         148   
.text.TCPIP_HTTP_Print_ 0x9d0c0b10           0x90         144   
.text._DRV_ETHMAC_LinkS 0x9d0c0ba0           0x90         144   
.text._DRV_ETHPHY_NegCo 0x9d0c0c30           0x90         144   
.text.NET_PRES_SocketFl 0x9d0c0cc0           0x90         144   
.text.NET_PRES_SocketSi 0x9d0c0d50           0x90         144   
.text.SYS_CONSOLE_Statu 0x9d0c0de0           0x90         144   
.text.SYS_FS_FileNameGe 0x9d0c0e70           0x90         144   
.text.SYS_FS_MEDIA_MANA 0x9d0c0f00           0x90         144   
.text.MPFSGetArray      0x9d0c0f90           0x90         144   
.rodata                 0x9d0c1020           0x90         144  Read-only const 
.text.uitoa             0x9d0c10b0           0x90         144   
.text.TCPIP_NDP_DupAddr 0x9d0c1140           0x90         144   
.text.TCPIP_NDP_Tentati 0x9d0c11d0           0x90         144   
.text.TCPIP_ICMPV6_Head 0x9d0c1260           0x90         144   
.text._TCPSetSourceAddr 0x9d0c12f0           0x90         144   
.text._UDPFreeTxResourc 0x9d0c1380           0x90         144   
.text.TCPIP_ARP_EntryGe 0x9d0c1410           0x90         144   
.text._DHCPOptionClient 0x9d0c14a0           0x90         144   
.text.TCPIP_DNS_ClientD 0x9d0c1530           0x90         144   
.text._TCPIPStackIpAddF 0x9d0c15c0           0x90         144   
.text.wsSendDataCallbac 0x9d0c1650           0x90         144   
.text.strstr            0x9d0c16e0           0x90         144   
.text._frexpx           0x9d0c1770           0x90         144   
.text.OSAL_SEM_Create   0x9d0c1800           0x8c         140   
.text.MPFS_DirOpen      0x9d0c188c           0x8c         140   
.text.TCPIP_IPV6_Addres 0x9d0c1918           0x8c         140   
.text.TCPIP_UDP_TxOffse 0x9d0c19a4           0x8c         140   
.text._DHCPCleanup      0x9d0c1a30           0x8c         140   
.text._DHCPNotifyClient 0x9d0c1abc           0x8c         140   
.text._DNSDiscardName   0x9d0c1b48           0x8c         140   
.text.TCPIP_STACK_NetAl 0x9d0c1bd4           0x8c         140   
.text.TCPIP_STACK_NetBi 0x9d0c1c60           0x8c         140   
.text.rand              0x9d0c1cec           0x8c         140   
.text.DRV_ETHMAC_LibClo 0x9d0c1d78           0x88         136   
.text.MPFS_Seek         0x9d0c1e00           0x88         136   
.text.hexatob           0x9d0c1e88           0x88         136   
.rodata                 0x9d0c1f10           0x88         136  Read-only const 
.text.TCPIP_SNTP_Connec 0x9d0c1f98           0x88         136   
.text.DRV_ETHPHY_Vendor 0x9d0c2020           0x84         132   
.text._DRV_MIIM_GetOpDc 0x9d0c20a4           0x84         132   
.text.NET_PRES_SocketOp 0x9d0c2128           0x84         132   
.text.NET_PRES_SocketIs 0x9d0c21ac           0x84         132   
.text.TCPIP_IPV6_Payloa 0x9d0c2230           0x84         132   
.text.TCPIP_IPV6_Client 0x9d0c22b4           0x84         132   
.text._TCPv6AllocateTxP 0x9d0c2338           0x84         132   
.text.TCPIP_UDP_RxOffse 0x9d0c23bc           0x84         132   
.text._TCPIP_HEAP_MaxSi 0x9d0c2440           0x84         132   
.text.TCPIP_SMTP_MailSe 0x9d0c24c4           0x84         132   
.text.zgzc_wait_for     0x9d0c2548           0x84         132   
.text._FieldSetMacName  0x9d0c25cc           0x84         132   
.text.TCPIP_STACK_NetHa 0x9d0c2650           0x84         132   
.text._TCPIPStackSetCon 0x9d0c26d4           0x84         132   
.text._DRV_ETHPHY_Setup 0x9d0c2758           0x80         128   
.text.DRV_MIIM_Register 0x9d0c27d8           0x80         128   
.text.ReadCommandCharac 0x9d0c2858           0x80         128   
.text.SYS_CONSOLE_Write 0x9d0c28d8           0x80         128   
.text._TCPIP_IPV6_Clean 0x9d0c2958           0x80         128   
.text._TCPIP_HEAP_Delet 0x9d0c29d8           0x80         128   
.text.TCPIP_DNS_OAHASH_ 0x9d0c2a58           0x80         128   
.text._ZCLLEnable       0x9d0c2ad8           0x80         128   
.text._FieldSetHostName 0x9d0c2b58           0x80         128   
.text.TCPIP_Helper_MACA 0x9d0c2bd8           0x80         128   
.text._fassert          0x9d0c2c58           0x80         128   
.text._DRV_ETHPHY_Setup 0x9d0c2cd8           0x7c         124   
.text.CommandCleanup    0x9d0c2d54           0x7c         124   
.text.TCPIP_NDP_Default 0x9d0c2dd0           0x7c         124   
.text._TCP_EphemeralPor 0x9d0c2e4c           0x7c         124   
.text.TCPIP_TCP_FifoTxF 0x9d0c2ec8           0x7c         124   
.text._UDPAllocateEphem 0x9d0c2f44           0x7c         124   
.text.TCPIP_ARP_Handler 0x9d0c2fc0           0x7c         124   
.text.TCPIP_SNTP_TimeSt 0x9d0c303c           0x7c         124   
.text._PingStop         0x9d0c30b8           0x7c         124   
.text._TCPIP_MacEventCB 0x9d0c3134           0x7c         124   
.text._TCPIPStackModule 0x9d0c31b0           0x7c         124   
.text._DRV_ETHPHY_Setup 0x9d0c322c           0x78         120   
.text._DRV_ETHPHY_NegRe 0x9d0c32a4           0x78         120   
.text.DRV_TMR_CounterVa 0x9d0c331c           0x78         120   
.rodata                 0x9d0c3394           0x78         120  Read-only const 
.text.SYS_CONSOLE_Read  0x9d0c340c           0x78         120   
.text.TCPIP_NDP_Deiniti 0x9d0c3484           0x78         120   
.text.TCPIP_IPV6_Handle 0x9d0c34fc           0x78         120   
.text.TCPIP_TCP_Close   0x9d0c3574           0x78         120   
.text._TxSktGetLockedV4 0x9d0c35ec           0x78         120   
.text._DHCPOptionProces 0x9d0c3664           0x78         120   
.text.TCPIP_DHCP_IsEnab 0x9d0c36dc           0x78         120   
.text.TCPIP_DHCP_Handle 0x9d0c3754           0x78         120   
.text.TCPIP_SNTP_TimeSt 0x9d0c37cc           0x78         120   
.text.TCPIP_ANNOUNCE_De 0x9d0c3844           0x78         120   
.text.TCPIP_PKT_Initial 0x9d0c38bc           0x78         120   
.text.vTaskStartSchedul 0x9d0c3934           0x78         120   
.text.freeHandshake     0x9d0c39ac           0x78         120   
.text.DRV_ETHMAC_PIC32M 0x9d0c3a24           0x74         116   
.text._DRV_ETHPHY_NegCo 0x9d0c3a98           0x74         116   
.text.DRV_NVM_CommandSt 0x9d0c3b0c           0x74         116   
.text._TcpSocketSetSour 0x9d0c3b80           0x74         116   
.text._TcpSwapHeader    0x9d0c3bf4           0x74         116   
.text._TxSktGetLockedV6 0x9d0c3c68           0x74         116   
.text._RxSktQueueAddLoc 0x9d0c3cdc           0x74         116   
.text._DHCPOptionProces 0x9d0c3d50           0x74         116   
.text.TCPIP_SMTP_Client 0x9d0c3dc4           0x74         116   
.text.TCPIP_Helper_Stri 0x9d0c3e38           0x74         116   
.text._TCPIPStackAnyNet 0x9d0c3eac           0x74         116   
.text._TCPIPStackSignal 0x9d0c3f20           0x74         116   
.text.raise             0x9d0c3f94           0x74         116   
.text.strncpy           0x9d0c4008           0x74         116   
.text.ungetc            0x9d0c407c           0x74         116   
.text._DRV_ETHPHY_LinkS 0x9d0c40f0           0x70         112   
.text.CommandQuit       0x9d0c4160           0x70         112   
.text.SYS_FS_FileTell   0x9d0c41d0           0x70         112   
.text.SYS_FS_FileSize   0x9d0c4240           0x70         112   
.text.SYS_FS_MEDIA_MANA 0x9d0c42b0           0x70         112   
.text._SYS_TMR_ClientCh 0x9d0c4320           0x70         112   
.rodata                 0x9d0c4390           0x70         112  Read-only const 
.text.TCPIP_IPV6_DestAd 0x9d0c4400           0x70         112   
.text._UDPClose         0x9d0c4470           0x70         112   
.text._ARPSetEntry      0x9d0c44e0           0x70         112   
.text._ARPRemoveEntry   0x9d0c4550           0x70         112   
.text.ANNOUNCE_Notify   0x9d0c45c0           0x70         112   
.text.TCPIP_Helper_Prot 0x9d0c4630           0x70         112   
.text._TCPIP_PKT_Packet 0x9d0c46a0           0x70         112   
.rodata                 0x9d0c4710           0x70         112  Read-only const 
.text.strncmp           0x9d0c4780           0x70         112   
.text.BSP_Initialize    0x9d0c47f0           0x6c         108   
.text.TCPIP_HTTP_Print_ 0x9d0c485c           0x6c         108   
.text.TCPIP_HTTP_Print_ 0x9d0c48c8           0x6c         108   
.text.TCPIP_HTTP_Print_ 0x9d0c4934           0x6c         108   
.text.TCPIP_HTTP_Print_ 0x9d0c49a0           0x6c         108   
.text._MacRxFreeCallbac 0x9d0c4a0c           0x6c         108   
.text.DRV_MIIM_Deinitia 0x9d0c4a78           0x6c         108   
.text.SYS_CONSOLE_Initi 0x9d0c4ae4           0x6c         108   
.text.TCPIP_IPV6_DataSe 0x9d0c4b50           0x6c         108   
.text._TcpSocketKill    0x9d0c4bbc           0x6c         108   
.text._DNSGetData       0x9d0c4c28           0x6c         108   
.text.TCPIP_SMTP_UsageB 0x9d0c4c94           0x6c         108   
.text.TCPIP_SMTP_UsageE 0x9d0c4d00           0x6c         108   
.text.TCPIP_SMTP_IsPutR 0x9d0c4d6c           0x6c         108   
.text._TCPIP_PKT_Socket 0x9d0c4dd8           0x6c         108   
.text.vApplicationSetup 0x9d0c4e44           0x6c         108   
.text.strncat           0x9d0c4eb0           0x6c         108   
.text.DRV_NVM_Erase     0x9d0c4f1c           0x68         104   
.text._DRV_TMR_Resume   0x9d0c4f84           0x68         104   
.text.Console_UART_Flus 0x9d0c4fec           0x68         104   
.text.SYS_RANDOM_Initia 0x9d0c5054           0x68         104   
.text.TCPIP_ICMPV6_Init 0x9d0c50bc           0x68         104   
.text.TCPIP_ARP_HashEnt 0x9d0c5124           0x68         104   
.text._DHCPSetRunFail   0x9d0c518c           0x68         104   
.text._DHCPSetTimeout   0x9d0c51f4           0x68         104   
.text.TCPIP_DNS_RemoveE 0x9d0c525c           0x68         104   
.text.TCPIP_ZCLL_Enable 0x9d0c52c4           0x68         104   
.text.TCPIP_Helper_Prot 0x9d0c532c           0x68         104   
.text._TCPIPSignalEntry 0x9d0c5394           0x68         104   
.text.TCPIP_STACK_IsBca 0x9d0c53fc           0x68         104   
.text._sprintf_cdnopsux 0x9d0c5464           0x68         104   
.text.TCPIP_HTTP_Print_ 0x9d0c54cc           0x64         100   
.text.TCPIP_HTTP_Print_ 0x9d0c5530           0x64         100   
.text.TCPIP_HTTP_Print_ 0x9d0c5594           0x64         100   
.text.TCPIP_HTTP_Print_ 0x9d0c55f8           0x64         100   
.text.TCPIP_HTTP_Print_ 0x9d0c565c           0x64         100   
.text._MacTxFreeCallbac 0x9d0c56c0           0x64         100   
.text._DRV_TMR_ModuleOb 0x9d0c5724           0x64         100   
.text.DRV_TMR_AlarmDisa 0x9d0c5788           0x64         100   
.text.DRV_TMR_Start     0x9d0c57ec           0x64         100   
.text.SendCommandCharac 0x9d0c5850           0x64         100   
.text.MPFS_EOF          0x9d0c58b4           0x64         100   
.text.TCPIP_IPV4_Cleanu 0x9d0c5918           0x64         100   
.text.TCPIP_NDP_DestCac 0x9d0c597c           0x64         100   
.text.TCPIP_IPV6_Router 0x9d0c59e0           0x64         100   
.text.TCPIP_IPV6_MaxDat 0x9d0c5a44           0x64         100   
.text.TCPIP_TCP_SignalH 0x9d0c5aa8           0x64         100   
.text.TCPIP_UDP_SignalH 0x9d0c5b0c           0x64         100   
.text.TCPIP_DHCP_Deinit 0x9d0c5b70           0x64         100   
.text.TCPIP_DNS_ClientI 0x9d0c5bd4           0x64         100   
.text.TCPIP_ZCLL_Disabl 0x9d0c5c38           0x64         100   
.text.IPv6_Announce_Not 0x9d0c5c9c           0x64         100   
.text.TCPIP_Commands_De 0x9d0c5d00           0x64         100   
.text._TCPIPStackModule 0x9d0c5d64           0x64         100   
.text._general_exceptio 0x9d0c5dc8           0x60          96   
.text._DRV_MIIM_GetObje 0x9d0c5e28           0x60          96   
.text.SYS_FS_MEDIA_MANA 0x9d0c5e88           0x60          96   
.text.MPFS_Close        0x9d0c5ee8           0x60          96   
.text.IPv4RegisterFilte 0x9d0c5f48           0x60          96   
.text.TCPIP_IPV6_FreeCo 0x9d0c5fa8           0x60          96   
.text.TCPIP_TCP_Connect 0x9d0c6008           0x60          96   
.text.TCPIP_TCP_Discard 0x9d0c6068           0x60          96   
.text._UDPUpdatePacketL 0x9d0c60c8           0x60          96   
.text.TCPIP_UDP_GetIsRe 0x9d0c6128           0x60          96   
.text.TCPIP_ARP_Callbac 0x9d0c6188           0x60          96   
.text._DHCPOptionProces 0x9d0c61e8           0x60          96   
.text._DNSClientCleanup 0x9d0c6248           0x60          96   
.rodata                 0x9d0c62a8           0x60          96  Read-only const 
.text.TCPIP_OAHASH_Entr 0x9d0c6308           0x60          96   
.rodata                 0x9d0c6368           0x60          96  Read-only const 
.text.TCPIP_Helper_Prot 0x9d0c63c8           0x60          96   
.text.TCPIP_Helper_Prot 0x9d0c6428           0x60          96   
.text.TCPIP_Helper_Prot 0x9d0c6488           0x60          96   
.text.pxPortInitialiseS 0x9d0c64e8           0x60          96   
.text.vTaskExitCritical 0x9d0c6548           0x60          96   
.text.wspace            0x9d0c65a8           0x60          96   
.text.TCPIP_HTTP_FileAu 0x9d0c6608           0x5c          92   
.text._MacTxDiscardQueu 0x9d0c6664           0x5c          92   
.text.DRV_ETHPHY_LinkSt 0x9d0c66c0           0x5c          92   
.text.DRV_ETHPHY_Negoti 0x9d0c671c           0x5c          92   
.text._DRV_ETHPHY_Clien 0x9d0c6778           0x5c          92   
.text._DRV_ETHPHY_Clien 0x9d0c67d4           0x5c          92   
.text._DRV_ETHPHY_Clien 0x9d0c6830           0x5c          92   
.text._DRV_ETHPHY_Clien 0x9d0c688c           0x5c          92   
.text._DRV_ETHPHY_Clien 0x9d0c68e8           0x5c          92   
.text._DRV_ETHPHY_Setup 0x9d0c6944           0x5c          92   
.text._DRV_ETHPHY_Clien 0x9d0c69a0           0x5c          92   
.text.DRV_TMR_AlarmEnab 0x9d0c69fc           0x5c          92   
.text.NET_PRES_SocketIs 0x9d0c6a58           0x5c          92   
.text.SYS_FS_MEDIA_MANA 0x9d0c6ab4           0x5c          92   
.text.TCPIP_IPV6_Addres 0x9d0c6b10           0x5c          92   
.text._TCPSocketTxFreeS 0x9d0c6b6c           0x5c          92   
.text._TCPIP_HEAP_Buffe 0x9d0c6bc8           0x5c          92   
.text._DNS_NetIsValid   0x9d0c6c24           0x5c          92   
.text.TCPIP_SNTP_Deinit 0x9d0c6c80           0x5c          92   
.text._FieldSetMacAddr  0x9d0c6cdc           0x5c          92   
.text.fnv_32_hash       0x9d0c6d38           0x5c          92   
.text.TCPIP_STACK_MACId 0x9d0c6d94           0x5c          92   
.text.xPortStartSchedul 0x9d0c6df0           0x5c          92   
.text.vListInsert       0x9d0c6e4c           0x5c          92   
.text._vsnprintf_cdnops 0x9d0c6ea8           0x5c          92   
.text.vsnprintf         0x9d0c6f04           0x5c          92   
.text.SYS_CLK_Periphera 0x9d0c6f60           0x58          88   
.text.SYS_DEVCON_System 0x9d0c6fb8           0x58          88   
.text.TCPIP_STACK_Init  0x9d0c7010           0x58          88   
.text.wc_InitMd5_ex     0x9d0c7068           0x58          88   
.text._DRV_ETHPHY_Clien 0x9d0c70c0           0x58          88   
.text.DRV_TMR_Open      0x9d0c7118           0x58          88   
.text.SendCommandMessag 0x9d0c7170           0x58          88   
.text.MPFS_GetPosition  0x9d0c71c8           0x58          88   
.text.TCPIP_IPV4_CheckP 0x9d0c7220           0x58          88   
.text.TCPIP_NDP_RouterS 0x9d0c7278           0x58          88   
.text.TCPIP_NDP_NborRea 0x9d0c72d0           0x58          88   
.text._DHCPOptionProces 0x9d0c7328           0x58          88   
.text._DHCPOptionProces 0x9d0c7380           0x58          88   
.text._DHCPOptionProces 0x9d0c73d8           0x58          88   
.text.TCPIP_HTTP_Deinit 0x9d0c7430           0x58          88   
.text.TCPIP_HTTP_PostNa 0x9d0c7488           0x58          88   
.text.TCPIP_ZCLL_Deinit 0x9d0c74e0           0x58          88   
.text.TCPIP_Helper_Prot 0x9d0c7538           0x58          88   
.text.TCPIP_STACK_Initi 0x9d0c7590           0x58          88   
.text.TCPIP_STACK_NetBy 0x9d0c75e8           0x58          88   
.text.TCPIP_Notificatio 0x9d0c7640           0x58          88   
.text.xQueueCreateMutex 0x9d0c7698           0x58          88   
.text.vTaskDelay        0x9d0c76f0           0x58          88   
.text.main_entry        0x9d0c7748           0x54          84   
.text._SYS_Tasks        0x9d0c779c           0x54          84   
.text.TCPIP_HTTP_UserAu 0x9d0c77f0           0x54          84   
.text.DRV_ETHMAC_PIC32M 0x9d0c7844           0x54          84   
.text.DRV_ETHMAC_PIC32M 0x9d0c7898           0x54          84   
.text._DRV_ETHMAC_LinkS 0x9d0c78ec           0x54          84   
.text._EnetDescriptorsC 0x9d0c7940           0x54          84   
.text.DRV_MIIM_Deregist 0x9d0c7994           0x54          84   
.rodata                 0x9d0c79e8           0x54          84  Read-only const 
.text.SYS_FS_MEDIA_MANA 0x9d0c7a3c           0x54          84   
.text.SYS_INT_SourceDis 0x9d0c7a90           0x54          84   
.text.TCPIP_NDP_Address 0x9d0c7ae4           0x54          84   
.text.TCPIP_IPV6_Initia 0x9d0c7b38           0x54          84   
.text._TCP_PortIsAvaila 0x9d0c7b8c           0x54          84   
.text._UDPSocketBind    0x9d0c7be0           0x54          84   
.text.TCPIP_ZCLL_Servic 0x9d0c7c34           0x54          84   
.text._TCPIP_Helper_Sec 0x9d0c7c88           0x54          84   
.text.TCPIP_STACK_Addre 0x9d0c7cdc           0x54          84   
.text.vPortIncrementTic 0x9d0c7d30           0x54          84   
.text._sscanf_s         0x9d0c7d84           0x54          84   
.text._XtlEventsTcp2Eth 0x9d0c7dd8           0x50          80   
.text.DRV_ETHPHY_HWConf 0x9d0c7e28           0x50          80   
.text._DRV_ETHPHY_NegRe 0x9d0c7e78           0x50          80   
.text._DRV_ETHPHY_NegRe 0x9d0c7ec8           0x50          80   
.text._DRV_TMR_Suspend  0x9d0c7f18           0x50          80   
.text.MACGetArray       0x9d0c7f68           0x50          80   
.text.TCPIP_ICMPV6_Dein 0x9d0c7fb8           0x50          80   
.text._TCPSetHalfFlushF 0x9d0c8008           0x50          80   
.text._TcpFlush         0x9d0c8058           0x50          80   
.rodata                 0x9d0c80a8           0x50          80  Read-only const 
.text.TCPIP_UDP_Close   0x9d0c80f8           0x50          80   
.text.TCPIP_UDP_SourceI 0x9d0c8148           0x50          80   
.text._DHCPOptionWriteP 0x9d0c8198           0x50          80   
.text._DHCPOptionProces 0x9d0c81e8           0x50          80   
.text.TCPIP_DNS_OAHASH_ 0x9d0c8238           0x50          80   
.text.TCPIP_NBNS_Deinit 0x9d0c8288           0x50          80   
.text.TCPIP_SMTP_Client 0x9d0c82d8           0x50          80   
.text._ZCLLDisable      0x9d0c8328           0x50          80   
.text.TCPIP_Helper_Doub 0x9d0c8378           0x50          80   
.text.TCPIP_STACK_NetMA 0x9d0c83c8           0x50          80   
.text.TCPIP_STACK_NetMA 0x9d0c8418           0x50          80   
.text.TCPIP_Notificatio 0x9d0c8468           0x50          80   
.text.prvCopyDataFromQu 0x9d0c84b8           0x50          80   
.text.sbrk              0x9d0c8508           0x50          80   
.text.BSP_LEDToggle     0x9d0c8558           0x4c          76   
.text.SYS_RESET_Softwar 0x9d0c85a4           0x4c          76   
.text.TCPIP_HTTP_Print_ 0x9d0c85f0           0x4c          76   
.text.TCPIP_HTTP_Print_ 0x9d0c863c           0x4c          76   
.text.TCPIP_HTTP_Print_ 0x9d0c8688           0x4c          76   
.text._MACTxPacketAckCa 0x9d0c86d4           0x4c          76   
.text.DRV_ETHPHY_Close  0x9d0c8720           0x4c          76   
.text.DRV_ETHPHY_Reset  0x9d0c876c           0x4c          76   
.text.DRV_ETHPHY_Negoti 0x9d0c87b8           0x4c          76   
.text._DRV_PHY_NegCompl 0x9d0c8804           0x4c          76   
.text._DRV_ETHPHY_Setup 0x9d0c8850           0x4c          76   
.text.OSAL_SEM_PostISR  0x9d0c889c           0x4c          76   
.text.SYS_CONSOLE_Tasks 0x9d0c88e8           0x4c          76   
.text.UARTDeviceEventHa 0x9d0c8934           0x4c          76   
.text.SYS_TMR_TickCount 0x9d0c8980           0x4c          76   
.text.TCPIP_NDP_RouterS 0x9d0c89cc           0x4c          76   
.text.TCPIP_IPV6_Packet 0x9d0c8a18           0x4c          76   
.text.TCPIP_IPV6_Fragme 0x9d0c8a64           0x4c          76   
.text.TCPIP_TCP_Flush   0x9d0c8ab0           0x4c          76   
.text.TCPIP_TCP_FifoRxF 0x9d0c8afc           0x4c          76   
.text.TCPIP_UDP_Discard 0x9d0c8b48           0x4c          76   
.text._TCPIP_HEAP_Callo 0x9d0c8b94           0x4c          76   
.text._ARPRemoveCacheEn 0x9d0c8be0           0x4c          76   
.text.TCPIP_NBNS_Cleanu 0x9d0c8c2c           0x4c          76   
.text.TCPIP_SNTP_Cleanu 0x9d0c8c78           0x4c          76   
.text.TCPIP_Helper_Prot 0x9d0c8cc4           0x4c          76   
.text.TCPIP_STACK_NetAd 0x9d0c8d10           0x4c          76   
.text.TCPIP_STACK_MACId 0x9d0c8d5c           0x4c          76   
.text.TCPIP_STACK_DNSSe 0x9d0c8da8           0x4c          76   
.text._TCPIPStackSignal 0x9d0c8df4           0x4c          76   
.text.TCPIP_Notificatio 0x9d0c8e40           0x4c          76   
.text.calloc            0x9d0c8e8c           0x4c          76   
.text.SYS_CLK_Secondary 0x9d0c8ed8           0x48          72   
.text.SYS_DEVCON_System 0x9d0c8f20           0x48          72   
.rodata                 0x9d0c8f68           0x48          72  Read-only const 
.text.DRV_ETHPHY_Restar 0x9d0c8fb0           0x48          72   
.text.DRV_ETHPHY_Reinit 0x9d0c8ff8           0x48          72   
.text._DRV_ETHPHY_Clien 0x9d0c9040           0x48          72   
.text._DRV_ETHPHY_NegRe 0x9d0c9088           0x48          72   
.text._DRV_NVM_WriteBuf 0x9d0c90d0           0x48          72   
.text.DRV_TMR_Close     0x9d0c9118           0x48          72   
.text.OSAL_CRIT_Enter   0x9d0c9160           0x48          72   
.text.SYS_CONSOLE_Flush 0x9d0c91a8           0x48          72   
.text.SYS_FS_MEDIA_MANA 0x9d0c91f0           0x48          72   
.text.SYS_FS_FileStat_W 0x9d0c9238           0x48          72   
.text.TCPIP_IPV6_Protec 0x9d0c9280           0x48          72   
.text.TCPIP_IPV6_Addres 0x9d0c92c8           0x48          72   
.text.TCPIP_TCP_WasRese 0x9d0c9310           0x48          72   
.text.TCPIP_TCP_StringP 0x9d0c9358           0x48          72   
.text.TCPIP_TCP_SignalH 0x9d0c93a0           0x48          72   
.text._UDPIsAvailablePo 0x9d0c93e8           0x48          72   
.text._UDPTxPktValid    0x9d0c9430           0x48          72   
.text.TCPIP_UDP_Destina 0x9d0c9478           0x48          72   
.text.TCPIP_UDP_SignalH 0x9d0c94c0           0x48          72   
.text.TCPIP_HEAP_Create 0x9d0c9508           0x48          72   
.text.TCPIP_ARP_Handler 0x9d0c9550           0x48          72   
.text._DHCPOptionWriteM 0x9d0c9598           0x48          72   
.text.TCPIP_Helper_Sing 0x9d0c95e0           0x48          72   
.text._TCPIP_STACK_Tick 0x9d0c9628           0x48          72   
.text.TCPIP_STACK_IPAdd 0x9d0c9670           0x48          72   
.text.TCPIP_STACK_Addre 0x9d0c96b8           0x48          72   
.text.vTaskEnterCritica 0x9d0c9700           0x48          72   
.text._bootstrap_except 0x9d0c9748           0x48          72   
.text._cache_err_except 0x9d0c9790           0x48          72   
.text._simple_tlb_refil 0x9d0c97d8           0x48          72   
.text.BSP_SwitchStateGe 0x9d0c9820           0x44          68   
.text.BSP_LEDStateGet   0x9d0c9864           0x44          68   
.text.TCPIP_HTTP_Print_ 0x9d0c98a8           0x44          68   
.text.TCPIP_HTTP_Print_ 0x9d0c98ec           0x44          68   
.text.DRV_ETHPHY_Tasks  0x9d0c9930           0x44          68   
.text._DRV_NVM_ClientHa 0x9d0c9974           0x44          68   
.text.OSAL_CRIT_Leave   0x9d0c99b8           0x44          68   
.text.IsCommandReady    0x9d0c99fc           0x44          68   
.text.MPFS_Unmount      0x9d0c9a40           0x44          68   
.text.Ipv4DeRegisterFil 0x9d0c9a84           0x44          68   
.text.TCPIP_IPV6_Header 0x9d0c9ac8           0x44          68   
.text.TCPIP_IPV6_Handle 0x9d0c9b0c           0x44          68   
.text._TcpSocketBind    0x9d0c9b50           0x44          68   
.text.TCPIP_TCP_IsConne 0x9d0c9b94           0x44          68   
.text._UDPv6FreePacket  0x9d0c9bd8           0x44          68   
.rodata                 0x9d0c9c1c           0x44          68  Read-only const 
.text.TCPIP_UDP_TxPoint 0x9d0c9c60           0x44          68   
.text._SwapARPPacket    0x9d0c9ca4           0x44          68   
.text.TCPIP_DHCP_Handle 0x9d0c9ce8           0x44          68   
.text.TCPIP_Helper_Doub 0x9d0c9d2c           0x44          68   
.text._TCPIPSignalEntry 0x9d0c9d70           0x44          68   
.text.TCPIP_STACK_NetMa 0x9d0c9db4           0x44          68   
.text.TCPIP_STACK_NetIs 0x9d0c9df8           0x44          68   
.text.TCPIP_STACK_NetIs 0x9d0c9e3c           0x44          68   
.text.TCPIP_STACK_NetAd 0x9d0c9e80           0x44          68   
.text.uxListRemove      0x9d0c9ec4           0x44          68   
.text                   0x9d0c9f08           0x44          68  App's exec code 
.text.strcat            0x9d0c9f4c           0x44          68   
.text.TCPIP_HTTP_Print_ 0x9d0c9f90           0x40          64   
.text.CRYPT_MD5_DataAdd 0x9d0c9fd0           0x40          64   
.text.CRYPT_MD5_Finaliz 0x9d0ca010           0x40          64   
.text._DRV_ETHPHY_NegCo 0x9d0ca050           0x40          64   
.text.DRV_NVM_EventHand 0x9d0ca090           0x40          64   
.text.OSAL_SEM_Pend     0x9d0ca0d0           0x40          64   
.text.OSAL_MUTEX_Lock   0x9d0ca110           0x40          64   
.text.MPFS_GetSize      0x9d0ca150           0x40          64   
.text.SYS_FS_FileOpen_W 0x9d0ca190           0x40          64   
.text.TCPIP_IPV6_Double 0x9d0ca1d0           0x40          64   
.text.TCPIP_IPV6_Single 0x9d0ca210           0x40          64   
.text.TCPIP_TCP_PutIsRe 0x9d0ca250           0x40          64   
.text._UDPFreeRxQueue   0x9d0ca290           0x40          64   
.text._ZCLLCleanup      0x9d0ca2d0           0x40          64   
.text.TCPIP_Helper_Doub 0x9d0ca310           0x40          64   
.text.TCPIP_Helper_Doub 0x9d0ca350           0x40          64   
.text.TCPIP_Helper_Doub 0x9d0ca390           0x40          64   
.text.TCPIP_ICMP_Cleanu 0x9d0ca3d0           0x40          64   
.text.TCPIP_ICMP_Deinit 0x9d0ca410           0x40          64   
.text                   0x9d0ca450           0x40          64  App's exec code 
.text._DRV_ETHMAC_LinkS 0x9d0ca490           0x3c          60   
.text.DRV_ETHMAC_Single 0x9d0ca4cc           0x3c          60   
.text.DRV_MIIM_Status   0x9d0ca508           0x3c          60   
.text.Helper_SingleList 0x9d0ca544           0x3c          60   
.text.DRV_MIIM_Close    0x9d0ca580           0x3c          60   
.text.DRV_USART_ClientS 0x9d0ca5bc           0x3c          60   
.text.OSAL_MUTEX_Create 0x9d0ca5f8           0x3c          60   
.text.Console_UART_Read 0x9d0ca634           0x3c          60   
.text.SYS_DEBUG_Message 0x9d0ca670           0x3c          60   
.text.MPFS_DirClose     0x9d0ca6ac           0x3c          60   
.text.SYS_TMR_ObjectDel 0x9d0ca6e8           0x3c          60   
.text.TCPIP_IPV6_Packet 0x9d0ca724           0x3c          60   
.text._TCPIsGetReady    0x9d0ca760           0x3c          60   
.text.TCPIP_TCP_Disconn 0x9d0ca79c           0x3c          60   
.text._ARPTxAckFnc      0x9d0ca7d8           0x3c          60   
.text.TCPIP_ARP_HashKey 0x9d0ca814           0x3c          60   
.text.TCPIP_DNS_IsResol 0x9d0ca850           0x3c          60   
.text.TCPIP_OAHASH_Init 0x9d0ca88c           0x3c          60   
.text.TCPIP_Helper_Sing 0x9d0ca8c8           0x3c          60   
.text.TCPIP_STACK_Index 0x9d0ca904           0x3c          60   
.text.TCPIP_STACK_Deini 0x9d0ca940           0x3c          60   
.text._TCPIPStackPacket 0x9d0ca97c           0x3c          60   
.text.uxPortSetInterrup 0x9d0ca9b8           0x3c          60   
.text._ICMPAllocateTxPa 0x9d0ca9f4           0x3c          60   
.text.DRV_ETHMAC_LibDes 0x9d0caa30           0x38          56   
.text.DRV_ETHMAC_LibRxP 0x9d0caa68           0x38          56   
.text.DRV_ETHMAC_LibRxS 0x9d0caaa0           0x38          56   
.text.DRV_ETHMAC_LibTxP 0x9d0caad8           0x38          56   
.text._DRV_PHY_SMIReadS 0x9d0cab10           0x38          56   
.text._DRV_PHY_SMIWrite 0x9d0cab48           0x38          56   
.text._DRV_ETHPHY_Reset 0x9d0cab80           0x38          56   
.text.DRV_NVM_AddressGe 0x9d0cabb8           0x38          56   
.text._DRV_NVM_EraseBuf 0x9d0cabf0           0x38          56   
.text.CommandReset      0x9d0cac28           0x38          56   
.text.SYS_FS_MEDIA_MANA 0x9d0cac60           0x38          56   
.text.MPFSIsHandleValid 0x9d0cac98           0x38          56   
.text._TCP_TxPktValid   0x9d0cacd0           0x38          56   
.text.TCPIP_TCP_ClientO 0x9d0cad08           0x38          56   
.text.TCPIP_TCP_Find    0x9d0cad40           0x38          56   
.text._ARPAllocateTxPac 0x9d0cad78           0x38          56   
.text.TCPIP_ARP_Callbac 0x9d0cadb0           0x38          56   
.text.TCPIP_DHCP_Enable 0x9d0cade8           0x38          56   
.text.TCPIP_DHCP_Renew  0x9d0cae20           0x38          56   
.text.TCPIP_DHCP_Reques 0x9d0cae58           0x38          56   
.text._FieldSetIpv4Addr 0x9d0cae90           0x38          56   
.text.TCPIP_PKT_Payload 0x9d0caec8           0x38          56   
.text.prvResetNextTaskU 0x9d0caf00           0x38          56   
.text.vTaskPlaceOnEvent 0x9d0caf38           0x38          56   
.rodata                 0x9d0caf70           0x34          52  Read-only const 
.text.CRYPT_MD5_Initial 0x9d0cafa4           0x34          52   
.text.DRV_ETHPHY_PhyAdd 0x9d0cafd8           0x34          52   
.text.DRV_ETHPHY_Client 0x9d0cb00c           0x34          52   
.text._DRV_ETHPHY_NegRe 0x9d0cb040           0x34          52   
.text._DRV_ETHPHY_NegRe 0x9d0cb074           0x34          52   
.text._DRV_ETHPHY_NegCo 0x9d0cb0a8           0x34          52   
.text._DRV_ETHPHY_LinkS 0x9d0cb0dc           0x34          52   
.text.TCPIP_IPV6_Interf 0x9d0cb110           0x34          52   
.text.TCPIP_IPV6_Interf 0x9d0cb144           0x34          52   
.text._TcpSocketChk     0x9d0cb178           0x34          52   
.text.TCPIP_TCP_GetIsRe 0x9d0cb1ac           0x34          52   
.text._UDPSocketDcpt    0x9d0cb1e0           0x34          52   
.text.TCPIP_SNTP_Connec 0x9d0cb214           0x34          52   
.text.TCPIP_Helper_Prot 0x9d0cb248           0x34          52   
.text.TCPIP_Helper_Prot 0x9d0cb27c           0x34          52   
.text.TCPIP_STACK_NetAd 0x9d0cb2b0           0x34          52   
.text.TCPIP_STACK_DNSSe 0x9d0cb2e4           0x34          52   
.text.TCPIP_STACK_NetAd 0x9d0cb318           0x34          52   
.text.TCPIP_STACK_NetSt 0x9d0cb34c           0x34          52   
.text._TCPIPStackHandle 0x9d0cb380           0x34          52   
.text.TCPIP_STACK_NetIs 0x9d0cb3b4           0x34          52   
.text.xQueueCreateCount 0x9d0cb3e8           0x34          52   
.text.exit              0x9d0cb41c           0x34          52   
.text.wc_InitMd5        0x9d0cb450           0x30          48   
.text._MacCallocCallbac 0x9d0cb480           0x30          48   
.text.DRV_ETHMAC_PIC32M 0x9d0cb4b0           0x30          48   
.text.DRV_ETHMAC_Single 0x9d0cb4e0           0x30          48   
.text.DRV_ETHPHY_Vendor 0x9d0cb510           0x30          48   
.text.Helper_SingleList 0x9d0cb540           0x30          48   
.text.DRV_MIIM_Read     0x9d0cb570           0x30          48   
.text.DRV_MIIM_Write    0x9d0cb5a0           0x30          48   
.text.DRV_MIIM_Scan     0x9d0cb5d0           0x30          48   
.rodata                 0x9d0cb600           0x30          48  Read-only const 
.text.OSAL_SEM_Delete   0x9d0cb630           0x30          48   
.text.OSAL_SEM_Post     0x9d0cb660           0x30          48   
.text.OSAL_MUTEX_Unlock 0x9d0cb690           0x30          48   
.text.SYS_CMDIO_GET_HAN 0x9d0cb6c0           0x30          48   
.text.popQueue          0x9d0cb6f0           0x30          48   
.text.SYS_DEBUG_Initial 0x9d0cb720           0x30          48   
.rodata                 0x9d0cb750           0x30          48  Read-only const 
.text._ICMPV6_AckPacket 0x9d0cb780           0x30          48   
.text._TCPIP_HEAP_FreeS 0x9d0cb7b0           0x30          48   
.text._DHCPSocketRxSign 0x9d0cb7e0           0x30          48   
.text.TCPIP_DHCP_IsActi 0x9d0cb810           0x30          48   
.text._DNSSocketRxSigna 0x9d0cb840           0x30          48   
.text._HTTPSocketRxSign 0x9d0cb870           0x30          48   
.text.NBNSSocketRxSigna 0x9d0cb8a0           0x30          48   
.text._SMTPSocketRxSign 0x9d0cb8d0           0x30          48   
.text.TCPIP_SMTP_String 0x9d0cb900           0x30          48   
.text.TCPIP_SNTP_Socket 0x9d0cb930           0x30          48   
.text._TCPIP_AnnounceSo 0x9d0cb960           0x30          48   
.text.TCPIP_OAHASH_Entr 0x9d0cb990           0x30          48   
.text.TCPIP_Helper_Sing 0x9d0cb9c0           0x30          48   
.text.TCPIP_STACK_NetAd 0x9d0cb9f0           0x30          48   
.text.TCPIP_STACK_NetAd 0x9d0cba20           0x30          48   
.text.TCPIP_STACK_NetMa 0x9d0cba50           0x30          48   
.text.TCPIP_STACK_Netwo 0x9d0cba80           0x30          48   
.text.vListInsertEnd    0x9d0cbab0           0x30          48   
.text.TCPIP_ICMP_EchoRe 0x9d0cbae0           0x30          48   
.text.free              0x9d0cbb10           0x30          48   
.text.SYS_INT_SourceRes 0x9d0cbb40           0x2c          44   
.text._NET_PRES_Tasks   0x9d0cbb6c           0x2c          44   
.text.TCPIP_HTTP_Print_ 0x9d0cbb98           0x2c          44   
.text.TCPIP_HTTP_Print_ 0x9d0cbbc4           0x2c          44   
.text.TCPIP_HTTP_Print_ 0x9d0cbbf0           0x2c          44   
.text.TCPIP_HTTP_Print_ 0x9d0cbc1c           0x2c          44   
.text.TCPIP_HTTP_Print_ 0x9d0cbc48           0x2c          44   
.text.TCPIP_HTTP_Print_ 0x9d0cbc74           0x2c          44   
.text.DRV_USART_BufferE 0x9d0cbca0           0x2c          44   
.text.TCPIP_IPV4_MaxDat 0x9d0cbccc           0x2c          44   
.text._TCPIP_NDP_Cleanu 0x9d0cbcf8           0x2c          44   
.text.TCPIP_IPV6_HopLim 0x9d0cbd24           0x2c          44   
.rodata                 0x9d0cbd50           0x2c          44  Read-only const 
.text.TCPIP_OAHASH_Entr 0x9d0cbd7c           0x2c          44   
.text.TCPIP_Helper_TCPS 0x9d0cbda8           0x2c          44   
.text.TCPIP_Helper_UDPS 0x9d0cbdd4           0x2c          44   
.text.TCPIP_STACK_NetDe 0x9d0cbe00           0x2c          44   
.text.TCPIP_STACK_NetNa 0x9d0cbe2c           0x2c          44   
.text.TCPIP_STACK_NetAd 0x9d0cbe58           0x2c          44   
.text.TCPIP_Notificatio 0x9d0cbe84           0x2c          44   
.text.strchr            0x9d0cbeb0           0x2c          44   
.text._fprintf_cdnopsux 0x9d0cbedc           0x2c          44   
.text._stub_sbd_memlayo 0x9d0cbf08           0x2c          44   
.text.TCPIP_HTTP_Print_ 0x9d0cbf34           0x28          40   
.text.DRV_MIIM_ClientSt 0x9d0cbf5c           0x28          40   
.text.DRV_NVM_GeometryG 0x9d0cbf84           0x28          40   
.text._DRV_USART_Driver 0x9d0cbfac           0x28          40   
.text.Console_UART_Regi 0x9d0cbfd4           0x28          40   
.text._SYS_FS_MEDIA_MAN 0x9d0cbffc           0x28          40   
.text.SYS_TMR_TickCount 0x9d0cc024           0x28          40   
.text.TCPIP_IPV6_DataSe 0x9d0cc04c           0x28          40   
.text.TCPIP_IPV6_SetRem 0x9d0cc074           0x28          40   
.text.TCPIP_TCP_SocketN 0x9d0cc09c           0x28          40   
.text._TCPIP_HEAP_Size  0x9d0cc0c4           0x28          40   
.text._TCPIP_HEAP_LastE 0x9d0cc0ec           0x28          40   
.text.TCPIP_SNTP_Event  0x9d0cc114           0x28          40   
.text._FieldSetTruncate 0x9d0cc13c           0x28          40   
.text.TCPIP_Helper_Powe 0x9d0cc164           0x28          40   
.text.TCPIP_Helper_Sing 0x9d0cc18c           0x28          40   
.text.TCPIP_Helper_Doub 0x9d0cc1b4           0x28          40   
.text.TCPIP_Helper_Doub 0x9d0cc1dc           0x28          40   
.text.TCPIP_STACK_NetAd 0x9d0cc204           0x28          40   
.text.TCPIP_STACK_NetAd 0x9d0cc22c           0x28          40   
.text.TCPIP_STACK_NetAd 0x9d0cc254           0x28          40   
.text.TCPIP_STACK_NetMA 0x9d0cc27c           0x28          40   
.text._TCPIPStackSignal 0x9d0cc2a4           0x28          40   
.text.pvTaskIncrementMu 0x9d0cc2cc           0x28          40   
.text._snprintf_cdnopsu 0x9d0cc2f4           0x28          40   
.text.vApplicationStack 0x9d0cc31c           0x24          36   
.text.vApplicationMallo 0x9d0cc340           0x24          36   
.text.DRV_ETHMAC_PIC32M 0x9d0cc364           0x24          36   
.text.SYS_TMR_TickCount 0x9d0cc388           0x24          36   
.text.SYS_TMR_SystemCou 0x9d0cc3ac           0x24          36   
.text.TCPIP_TCP_Put     0x9d0cc3d0           0x24          36   
.text._DHCPOptionWriteE 0x9d0cc3f4           0x24          36   
.text.TCPIP_ZCLL_IsEnab 0x9d0cc418           0x24          36   
.text.TCPIP_STACK_HeapH 0x9d0cc43c           0x24          36   
.text.prvTaskExitError  0x9d0cc460           0x24          36   
.text.tolower           0x9d0cc484           0x24          36   
.text.toupper           0x9d0cc4a8           0x24          36   
.text.IntHandlerDrvUsar 0x9d0cc4cc           0x20          32   
.text.IntHandlerDrvUsar 0x9d0cc4ec           0x20          32   
.text.IntHandlerDrvUsar 0x9d0cc50c           0x20          32   
.text.IntHandlerDrvTmrI 0x9d0cc52c           0x20          32   
.text.IntHandlerDrvNvm  0x9d0cc54c           0x20          32   
.text._WS_SERVER_Tasks  0x9d0cc56c           0x20          32   
.text._APP_Tasks        0x9d0cc58c           0x20          32   
.text.main              0x9d0cc5ac           0x20          32   
.text.WS_SERVER_Initial 0x9d0cc5cc           0x20          32   
.rodata                 0x9d0cc5ec           0x20          32  Read-only const 
.text.DRV_ETHMAC_PIC32M 0x9d0cc60c           0x20          32   
.text.DRV_NVM_IsAttache 0x9d0cc62c           0x20          32   
.text.SYS_CMD_MESSAGE   0x9d0cc64c           0x20          32   
.text.SYS_INT_Disable   0x9d0cc66c           0x20          32   
.text.TCPIP_IPV6_MacPac 0x9d0cc68c           0x20          32   
.text.TCPIP_IPV6_ArrayG 0x9d0cc6ac           0x20          32   
.text.TCPIP_IPV6_Get    0x9d0cc6cc           0x20          32   
.text.TCPIP_ICMPV6_Flus 0x9d0cc6ec           0x20          32   
.text.TCPIP_HEAP_Malloc 0x9d0cc70c           0x20          32   
.text.TCPIP_HEAP_Calloc 0x9d0cc72c           0x20          32   
.text.TCPIP_HEAP_FreeOu 0x9d0cc74c           0x20          32   
.rodata                 0x9d0cc76c           0x20          32  Read-only const 
.text.TCPIP_DNS_OAHASH_ 0x9d0cc78c           0x20          32   
.text.TCPIP_DNS_GetIPv4 0x9d0cc7ac           0x20          32   
.text.TCPIP_DNS_GetIPv6 0x9d0cc7cc           0x20          32   
.text.TCPIP_DNS_Enable  0x9d0cc7ec           0x20          32   
.text.TCPIP_STACK_Statu 0x9d0cc80c           0x20          32   
.text.TCPIP_STACK_NetIs 0x9d0cc82c           0x20          32   
.text.TCPIP_STACK_Addre 0x9d0cc84c           0x20          32   
.rodata                 0x9d0cc86c           0x20          32  Read-only const 
.text.vListInitialise   0x9d0cc88c           0x20          32   
.text._ICMPTxPktAcknowl 0x9d0cc8ac           0x20          32   
.text.IntHandler_ETHMAC 0x9d0cc8cc           0x1c          28   
.text.DRV_ETHPHY_Deinit 0x9d0cc8e8           0x1c          28   
.text.DRV_ETHPHY_Vendor 0x9d0cc904           0x1c          28   
.text._DRV_ETHPHY_Clien 0x9d0cc920           0x1c          28   
.rodata                 0x9d0cc93c           0x1c          28  Read-only const 
.text.SYS_FS_Tasks      0x9d0cc958           0x1c          28   
.text.SYS_RANDOM_Pseudo 0x9d0cc974           0x1c          28   
.text.SYS_TMR_CallbackS 0x9d0cc990           0x1c          28   
.text.SYS_TMR_CallbackP 0x9d0cc9ac           0x1c          28   
.text.btohexa_high      0x9d0cc9c8           0x1c          28   
.text.btohexa_low       0x9d0cc9e4           0x1c          28   
.text.TCPIP_IPV6_Packet 0x9d0cca00           0x1c          28   
.text.TCPIP_IPV6_RxBuff 0x9d0cca1c           0x1c          28   
.text.TCPIP_IPV6_UpperL 0x9d0cca38           0x1c          28   
.text.TCPIP_TCP_Get     0x9d0cca54           0x1c          28   
.text.TCPIP_UDP_ServerO 0x9d0cca70           0x1c          28   
.text.TCPIP_UDP_ClientO 0x9d0cca8c           0x1c          28   
.text.TCPIP_UDP_TxPutIs 0x9d0ccaa8           0x1c          28   
.text.TCPIP_UDP_Get     0x9d0ccac4           0x1c          28   
.text.TCPIP_DNS_Resolve 0x9d0ccae0           0x1c          28   
.text.TCPIP_DNS_IsNameR 0x9d0ccafc           0x1c          28   
.text.TCPIP_SMTP_Flush  0x9d0ccb18           0x1c          28   
.text._Command_ZcllOnOf 0x9d0ccb34           0x1c          28   
.text._Command_DHCPSOnO 0x9d0ccb50           0x1c          28   
.text.TCPIP_Helper_Chec 0x9d0ccb6c           0x1c          28   
.text.TCPIP_STACK_NetDe 0x9d0ccb88           0x1c          28   
.text.TCPIP_Notificatio 0x9d0ccba4           0x1c          28   
.text.vPortClearInterru 0x9d0ccbc0           0x1c          28   
.text.vQueueDelete      0x9d0ccbdc           0x1c          28   
.text.nullHandshake     0x9d0ccbf8           0x1c          28   
.text.srand             0x9d0ccc14           0x1c          28   
.text.SYS_DEVCON_JTAGEn 0x9d0ccc30           0x18          24   
.text._STREAMER_Tasks   0x9d0ccc48           0x18          24   
.text.DRV_ETHPHY_Status 0x9d0ccc60           0x18          24   
.text.DRV_ETHPHY_Client 0x9d0ccc78           0x18          24   
.text.DRV_ETHPHY_Client 0x9d0ccc90           0x18          24   
.text.SYS_TMR_ModuleSta 0x9d0ccca8           0x18          24   
.text.TCPIP_ARP_HashKey 0x9d0cccc0           0x18          24   
.text.TCPIP_STACK_NetIn 0x9d0cccd8           0x18          24   
.text.TCPIP_STACK_MACOb 0x9d0cccf0           0x18          24   
.text.TCPIP_STACK_NetIx 0x9d0ccd08           0x18          24   
.text.TCPIP_STACK_Gatew 0x9d0ccd20           0x18          24   
.text.TCPIP_STACK_Prima 0x9d0ccd38           0x18          24   
.text.TCPIP_STACK_Secon 0x9d0ccd50           0x18          24   
.text                   0x9d0ccd68           0x18          24  App's exec code 
.text.abort             0x9d0ccd80           0x18          24   
.text.SYS_DEVCON_Initia 0x9d0ccd98           0x14          20   
.text.SYS_INT_Initializ 0x9d0ccdac           0x14          20   
.text.TCPIP_SMTP_PutIsD 0x9d0ccdc0           0x14          20   
.text.vTaskSuspendAll   0x9d0ccdd4           0x14          20   
.text.vTaskSetTimeOutSt 0x9d0ccde8           0x14          20   
.rodata                 0x9d0ccdfc           0x20          32  Read-only const 
.text.TCPIP_ARP_HashKey 0x9d0cce1c           0x10          16   
.text.TCPIP_HTTP_Curren 0x9d0cce2c           0x10          16   
.text.TCPIP_HTTP_Curren 0x9d0cce3c           0x10          16   
.text._FieldSetUserStar 0x9d0cce4c           0x10          16   
.text.TCPIP_Helper_Sing 0x9d0cce5c           0x10          16   
.text.TCPIP_Helper_Doub 0x9d0cce6c           0x10          16   
.text.vTaskMissedYield  0x9d0cce7c           0x10          16   
.text.DRV_ETHMAC_PIC32M 0x9d0cce8c            0xc          12   
.text._DRV_ETHMAC_GetFr 0x9d0cce98            0xc          12   
.text._DRV_ETHMAC_GetFr 0x9d0ccea4            0xc          12   
.text._DRV_ETHMAC_GetFr 0x9d0cceb0            0xc          12   
.text._DRV_ETHMAC_GetFr 0x9d0ccebc            0xc          12   
.text._DRV_ETHMAC_GetFr 0x9d0ccec8            0xc          12   
.text._DRV_ETHMAC_GetAl 0x9d0cced4            0xc          12   
.text._DRV_ETHMAC_GetSC 0x9d0ccee0            0xc          12   
.text._DRV_ETHMAC_GetMC 0x9d0cceec            0xc          12   
.text.DRV_EXTPHY_SMIClo 0x9d0ccef8            0xc          12   
.text.TCPIP_IPV6_SetRea 0x9d0ccf04            0xc          12   
.text.TCPIP_SMTP_IsBusy 0x9d0ccf10            0xc          12   
.text.TCPIP_STACK_Numbe 0x9d0ccf1c            0xc          12   
.text.TCPIP_STACK_NetBI 0x9d0ccf28            0xc          12   
.text._TCPIPStackAddres 0x9d0ccf34            0xc          12   
.text.APP_Initialize    0x9d0ccf40            0x8           8   
.text.STREAMER_Initiali 0x9d0ccf48            0x8           8   
.text.TCPIP_HTTP_Print_ 0x9d0ccf50            0x8           8   
.text.TCPIP_HTTP_Print_ 0x9d0ccf58            0x8           8   
.text.TCPIP_HTTP_Print_ 0x9d0ccf60            0x8           8   
.text.TCPIP_HTTP_Print_ 0x9d0ccf68            0x8           8   
.text.TCPIP_HTTP_Print_ 0x9d0ccf70            0x8           8   
.text.TCPIP_HTTP_Print_ 0x9d0ccf78            0x8           8   
.text.DRV_ETHMAC_PIC32M 0x9d0ccf80            0x8           8   
.text.DRV_ETHMAC_PIC32M 0x9d0ccf88            0x8           8   
.text._DRV_ETHPHY_Clien 0x9d0ccf90            0x8           8   
.text.DRV_ETHPHY_SMIRea 0x9d0ccf98            0x8           8   
.text.DRV_ETHPHY_SMIWri 0x9d0ccfa0            0x8           8   
.text.DRV_ETHPHY_SMISca 0x9d0ccfa8            0x8           8   
.text.DRV_ETHPHY_SMISca 0x9d0ccfb0            0x8           8   
.text.DRV_ETHPHY_SMISca 0x9d0ccfb8            0x8           8   
.text.DRV_ETHPHY_SMISca 0x9d0ccfc0            0x8           8   
.text.DRV_ETHPHY_SMISta 0x9d0ccfc8            0x8           8   
.text.DRV_ETHPHY_SMIClo 0x9d0ccfd0            0x8           8   
.text.DRV_MIIM_Reinitia 0x9d0ccfd8            0x8           8   
.text.GetCommandCharact 0x9d0ccfe0            0x8           8   
.text.SYS_DEBUG_ErrorLe 0x9d0ccfe8            0x8           8   
.rodata                 0x9d0ccff0            0x8           8  Read-only const 
.text.TCPIP_IPV4_IsFrag 0x9d0ccff8            0x8           8   
.text.TCPIP_IPV6_DestAd 0x9d0cd000            0x8           8   
.text.TCPIP_IPV6_Source 0x9d0cd008            0x8           8   
.text.TCPIP_IPV6_GetRea 0x9d0cd010            0x8           8   
.text.TCPIP_IPV6_SetPac 0x9d0cd018            0x8           8   
.text._DHCPOptionProces 0x9d0cd020            0x8           8   
.text.TCPIP_HTTP_Curren 0x9d0cd028            0x8           8   
.text.TCPIP_HTTP_Curren 0x9d0cd030            0x8           8   
.text.TCPIP_HTTP_Curren 0x9d0cd038            0x8           8   
.text.TCPIP_HTTP_Curren 0x9d0cd040            0x8           8   
.text.TCPIP_HTTP_Curren 0x9d0cd048            0x8           8   
.text.TCPIP_HTTP_Curren 0x9d0cd050            0x8           8   
.text.TCPIP_HTTP_Curren 0x9d0cd058            0x8           8   
.text.TCPIP_HTTP_Curren 0x9d0cd060            0x8           8   
.text.TCPIP_HTTP_Curren 0x9d0cd068            0x8           8   
.text._FieldSetNone     0x9d0cd070            0x8           8   
.text.TCPIP_STACK_NetDe 0x9d0cd078            0x8           8   
.text.TCPIP_STACK_NetGe 0x9d0cd080            0x8           8   
.text.TCPIP_PKT_Deiniti 0x9d0cd088            0x8           8   
.text.vPortFree         0x9d0cd090            0x8           8   
.text.vListInitialiseIt 0x9d0cd098            0x8           8   
.rodata                 0x9d0cd0a0            0x8           8  Read-only const 
.text._on_reset         0x9d0cd0a8            0x8           8   
.text._on_bootstrap     0x9d0cd0b0            0x8           8   
.text._cleanup          0x9d0cd0b8            0x8           8   
.rodata                 0x9d0cd0c0            0x8           8  Read-only const 
      Total kseg0_program_mem used  :     0xcd0c4      839876  40.0% of 0x200000

kseg0 Boot-Memory Usage
section                    address  length [bytes]      (dec)  Description
-------                 ----------  -------------------------  -----------
         Total kseg0_boot_mem used  :           0           0  

kseg1 Boot-Memory Usage
section                    address  length [bytes]      (dec)  Description
-------                 ----------  -------------------------  -----------
.reset                  0xbfc00000          0x220         544  Reset handler 
.bev_excpt              0xbfc00380           0x10          16  BEV-Exception 
         Total kseg1_boot_mem used  :       0x230         560  48.6% of 0x480
        --------------------------------------------------------------------------
         Total Program Memory used  :     0xcd2f4      840436  40.1% of 0x200480
        --------------------------------------------------------------------------


kseg0 Data-Memory Usage
section                    address  length [bytes]      (dec)  Description
-------                 ----------  -------------------------  -----------
.sdata                  0x80000000           0x68         104  Small init data 
.sbss                   0x80000068          0x350         848  Small uninit data 
.bss                    0x800003b8        0x1259c       75164  Uninitialized data 
.bss                    0x80012954            0xc          12  Uninitialized data 
.bss                    0x80016de0        0x1a000      106496  Uninitialized data 
.bss                    0x80030de0          0xe78        3704  Uninitialized data 
.bss                    0x80031c58          0x720        1824  Uninitialized data 
.bss                    0x80032378          0x4b4        1204  Uninitialized data 
.bss                    0x8003282c          0x1a8         424  Uninitialized data 
.data                   0x800329e0          0x140         320  Initialized data 
.bss                    0x80032b20          0x1f0         496  Uninitialized data 
.data                   0x80032d10          0x158         344  Initialized data 
.bss                    0x80032e68          0x12c         300  Uninitialized data 
.bss                    0x80032f94           0xc8         200  Uninitialized data 
.bss                    0x8003305c           0x50          80  Uninitialized data 
.bss.errno              0x800330ac            0x4           4   
.bss                    0x800330b0           0x94         148  Uninitialized data 
.bss                    0x80033144           0x7c         124  Uninitialized data 
.data                   0x800331c0           0x60          96  Initialized data 
.bss                    0x80033220           0x58          88  Uninitialized data 
.bss                    0x80033278           0x50          80  Uninitialized data 
.data                   0x800332c8           0x28          40  Initialized data 
.bss                    0x800332f0           0x48          72  Uninitialized data 
.bss                    0x80033338           0x38          56  Uninitialized data 
.bss                    0x80033370           0x30          48  Uninitialized data 
.data                   0x800333a0           0x14          20  Initialized data 
.bss                    0x800333b4           0x28          40  Uninitialized data 
.bss                    0x800333dc            0x4           4  Uninitialized data 
.bss                    0x800333e0           0x10          16  Uninitialized data 
.COHERENTBSS$           0x80012960         0x4480       17536   
         Total kseg0_data_mem used  :     0x333e4      209892  40.0% of 0x80000
        --------------------------------------------------------------------------
            Total Data Memory used  :     0x333e4      209892  40.0% of 0x80000
        --------------------------------------------------------------------------


Dynamic Data-Memory Reservation
section                    address  length [bytes]      (dec)  Description
-------                 ----------  -------------------------  -----------
heap                    0x800333f8        0x1f400      128000  Reserved for heap 
stack                   0x80052810        0x2d7e8      186344  Reserved for stack 

        --------------------------------------------------------------------------

Discarded input sections

 .text          0x00000000        0x0 c:/program files (x86)/microchip/xc32/v1.44/bin/bin/../../lib/gcc/pic32mx/4.8.3/../../../../pic32mx/lib/./proc/32MZ2048EFH144/crt0_mips32r2.o
 .data          0x00000000        0x0 c:/program files (x86)/microchip/xc32/v1.44/bin/bin/../../lib/gcc/pic32mx/4.8.3/../../../../pic32mx/lib/./proc/32MZ2048EFH144/crt0_mips32r2.o
 .bss           0x00000000        0x0 c:/program files (x86)/microchip/xc32/v1.44/bin/bin/../../lib/gcc/pic32mx/4.8.3/../../../../pic32mx/lib/./proc/32MZ2048EFH144/crt0_mips32r2.o
 .text          0x00000000        0x0 c:/program files (x86)/microchip/xc32/v1.44/bin/bin/../../lib/gcc/pic32mx/4.8.3/../../../../pic32mx/lib/fpu64\debug-exception-return.o
 .data          0x00000000        0x0 c:/program files (x86)/microchip/xc32/v1.44/bin/bin/../../lib/gcc/pic32mx/4.8.3/../../../../pic32mx/lib/fpu64\debug-exception-return.o
 .bss           0x00000000        0x0 c:/program files (x86)/microchip/xc32/v1.44/bin/bin/../../lib/gcc/pic32mx/4.8.3/../../../../pic32mx/lib/fpu64\debug-exception-return.o
 .reginfo       0x00000000       0x18 c:/program files (x86)/microchip/xc32/v1.44/bin/bin/../../lib/gcc/pic32mx/4.8.3/../../../../pic32mx/lib/fpu64\debug-exception-return.o
 .text          0x00000000        0x0 build/pic32mz_ef_sk/production/_ext/29024758/misc.o
 .data          0x00000000        0x0 build/pic32mz_ef_sk/production/_ext/29024758/misc.o
 .bss           0x00000000        0x0 build/pic32mz_ef_sk/production/_ext/29024758/misc.o
 .reginfo       0x00000000       0x18 build/pic32mz_ef_sk/production/_ext/29024758/misc.o
 .text          0x00000000        0x0 build/pic32mz_ef_sk/production/_ext/354129722/bsp.o
 .data          0x00000000        0x0 build/pic32mz_ef_sk/production/_ext/354129722/bsp.o
 .bss           0x00000000        0x0 build/pic32mz_ef_sk/production/_ext/354129722/bsp.o
 .reginfo       0x00000000       0x18 build/pic32mz_ef_sk/production/_ext/354129722/bsp.o
 .text.BSP_LEDOn
                0x00000000       0xac build/pic32mz_ef_sk/production/_ext/354129722/bsp.o
 .text.BSP_USBVBUSSwitchStateSet
                0x00000000       0x28 build/pic32mz_ef_sk/production/_ext/354129722/bsp.o
 .text.BSP_USBVBUSSwitchOverCurrentDetect
                0x00000000        0x8 build/pic32mz_ef_sk/production/_ext/354129722/bsp.o
 .text.BSP_USBVBUSPowerEnable
                0x00000000       0x28 build/pic32mz_ef_sk/production/_ext/354129722/bsp.o
 .text          0x00000000        0x0 build/pic32mz_ef_sk/production/_ext/854288108/net_pres_enc_glue.o
 .data          0x00000000        0x0 build/pic32mz_ef_sk/production/_ext/854288108/net_pres_enc_glue.o
 .bss           0x00000000        0x0 build/pic32mz_ef_sk/production/_ext/854288108/net_pres_enc_glue.o
 .reginfo       0x00000000       0x18 build/pic32mz_ef_sk/production/_ext/854288108/net_pres_enc_glue.o
 .text          0x00000000        0x0 build/pic32mz_ef_sk/production/_ext/571564127/sys_clk_pic32mz.o
 .data          0x00000000        0x0 build/pic32mz_ef_sk/production/_ext/571564127/sys_clk_pic32mz.o
 .bss           0x00000000        0x0 build/pic32mz_ef_sk/production/_ext/571564127/sys_clk_pic32mz.o
 .reginfo       0x00000000       0x18 build/pic32mz_ef_sk/production/_ext/571564127/sys_clk_pic32mz.o
 .text.SYS_CLK_ReferenceFrequencyGet
                0x00000000        0x8 build/pic32mz_ef_sk/production/_ext/571564127/sys_clk_pic32mz.o
 .text.SYS_CLK_SecondaryOscillatorDisable
                0x00000000       0x48 build/pic32mz_ef_sk/production/_ext/571564127/sys_clk_pic32mz.o
 .text.SYS_CLK_SecondaryOscillatorIsEnabled
                0x00000000       0x10 build/pic32mz_ef_sk/production/_ext/571564127/sys_clk_pic32mz.o
 .text          0x00000000        0x0 build/pic32mz_ef_sk/production/_ext/1868830280/sys_devcon.o
 .data          0x00000000        0x0 build/pic32mz_ef_sk/production/_ext/1868830280/sys_devcon.o
 .bss           0x00000000        0x0 build/pic32mz_ef_sk/production/_ext/1868830280/sys_devcon.o
 .reginfo       0x00000000       0x18 build/pic32mz_ef_sk/production/_ext/1868830280/sys_devcon.o
 .text.SYS_DEVCON_Reinitialize
                0x00000000       0x10 build/pic32mz_ef_sk/production/_ext/1868830280/sys_devcon.o
 .text.SYS_DEVCON_Deinitialize
                0x00000000        0x8 build/pic32mz_ef_sk/production/_ext/1868830280/sys_devcon.o
 .text.SYS_DEVCON_Status
                0x00000000        0x8 build/pic32mz_ef_sk/production/_ext/1868830280/sys_devcon.o
 .text.SYS_DEVCON_Tasks
                0x00000000        0x8 build/pic32mz_ef_sk/production/_ext/1868830280/sys_devcon.o
 .text.SYS_DEVCON_JTAGDisable
                0x00000000       0x18 build/pic32mz_ef_sk/production/_ext/1868830280/sys_devcon.o
 .text.SYS_DEVCON_TraceEnable
                0x00000000       0x1c build/pic32mz_ef_sk/production/_ext/1868830280/sys_devcon.o
 .text.SYS_DEVCON_TraceDisable
                0x00000000       0x18 build/pic32mz_ef_sk/production/_ext/1868830280/sys_devcon.o
 .text.SYS_DEVCON_PowerModeEnter
                0x00000000       0x44 build/pic32mz_ef_sk/production/_ext/1868830280/sys_devcon.o
 .text          0x00000000        0x0 build/pic32mz_ef_sk/production/_ext/1868830280/sys_devcon_pic32mz.o
 .data          0x00000000        0x0 build/pic32mz_ef_sk/production/_ext/1868830280/sys_devcon_pic32mz.o
 .bss           0x00000000        0x0 build/pic32mz_ef_sk/production/_ext/1868830280/sys_devcon_pic32mz.o
 .reginfo       0x00000000       0x18 build/pic32mz_ef_sk/production/_ext/1868830280/sys_devcon_pic32mz.o
 .text.SYS_DEVCON_CacheInit
                0x00000000       0x24 build/pic32mz_ef_sk/production/_ext/1868830280/sys_devcon_pic32mz.o
 .text.SYS_DEVCON_CacheFlush
                0x00000000       0x24 build/pic32mz_ef_sk/production/_ext/1868830280/sys_devcon_pic32mz.o
 .text.SYS_DEVCON_DataCacheFlush
                0x00000000       0x24 build/pic32mz_ef_sk/production/_ext/1868830280/sys_devcon_pic32mz.o
 .text.SYS_DEVCON_InstructionCacheFlush
                0x00000000       0x24 build/pic32mz_ef_sk/production/_ext/1868830280/sys_devcon_pic32mz.o
 .text.SYS_DEVCON_CacheClean
                0x00000000       0x24 build/pic32mz_ef_sk/production/_ext/1868830280/sys_devcon_pic32mz.o
 .text.SYS_DEVCON_DataCacheClean
                0x00000000       0x24 build/pic32mz_ef_sk/production/_ext/1868830280/sys_devcon_pic32mz.o
 .text.SYS_DEVCON_DataCacheInvalidate
                0x00000000       0x24 build/pic32mz_ef_sk/production/_ext/1868830280/sys_devcon_pic32mz.o
 .text.SYS_DEVCON_InstructionCacheInvalidate
                0x00000000       0x24 build/pic32mz_ef_sk/production/_ext/1868830280/sys_devcon_pic32mz.o
 .text.SYS_DEVCON_InstructionCacheLock
                0x00000000       0x24 build/pic32mz_ef_sk/production/_ext/1868830280/sys_devcon_pic32mz.o
 .text.SYS_DEVCON_DataCacheLock
                0x00000000       0x24 build/pic32mz_ef_sk/production/_ext/1868830280/sys_devcon_pic32mz.o
 .text.SYS_DEVCON_CacheSync
                0x00000000       0x24 build/pic32mz_ef_sk/production/_ext/1868830280/sys_devcon_pic32mz.o
 .text.SYS_DEVCON_CacheCoherencySet
                0x00000000       0x28 build/pic32mz_ef_sk/production/_ext/1868830280/sys_devcon_pic32mz.o
 .text.SYS_DEVCON_CacheCoherencyGet
                0x00000000       0x1c build/pic32mz_ef_sk/production/_ext/1868830280/sys_devcon_pic32mz.o
 .text.SYS_DEVCON_DataCacheAssociativityGet
                0x00000000       0x24 build/pic32mz_ef_sk/production/_ext/1868830280/sys_devcon_pic32mz.o
 .text.SYS_DEVCON_InstructionCacheAssociativityGet
                0x00000000       0x24 build/pic32mz_ef_sk/production/_ext/1868830280/sys_devcon_pic32mz.o
 .text.SYS_DEVCON_DataCacheLineSizeGet
                0x00000000       0x24 build/pic32mz_ef_sk/production/_ext/1868830280/sys_devcon_pic32mz.o
 .text.SYS_DEVCON_InstructionCacheLineSizeGet
                0x00000000       0x24 build/pic32mz_ef_sk/production/_ext/1868830280/sys_devcon_pic32mz.o
 .text.SYS_DEVCON_DataCacheLinesPerWayGet
                0x00000000       0x24 build/pic32mz_ef_sk/production/_ext/1868830280/sys_devcon_pic32mz.o
 .text.SYS_DEVCON_InstructionCacheLinesPerWayGet
                0x00000000       0x24 build/pic32mz_ef_sk/production/_ext/1868830280/sys_devcon_pic32mz.o
 .text.SYS_DEVCON_DataCacheSizeGet
                0x00000000       0x24 build/pic32mz_ef_sk/production/_ext/1868830280/sys_devcon_pic32mz.o
 .text.SYS_DEVCON_InstructionCacheSizeGet
                0x00000000       0x24 build/pic32mz_ef_sk/production/_ext/1868830280/sys_devcon_pic32mz.o
 .text          0x00000000      0x6bc build/pic32mz_ef_sk/production/_ext/1868830280/sys_devcon_cache_pic32mz.o
 .data          0x00000000        0x0 build/pic32mz_ef_sk/production/_ext/1868830280/sys_devcon_cache_pic32mz.o
 .bss           0x00000000        0x0 build/pic32mz_ef_sk/production/_ext/1868830280/sys_devcon_cache_pic32mz.o
 .reginfo       0x00000000       0x18 build/pic32mz_ef_sk/production/_ext/1868830280/sys_devcon_cache_pic32mz.o
 .debug_line    0x00000000      0x226 build/pic32mz_ef_sk/production/_ext/1868830280/sys_devcon_cache_pic32mz.o
 .debug_info    0x00000000       0xd7 build/pic32mz_ef_sk/production/_ext/1868830280/sys_devcon_cache_pic32mz.o
 .debug_abbrev  0x00000000       0x14 build/pic32mz_ef_sk/production/_ext/1868830280/sys_devcon_cache_pic32mz.o
 .debug_aranges
                0x00000000       0x20 build/pic32mz_ef_sk/production/_ext/1868830280/sys_devcon_cache_pic32mz.o
 .text          0x00000000        0x0 build/pic32mz_ef_sk/production/_ext/1009894383/sys_ports_static.o
 .data          0x00000000        0x0 build/pic32mz_ef_sk/production/_ext/1009894383/sys_ports_static.o
 .bss           0x00000000        0x0 build/pic32mz_ef_sk/production/_ext/1009894383/sys_ports_static.o
 .reginfo       0x00000000       0x18 build/pic32mz_ef_sk/production/_ext/1009894383/sys_ports_static.o
 .text.SYS_PORTS_Read
                0x00000000       0x24 build/pic32mz_ef_sk/production/_ext/1009894383/sys_ports_static.o
 .text.SYS_PORTS_Write
                0x00000000       0x28 build/pic32mz_ef_sk/production/_ext/1009894383/sys_ports_static.o
 .text.SYS_PORTS_LatchedGet
                0x00000000        0x8 build/pic32mz_ef_sk/production/_ext/1009894383/sys_ports_static.o
 .text.SYS_PORTS_Set
                0x00000000       0x2c build/pic32mz_ef_sk/production/_ext/1009894383/sys_ports_static.o
 .text.SYS_PORTS_Clear
                0x00000000       0x28 build/pic32mz_ef_sk/production/_ext/1009894383/sys_ports_static.o
 .text.SYS_PORTS_DirectionSelect
                0x00000000       0x54 build/pic32mz_ef_sk/production/_ext/1009894383/sys_ports_static.o
 .text.SYS_PORTS_DirectionGet
                0x00000000       0x24 build/pic32mz_ef_sk/production/_ext/1009894383/sys_ports_static.o
 .text.SYS_PORTS_Toggle
                0x00000000       0x28 build/pic32mz_ef_sk/production/_ext/1009894383/sys_ports_static.o
 .text.SYS_PORTS_OpenDrainEnable
                0x00000000       0x28 build/pic32mz_ef_sk/production/_ext/1009894383/sys_ports_static.o
 .text.SYS_PORTS_OpenDrainDisable
                0x00000000       0x28 build/pic32mz_ef_sk/production/_ext/1009894383/sys_ports_static.o
 .text.SYS_PORTS_InterruptStatusGet
                0x00000000        0x8 build/pic32mz_ef_sk/production/_ext/1009894383/sys_ports_static.o
 .text.SYS_PORTS_ChangeNotificationGlobalEnable
                0x00000000        0x8 build/pic32mz_ef_sk/production/_ext/1009894383/sys_ports_static.o
 .text.SYS_PORTS_ChangeNotificationGlobalDisable
                0x00000000        0x8 build/pic32mz_ef_sk/production/_ext/1009894383/sys_ports_static.o
 .text.SYS_PORTS_GlobalChangeNotificationDisable
                0x00000000        0x8 build/pic32mz_ef_sk/production/_ext/1009894383/sys_ports_static.o
 .text.SYS_PORTS_ChangeNotificationEnable
                0x00000000        0x8 build/pic32mz_ef_sk/production/_ext/1009894383/sys_ports_static.o
 .text.SYS_PORTS_ChangeNotificationDisable
                0x00000000        0x8 build/pic32mz_ef_sk/production/_ext/1009894383/sys_ports_static.o
 .text.SYS_PORTS_ChangeNotificationInIdleModeEnable
                0x00000000        0x8 build/pic32mz_ef_sk/production/_ext/1009894383/sys_ports_static.o
 .text.SYS_PORTS_ChangeNotificationInIdleModeDisable
                0x00000000        0x8 build/pic32mz_ef_sk/production/_ext/1009894383/sys_ports_static.o
 .text.SYS_PORTS_ChangeNotificationPullUpEnable
                0x00000000        0x8 build/pic32mz_ef_sk/production/_ext/1009894383/sys_ports_static.o
 .text.SYS_PORTS_ChangeNotificationPullUpDisable
                0x00000000        0x8 build/pic32mz_ef_sk/production/_ext/1009894383/sys_ports_static.o
 .text.SYS_PORTS_PinModeSelect
                0x00000000       0x64 build/pic32mz_ef_sk/production/_ext/1009894383/sys_ports_static.o
 .text.SYS_PORTS_PinWrite
                0x00000000       0x60 build/pic32mz_ef_sk/production/_ext/1009894383/sys_ports_static.o
 .text.SYS_PORTS_PinLatchedGet
                0x00000000        0x8 build/pic32mz_ef_sk/production/_ext/1009894383/sys_ports_static.o
 .text.SYS_PORTS_PinRead
                0x00000000       0x28 build/pic32mz_ef_sk/production/_ext/1009894383/sys_ports_static.o
 .text.SYS_PORTS_PinToggle
                0x00000000       0x30 build/pic32mz_ef_sk/production/_ext/1009894383/sys_ports_static.o
 .text.SYS_PORTS_PinSet
                0x00000000       0x30 build/pic32mz_ef_sk/production/_ext/1009894383/sys_ports_static.o
 .text.SYS_PORTS_PinClear
                0x00000000       0x30 build/pic32mz_ef_sk/production/_ext/1009894383/sys_ports_static.o
 .text.SYS_PORTS_PinDirectionSelect
                0x00000000       0x60 build/pic32mz_ef_sk/production/_ext/1009894383/sys_ports_static.o
 .text.SYS_PORTS_PinOpenDrainEnable
                0x00000000       0x30 build/pic32mz_ef_sk/production/_ext/1009894383/sys_ports_static.o
 .text.SYS_PORTS_PinOpenDrainDisable
                0x00000000       0x30 build/pic32mz_ef_sk/production/_ext/1009894383/sys_ports_static.o
 .text.SYS_PORTS_PinPullUpEnable
                0x00000000        0x8 build/pic32mz_ef_sk/production/_ext/1009894383/sys_ports_static.o
 .text.SYS_PORTS_PinPullUpDisable
                0x00000000        0x8 build/pic32mz_ef_sk/production/_ext/1009894383/sys_ports_static.o
 .text.SYS_PORTS_PinPullDownEnable
                0x00000000        0x8 build/pic32mz_ef_sk/production/_ext/1009894383/sys_ports_static.o
 .text.SYS_PORTS_PinPullDownDisable
                0x00000000        0x8 build/pic32mz_ef_sk/production/_ext/1009894383/sys_ports_static.o
 .text.SYS_PORTS_InterruptEnable
                0x00000000        0x8 build/pic32mz_ef_sk/production/_ext/1009894383/sys_ports_static.o
 .text.SYS_PORTS_RemapInput
                0x00000000       0x5c build/pic32mz_ef_sk/production/_ext/1009894383/sys_ports_static.o
 .text.SYS_PORTS_RemapOutput
                0x00000000       0x68 build/pic32mz_ef_sk/production/_ext/1009894383/sys_ports_static.o
 .text          0x00000000        0x0 build/pic32mz_ef_sk/production/_ext/119080242/sys_reset.o
 .data          0x00000000        0x0 build/pic32mz_ef_sk/production/_ext/119080242/sys_reset.o
 .bss           0x00000000        0x0 build/pic32mz_ef_sk/production/_ext/119080242/sys_reset.o
 .reginfo       0x00000000       0x18 build/pic32mz_ef_sk/production/_ext/119080242/sys_reset.o
 .text.SYS_RESET_ReasonGet
                0x00000000       0x10 build/pic32mz_ef_sk/production/_ext/119080242/sys_reset.o
 .text.SYS_RESET_ReasonClear
                0x00000000       0x10 build/pic32mz_ef_sk/production/_ext/119080242/sys_reset.o
 .text.SYS_RESET_NMIDelayCountSet
                0x00000000       0x40 build/pic32mz_ef_sk/production/_ext/119080242/sys_reset.o
 .text          0x00000000        0x0 build/pic32mz_ef_sk/production/_ext/849053718/system_init.o
 .reginfo       0x00000000       0x18 build/pic32mz_ef_sk/production/_ext/849053718/system_init.o
 .text          0x00000000        0x0 build/pic32mz_ef_sk/production/_ext/849053718/system_interrupt.o
 .data          0x00000000        0x0 build/pic32mz_ef_sk/production/_ext/849053718/system_interrupt.o
 .bss           0x00000000        0x0 build/pic32mz_ef_sk/production/_ext/849053718/system_interrupt.o
 .reginfo       0x00000000       0x18 build/pic32mz_ef_sk/production/_ext/849053718/system_interrupt.o
 .text          0x00000000        0x0 build/pic32mz_ef_sk/production/_ext/849053718/system_exceptions.o
 .data          0x00000000        0x0 build/pic32mz_ef_sk/production/_ext/849053718/system_exceptions.o
 .bss           0x00000000        0x0 build/pic32mz_ef_sk/production/_ext/849053718/system_exceptions.o
 .reginfo       0x00000000       0x18 build/pic32mz_ef_sk/production/_ext/849053718/system_exceptions.o
 .text          0x00000000        0x0 build/pic32mz_ef_sk/production/_ext/849053718/system_tasks.o
 .data          0x00000000        0x0 build/pic32mz_ef_sk/production/_ext/849053718/system_tasks.o
 .bss           0x00000000        0x0 build/pic32mz_ef_sk/production/_ext/849053718/system_tasks.o
 .reginfo       0x00000000       0x18 build/pic32mz_ef_sk/production/_ext/849053718/system_tasks.o
 .text          0x00000000        0x0 build/pic32mz_ef_sk/production/_ext/849053718/system_interrupt_a.o
 .data          0x00000000        0x0 build/pic32mz_ef_sk/production/_ext/849053718/system_interrupt_a.o
 .bss           0x00000000        0x0 build/pic32mz_ef_sk/production/_ext/849053718/system_interrupt_a.o
 .reginfo       0x00000000       0x18 build/pic32mz_ef_sk/production/_ext/849053718/system_interrupt_a.o
 .text          0x00000000        0x0 build/pic32mz_ef_sk/production/_ext/849053718/rtos_hooks.o
 .data          0x00000000        0x0 build/pic32mz_ef_sk/production/_ext/849053718/rtos_hooks.o
 .bss           0x00000000        0x0 build/pic32mz_ef_sk/production/_ext/849053718/rtos_hooks.o
 .reginfo       0x00000000       0x18 build/pic32mz_ef_sk/production/_ext/849053718/rtos_hooks.o
 .text          0x00000000        0x0 build/pic32mz_ef_sk/production/_ext/1360937237/app.o
 .data          0x00000000        0x0 build/pic32mz_ef_sk/production/_ext/1360937237/app.o
 .bss           0x00000000        0x0 build/pic32mz_ef_sk/production/_ext/1360937237/app.o
 .reginfo       0x00000000       0x18 build/pic32mz_ef_sk/production/_ext/1360937237/app.o
 .text          0x00000000        0x0 build/pic32mz_ef_sk/production/_ext/1360937237/main.o
 .data          0x00000000        0x0 build/pic32mz_ef_sk/production/_ext/1360937237/main.o
 .bss           0x00000000        0x0 build/pic32mz_ef_sk/production/_ext/1360937237/main.o
 .reginfo       0x00000000       0x18 build/pic32mz_ef_sk/production/_ext/1360937237/main.o
 .text          0x00000000        0x0 build/pic32mz_ef_sk/production/_ext/1360937237/streamer.o
 .data          0x00000000        0x0 build/pic32mz_ef_sk/production/_ext/1360937237/streamer.o
 .bss           0x00000000        0x0 build/pic32mz_ef_sk/production/_ext/1360937237/streamer.o
 .reginfo       0x00000000       0x18 build/pic32mz_ef_sk/production/_ext/1360937237/streamer.o
 .text          0x00000000        0x0 build/pic32mz_ef_sk/production/_ext/1360937237/ws_server.o
 .data          0x00000000        0x0 build/pic32mz_ef_sk/production/_ext/1360937237/ws_server.o
 .bss           0x00000000        0x0 build/pic32mz_ef_sk/production/_ext/1360937237/ws_server.o
 .reginfo       0x00000000       0x18 build/pic32mz_ef_sk/production/_ext/1360937237/ws_server.o
 .text          0x00000000        0x0 build/pic32mz_ef_sk/production/_ext/1360937237/http_print.o
 .data          0x00000000        0x0 build/pic32mz_ef_sk/production/_ext/1360937237/http_print.o
 .bss           0x00000000        0x0 build/pic32mz_ef_sk/production/_ext/1360937237/http_print.o
 .reginfo       0x00000000       0x18 build/pic32mz_ef_sk/production/_ext/1360937237/http_print.o
 .text          0x00000000        0x0 build/pic32mz_ef_sk/production/_ext/1360937237/custom_http_app.o
 .data          0x00000000        0x0 build/pic32mz_ef_sk/production/_ext/1360937237/custom_http_app.o
 .reginfo       0x00000000       0x18 build/pic32mz_ef_sk/production/_ext/1360937237/custom_http_app.o
 .text          0x00000000        0x0 build/pic32mz_ef_sk/production/_ext/1360937237/mpfs_img2.o
 .data          0x00000000        0xc build/pic32mz_ef_sk/production/_ext/1360937237/mpfs_img2.o
 .bss           0x00000000        0x0 build/pic32mz_ef_sk/production/_ext/1360937237/mpfs_img2.o
 .reginfo       0x00000000       0x18 build/pic32mz_ef_sk/production/_ext/1360937237/mpfs_img2.o
 .rodata        0x00000000        0x8 build/pic32mz_ef_sk/production/_ext/1360937237/mpfs_img2.o
 .text          0x00000000        0x0 build/pic32mz_ef_sk/production/_ext/2046866571/adler32.o
 .data          0x00000000        0x0 build/pic32mz_ef_sk/production/_ext/2046866571/adler32.o
 .bss           0x00000000        0x0 build/pic32mz_ef_sk/production/_ext/2046866571/adler32.o
 .reginfo       0x00000000       0x18 build/pic32mz_ef_sk/production/_ext/2046866571/adler32.o
 .text.adler32_combine_
                0x00000000      0x104 build/pic32mz_ef_sk/production/_ext/2046866571/adler32.o
 .text.adler32  0x00000000      0x3f0 build/pic32mz_ef_sk/production/_ext/2046866571/adler32.o
 .text.adler32_combine
                0x00000000       0x1c build/pic32mz_ef_sk/production/_ext/2046866571/adler32.o
 .text.adler32_combine64
                0x00000000       0x1c build/pic32mz_ef_sk/production/_ext/2046866571/adler32.o
 .text          0x00000000        0x0 build/pic32mz_ef_sk/production/_ext/2046866571/compress.o
 .data          0x00000000        0x0 build/pic32mz_ef_sk/production/_ext/2046866571/compress.o
 .bss           0x00000000        0x0 build/pic32mz_ef_sk/production/_ext/2046866571/compress.o
 .reginfo       0x00000000       0x18 build/pic32mz_ef_sk/production/_ext/2046866571/compress.o
 .rodata        0x00000000        0x8 build/pic32mz_ef_sk/production/_ext/2046866571/compress.o
 .text.compress2
                0x00000000       0xa8 build/pic32mz_ef_sk/production/_ext/2046866571/compress.o
 .text.compress
                0x00000000       0x20 build/pic32mz_ef_sk/production/_ext/2046866571/compress.o
 .text.compressBound
                0x00000000       0x20 build/pic32mz_ef_sk/production/_ext/2046866571/compress.o
 .text          0x00000000        0x0 build/pic32mz_ef_sk/production/_ext/2046866571/crc32.o
 .data          0x00000000        0x0 build/pic32mz_ef_sk/production/_ext/2046866571/crc32.o
 .bss           0x00000000        0x0 build/pic32mz_ef_sk/production/_ext/2046866571/crc32.o
 .reginfo       0x00000000       0x18 build/pic32mz_ef_sk/production/_ext/2046866571/crc32.o
 .text.gf2_matrix_times
                0x00000000       0x38 build/pic32mz_ef_sk/production/_ext/2046866571/crc32.o
 .text.gf2_matrix_square
                0x00000000       0x60 build/pic32mz_ef_sk/production/_ext/2046866571/crc32.o
 .text.crc32_combine_
                0x00000000       0xec build/pic32mz_ef_sk/production/_ext/2046866571/crc32.o
 .text.get_crc_table
                0x00000000        0xc build/pic32mz_ef_sk/production/_ext/2046866571/crc32.o
 .text.crc32    0x00000000      0x3e8 build/pic32mz_ef_sk/production/_ext/2046866571/crc32.o
 .text.crc32_combine
                0x00000000       0x1c build/pic32mz_ef_sk/production/_ext/2046866571/crc32.o
 .text.crc32_combine64
                0x00000000       0x1c build/pic32mz_ef_sk/production/_ext/2046866571/crc32.o
 .rodata        0x00000000     0x2000 build/pic32mz_ef_sk/production/_ext/2046866571/crc32.o
 .text          0x00000000        0x0 build/pic32mz_ef_sk/production/_ext/2046866571/deflate.o
 .data          0x00000000        0x0 build/pic32mz_ef_sk/production/_ext/2046866571/deflate.o
 .bss           0x00000000        0x0 build/pic32mz_ef_sk/production/_ext/2046866571/deflate.o
 .reginfo       0x00000000       0x18 build/pic32mz_ef_sk/production/_ext/2046866571/deflate.o
 .text.putShortMSB
                0x00000000       0x38 build/pic32mz_ef_sk/production/_ext/2046866571/deflate.o
 .text.longest_match
                0x00000000      0x204 build/pic32mz_ef_sk/production/_ext/2046866571/deflate.o
 .text.fill_window
                0x00000000      0x384 build/pic32mz_ef_sk/production/_ext/2046866571/deflate.o
 .text.flush_pending
                0x00000000       0xac build/pic32mz_ef_sk/production/_ext/2046866571/deflate.o
 .text.deflate_slow
                0x00000000      0x5a4 build/pic32mz_ef_sk/production/_ext/2046866571/deflate.o
 .text.deflate_fast
                0x00000000      0x468 build/pic32mz_ef_sk/production/_ext/2046866571/deflate.o
 .text.deflate_stored
                0x00000000      0x214 build/pic32mz_ef_sk/production/_ext/2046866571/deflate.o
 .text.deflateSetDictionary
                0x00000000      0x26c build/pic32mz_ef_sk/production/_ext/2046866571/deflate.o
 .text.deflateResetKeep
                0x00000000       0xf0 build/pic32mz_ef_sk/production/_ext/2046866571/deflate.o
 .text.deflateReset
                0x00000000       0xe0 build/pic32mz_ef_sk/production/_ext/2046866571/deflate.o
 .text.deflateSetHeader
                0x00000000       0x44 build/pic32mz_ef_sk/production/_ext/2046866571/deflate.o
 .text.deflatePending
                0x00000000       0x58 build/pic32mz_ef_sk/production/_ext/2046866571/deflate.o
 .text.deflatePrime
                0x00000000       0xdc build/pic32mz_ef_sk/production/_ext/2046866571/deflate.o
 .text.deflateTune
                0x00000000       0x40 build/pic32mz_ef_sk/production/_ext/2046866571/deflate.o
 .text.deflateBound
                0x00000000      0x108 build/pic32mz_ef_sk/production/_ext/2046866571/deflate.o
 .text.deflate  0x00000000     0x1158 build/pic32mz_ef_sk/production/_ext/2046866571/deflate.o
 .text.deflateParams
                0x00000000      0x140 build/pic32mz_ef_sk/production/_ext/2046866571/deflate.o
 .text.deflateEnd
                0x00000000      0x10c build/pic32mz_ef_sk/production/_ext/2046866571/deflate.o
 .text.deflateInit2_
                0x00000000      0x2d0 build/pic32mz_ef_sk/production/_ext/2046866571/deflate.o
 .text.deflateInit_
                0x00000000       0x34 build/pic32mz_ef_sk/production/_ext/2046866571/deflate.o
 .text.deflateCopy
                0x00000000      0x2a4 build/pic32mz_ef_sk/production/_ext/2046866571/deflate.o
 .rodata        0x00000000       0xbc build/pic32mz_ef_sk/production/_ext/2046866571/deflate.o
 .text          0x00000000        0x0 build/pic32mz_ef_sk/production/_ext/2046866571/infback.o
 .data          0x00000000        0x0 build/pic32mz_ef_sk/production/_ext/2046866571/infback.o
 .bss           0x00000000        0x0 build/pic32mz_ef_sk/production/_ext/2046866571/infback.o
 .reginfo       0x00000000       0x18 build/pic32mz_ef_sk/production/_ext/2046866571/infback.o
 .text.inflateBackInit_
                0x00000000      0x120 build/pic32mz_ef_sk/production/_ext/2046866571/infback.o
 .rodata        0x00000000      0x9e8 build/pic32mz_ef_sk/production/_ext/2046866571/infback.o
 .text.inflateBack
                0x00000000     0x124c build/pic32mz_ef_sk/production/_ext/2046866571/infback.o
 .text.inflateBackEnd
                0x00000000       0x54 build/pic32mz_ef_sk/production/_ext/2046866571/infback.o
 .text          0x00000000        0x0 build/pic32mz_ef_sk/production/_ext/2046866571/inffast.o
 .data          0x00000000        0x0 build/pic32mz_ef_sk/production/_ext/2046866571/inffast.o
 .bss           0x00000000        0x0 build/pic32mz_ef_sk/production/_ext/2046866571/inffast.o
 .reginfo       0x00000000       0x18 build/pic32mz_ef_sk/production/_ext/2046866571/inffast.o
 .rodata        0x00000000       0x54 build/pic32mz_ef_sk/production/_ext/2046866571/inffast.o
 .text.inflate_fast
                0x00000000      0x5d4 build/pic32mz_ef_sk/production/_ext/2046866571/inffast.o
 .text          0x00000000        0x0 build/pic32mz_ef_sk/production/_ext/2046866571/inflate.o
 .data          0x00000000        0x0 build/pic32mz_ef_sk/production/_ext/2046866571/inflate.o
 .bss           0x00000000        0x0 build/pic32mz_ef_sk/production/_ext/2046866571/inflate.o
 .reginfo       0x00000000       0x18 build/pic32mz_ef_sk/production/_ext/2046866571/inflate.o
 .text.syncsearch
                0x00000000       0x98 build/pic32mz_ef_sk/production/_ext/2046866571/inflate.o
 .text.updatewindow
                0x00000000      0x158 build/pic32mz_ef_sk/production/_ext/2046866571/inflate.o
 .text.inflateResetKeep
                0x00000000       0x90 build/pic32mz_ef_sk/production/_ext/2046866571/inflate.o
 .text.inflateReset
                0x00000000       0x4c build/pic32mz_ef_sk/production/_ext/2046866571/inflate.o
 .text.inflateReset2
                0x00000000       0xcc build/pic32mz_ef_sk/production/_ext/2046866571/inflate.o
 .text.inflateInit2_
                0x00000000      0x10c build/pic32mz_ef_sk/production/_ext/2046866571/inflate.o
 .text.inflateInit_
                0x00000000       0x28 build/pic32mz_ef_sk/production/_ext/2046866571/inflate.o
 .text.inflatePrime
                0x00000000       0x90 build/pic32mz_ef_sk/production/_ext/2046866571/inflate.o
 .rodata        0x00000000      0xa90 build/pic32mz_ef_sk/production/_ext/2046866571/inflate.o
 .text.inflate  0x00000000     0x1b90 build/pic32mz_ef_sk/production/_ext/2046866571/inflate.o
 .text.inflateEnd
                0x00000000       0x70 build/pic32mz_ef_sk/production/_ext/2046866571/inflate.o
 .text.inflateSetDictionary
                0x00000000      0x11c build/pic32mz_ef_sk/production/_ext/2046866571/inflate.o
 .text.inflateGetHeader
                0x00000000       0x4c build/pic32mz_ef_sk/production/_ext/2046866571/inflate.o
 .text.inflateSync
                0x00000000      0x154 build/pic32mz_ef_sk/production/_ext/2046866571/inflate.o
 .text.inflateSyncPoint
                0x00000000       0x40 build/pic32mz_ef_sk/production/_ext/2046866571/inflate.o
 .text.inflateCopy
                0x00000000      0x278 build/pic32mz_ef_sk/production/_ext/2046866571/inflate.o
 .text.inflateUndermine
                0x00000000       0x30 build/pic32mz_ef_sk/production/_ext/2046866571/inflate.o
 .text.inflateMark
                0x00000000       0x60 build/pic32mz_ef_sk/production/_ext/2046866571/inflate.o
 .text          0x00000000        0x0 build/pic32mz_ef_sk/production/_ext/2046866571/inftrees.o
 .data          0x00000000        0x0 build/pic32mz_ef_sk/production/_ext/2046866571/inftrees.o
 .bss           0x00000000        0x0 build/pic32mz_ef_sk/production/_ext/2046866571/inftrees.o
 .reginfo       0x00000000       0x18 build/pic32mz_ef_sk/production/_ext/2046866571/inftrees.o
 .text.inflate_table
                0x00000000      0x5a0 build/pic32mz_ef_sk/production/_ext/2046866571/inftrees.o
 .rodata        0x00000000      0x130 build/pic32mz_ef_sk/production/_ext/2046866571/inftrees.o
 .text          0x00000000        0x0 build/pic32mz_ef_sk/production/_ext/2046866571/trees.o
 .data          0x00000000       0x3c build/pic32mz_ef_sk/production/_ext/2046866571/trees.o
 .bss           0x00000000        0x0 build/pic32mz_ef_sk/production/_ext/2046866571/trees.o
 .reginfo       0x00000000       0x18 build/pic32mz_ef_sk/production/_ext/2046866571/trees.o
 .text.init_block
                0x00000000       0x64 build/pic32mz_ef_sk/production/_ext/2046866571/trees.o
 .text.pqdownheap
                0x00000000      0x12c build/pic32mz_ef_sk/production/_ext/2046866571/trees.o
 .text.scan_tree
                0x00000000      0x130 build/pic32mz_ef_sk/production/_ext/2046866571/trees.o
 .text.send_tree
                0x00000000      0x610 build/pic32mz_ef_sk/production/_ext/2046866571/trees.o
 .text.compress_block
                0x00000000      0x4d4 build/pic32mz_ef_sk/production/_ext/2046866571/trees.o
 .text.build_tree
                0x00000000      0x558 build/pic32mz_ef_sk/production/_ext/2046866571/trees.o
 .text.bi_flush
                0x00000000       0x9c build/pic32mz_ef_sk/production/_ext/2046866571/trees.o
 .text.bi_windup
                0x00000000       0x80 build/pic32mz_ef_sk/production/_ext/2046866571/trees.o
 .text._tr_init
                0x00000000       0x5c build/pic32mz_ef_sk/production/_ext/2046866571/trees.o
 .text._tr_stored_block
                0x00000000      0x17c build/pic32mz_ef_sk/production/_ext/2046866571/trees.o
 .text._tr_flush_bits
                0x00000000       0x1c build/pic32mz_ef_sk/production/_ext/2046866571/trees.o
 .text._tr_align
                0x00000000      0x114 build/pic32mz_ef_sk/production/_ext/2046866571/trees.o
 .text._tr_flush_block
                0x00000000      0x680 build/pic32mz_ef_sk/production/_ext/2046866571/trees.o
 .text._tr_tally
                0x00000000       0xd4 build/pic32mz_ef_sk/production/_ext/2046866571/trees.o
 .rodata        0x00000000      0xa30 build/pic32mz_ef_sk/production/_ext/2046866571/trees.o
 .text          0x00000000        0x0 build/pic32mz_ef_sk/production/_ext/2046866571/uncompr.o
 .data          0x00000000        0x0 build/pic32mz_ef_sk/production/_ext/2046866571/uncompr.o
 .bss           0x00000000        0x0 build/pic32mz_ef_sk/production/_ext/2046866571/uncompr.o
 .reginfo       0x00000000       0x18 build/pic32mz_ef_sk/production/_ext/2046866571/uncompr.o
 .rodata        0x00000000        0x8 build/pic32mz_ef_sk/production/_ext/2046866571/uncompr.o
 .text.uncompress
                0x00000000       0xc4 build/pic32mz_ef_sk/production/_ext/2046866571/uncompr.o
 .text          0x00000000        0x0 build/pic32mz_ef_sk/production/_ext/2046866571/zutil.o
 .data          0x00000000        0x0 build/pic32mz_ef_sk/production/_ext/2046866571/zutil.o
 .bss           0x00000000        0x0 build/pic32mz_ef_sk/production/_ext/2046866571/zutil.o
 .reginfo       0x00000000       0x18 build/pic32mz_ef_sk/production/_ext/2046866571/zutil.o
 .rodata        0x00000000       0xb4 build/pic32mz_ef_sk/production/_ext/2046866571/zutil.o
 .text.zlibVersion
                0x00000000        0xc build/pic32mz_ef_sk/production/_ext/2046866571/zutil.o
 .text.zlibCompileFlags
                0x00000000        0x8 build/pic32mz_ef_sk/production/_ext/2046866571/zutil.o
 .text.zError   0x00000000       0x1c build/pic32mz_ef_sk/production/_ext/2046866571/zutil.o
 .text.zcalloc  0x00000000       0x1c build/pic32mz_ef_sk/production/_ext/2046866571/zutil.o
 .text.zcfree   0x00000000       0x1c build/pic32mz_ef_sk/production/_ext/2046866571/zutil.o
 .text          0x00000000        0x0 build/pic32mz_ef_sk/production/_ext/29024758/ecc.o
 .data          0x00000000        0x0 build/pic32mz_ef_sk/production/_ext/29024758/ecc.o
 .bss           0x00000000        0x0 build/pic32mz_ef_sk/production/_ext/29024758/ecc.o
 .reginfo       0x00000000       0x18 build/pic32mz_ef_sk/production/_ext/29024758/ecc.o
 .text          0x00000000        0x0 build/pic32mz_ef_sk/production/_ext/29024758/arc4.o
 .data          0x00000000        0x0 build/pic32mz_ef_sk/production/_ext/29024758/arc4.o
 .bss           0x00000000        0x0 build/pic32mz_ef_sk/production/_ext/29024758/arc4.o
 .reginfo       0x00000000       0x18 build/pic32mz_ef_sk/production/_ext/29024758/arc4.o
 .text.wc_Arc4SetKey
                0x00000000       0x94 build/pic32mz_ef_sk/production/_ext/29024758/arc4.o
 .text.wc_Arc4Process
                0x00000000       0xa0 build/pic32mz_ef_sk/production/_ext/29024758/arc4.o
 .text.wc_Arc4Init
                0x00000000       0x1c build/pic32mz_ef_sk/production/_ext/29024758/arc4.o
 .text.wc_Arc4Free
                0x00000000        0x8 build/pic32mz_ef_sk/production/_ext/29024758/arc4.o
 .text          0x00000000        0x0 build/pic32mz_ef_sk/production/_ext/29024758/pwdbased.o
 .data          0x00000000        0x0 build/pic32mz_ef_sk/production/_ext/29024758/pwdbased.o
 .bss           0x00000000        0x0 build/pic32mz_ef_sk/production/_ext/29024758/pwdbased.o
 .reginfo       0x00000000       0x18 build/pic32mz_ef_sk/production/_ext/29024758/pwdbased.o
 .text          0x00000000        0x0 build/pic32mz_ef_sk/production/_ext/29024758/tfm.o
 .data          0x00000000        0x0 build/pic32mz_ef_sk/production/_ext/29024758/tfm.o
 .bss           0x00000000        0x0 build/pic32mz_ef_sk/production/_ext/29024758/tfm.o
 .reginfo       0x00000000       0x18 build/pic32mz_ef_sk/production/_ext/29024758/tfm.o
 .text.CheckRunTimeSettings
                0x00000000        0x8 build/pic32mz_ef_sk/production/_ext/29024758/tfm.o
 .text.CheckRunTimeFastMath
                0x00000000        0x8 build/pic32mz_ef_sk/production/_ext/29024758/tfm.o
 .text.s_fp_add
                0x00000000      0x140 build/pic32mz_ef_sk/production/_ext/29024758/tfm.o
 .text.s_fp_sub
                0x00000000      0x160 build/pic32mz_ef_sk/production/_ext/29024758/tfm.o
 .text.fp_mul_2
                0x00000000       0xb8 build/pic32mz_ef_sk/production/_ext/29024758/tfm.o
 .text.fp_mul_d
                0x00000000      0x134 build/pic32mz_ef_sk/production/_ext/29024758/tfm.o
 .text.fp_div_2
                0x00000000       0xec build/pic32mz_ef_sk/production/_ext/29024758/tfm.o
 .text.fp_cmp_d
                0x00000000       0x54 build/pic32mz_ef_sk/production/_ext/29024758/tfm.o
 .text.fp_cmp_mag
                0x00000000       0xc0 build/pic32mz_ef_sk/production/_ext/29024758/tfm.o
 .text.fp_add   0x00000000       0xa4 build/pic32mz_ef_sk/production/_ext/29024758/tfm.o
 .text.fp_sub   0x00000000       0xa0 build/pic32mz_ef_sk/production/_ext/29024758/tfm.o
 .text.fp_cmp   0x00000000       0x78 build/pic32mz_ef_sk/production/_ext/29024758/tfm.o
 .text.fp_montgomery_setup
                0x00000000       0x5c build/pic32mz_ef_sk/production/_ext/29024758/tfm.o
 .text.fp_montgomery_reduce
                0x00000000      0x220 build/pic32mz_ef_sk/production/_ext/29024758/tfm.o
 .text.fp_is_bit_set
                0x00000000       0x3c build/pic32mz_ef_sk/production/_ext/29024758/tfm.o
 .text.fp_set_bit
                0x00000000       0x48 build/pic32mz_ef_sk/production/_ext/29024758/tfm.o
 .text.fp_count_bits
                0x00000000       0x44 build/pic32mz_ef_sk/production/_ext/29024758/tfm.o
 .text.fp_unsigned_bin_size
                0x00000000       0x38 build/pic32mz_ef_sk/production/_ext/29024758/tfm.o
 .text.fp_leading_bit
                0x00000000       0x3c build/pic32mz_ef_sk/production/_ext/29024758/tfm.o
 .text.fp_lshd  0x00000000       0xe8 build/pic32mz_ef_sk/production/_ext/29024758/tfm.o
 .text.fp_rshb  0x00000000       0xc8 build/pic32mz_ef_sk/production/_ext/29024758/tfm.o
 .text.fp_reverse
                0x00000000       0x44 build/pic32mz_ef_sk/production/_ext/29024758/tfm.o
 .text.fp_zero  0x00000000       0x2c build/pic32mz_ef_sk/production/_ext/29024758/tfm.o
 .text.fp_2expt
                0x00000000       0x6c build/pic32mz_ef_sk/production/_ext/29024758/tfm.o
 .text.fp_read_unsigned_bin
                0x00000000       0xec build/pic32mz_ef_sk/production/_ext/29024758/tfm.o
 .text.fp_set   0x00000000       0x3c build/pic32mz_ef_sk/production/_ext/29024758/tfm.o
 .text.fp_montgomery_calc_normalization
                0x00000000       0xec build/pic32mz_ef_sk/production/_ext/29024758/tfm.o
 .text.fp_rshd  0x00000000      0x100 build/pic32mz_ef_sk/production/_ext/29024758/tfm.o
 .text.fp_init  0x00000000       0x1c build/pic32mz_ef_sk/production/_ext/29024758/tfm.o
 .text.mp_init  0x00000000       0x30 build/pic32mz_ef_sk/production/_ext/29024758/tfm.o
 .text.fp_sub_d
                0x00000000       0x5c build/pic32mz_ef_sk/production/_ext/29024758/tfm.o
 .text.fp_clear
                0x00000000       0x2c build/pic32mz_ef_sk/production/_ext/29024758/tfm.o
 .text.fp_forcezero
                0x00000000       0x28 build/pic32mz_ef_sk/production/_ext/29024758/tfm.o
 .text.mp_forcezero
                0x00000000       0x1c build/pic32mz_ef_sk/production/_ext/29024758/tfm.o
 .text.fp_free  0x00000000        0x8 build/pic32mz_ef_sk/production/_ext/29024758/tfm.o
 .text.mp_clear
                0x00000000       0x28 build/pic32mz_ef_sk/production/_ext/29024758/tfm.o
 .text.mp_free  0x00000000        0x8 build/pic32mz_ef_sk/production/_ext/29024758/tfm.o
 .text.mp_init_multi
                0x00000000       0xb0 build/pic32mz_ef_sk/production/_ext/29024758/tfm.o
 .text.mp_add   0x00000000       0x20 build/pic32mz_ef_sk/production/_ext/29024758/tfm.o
 .text.mp_sub   0x00000000       0x20 build/pic32mz_ef_sk/production/_ext/29024758/tfm.o
 .text.mp_mul_d
                0x00000000       0x20 build/pic32mz_ef_sk/production/_ext/29024758/tfm.o
 .text.mp_cmp   0x00000000       0x1c build/pic32mz_ef_sk/production/_ext/29024758/tfm.o
 .text.mp_cmp_d
                0x00000000       0x1c build/pic32mz_ef_sk/production/_ext/29024758/tfm.o
 .text.mp_unsigned_bin_size
                0x00000000       0x1c build/pic32mz_ef_sk/production/_ext/29024758/tfm.o
 .text.mp_read_unsigned_bin
                0x00000000       0x20 build/pic32mz_ef_sk/production/_ext/29024758/tfm.o
 .text.mp_sub_d
                0x00000000       0x20 build/pic32mz_ef_sk/production/_ext/29024758/tfm.o
 .text.fp_copy  0x00000000       0x78 build/pic32mz_ef_sk/production/_ext/29024758/tfm.o
 .text.fp_mul_2d
                0x00000000      0x14c build/pic32mz_ef_sk/production/_ext/29024758/tfm.o
 .text.fp_set_int
                0x00000000       0xf0 build/pic32mz_ef_sk/production/_ext/29024758/tfm.o
 .text.mp_mul_2d
                0x00000000       0x20 build/pic32mz_ef_sk/production/_ext/29024758/tfm.o
 .text.fp_mul_comba
                0x00000000      0x1bc build/pic32mz_ef_sk/production/_ext/29024758/tfm.o
 .text.fp_mul   0x00000000       0xac build/pic32mz_ef_sk/production/_ext/29024758/tfm.o
 .text.mp_mul   0x00000000       0x20 build/pic32mz_ef_sk/production/_ext/29024758/tfm.o
 .text.fp_mod_2d
                0x00000000      0x134 build/pic32mz_ef_sk/production/_ext/29024758/tfm.o
 .text.fp_div_2d
                0x00000000      0x154 build/pic32mz_ef_sk/production/_ext/29024758/tfm.o
 .text.fp_to_unsigned_bin_at_pos
                0x00000000       0x74 build/pic32mz_ef_sk/production/_ext/29024758/tfm.o
 .text.mp_to_unsigned_bin_at_pos
                0x00000000       0x1c build/pic32mz_ef_sk/production/_ext/29024758/tfm.o
 .text.mp_div_2d
                0x00000000       0x20 build/pic32mz_ef_sk/production/_ext/29024758/tfm.o
 .text.fp_sqr_comba
                0x00000000      0x234 build/pic32mz_ef_sk/production/_ext/29024758/tfm.o
 .text.fp_sqr   0x00000000       0x8c build/pic32mz_ef_sk/production/_ext/29024758/tfm.o
 .text.fp_init_copy
                0x00000000       0x44 build/pic32mz_ef_sk/production/_ext/29024758/tfm.o
 .text.fp_div   0x00000000      0x538 build/pic32mz_ef_sk/production/_ext/29024758/tfm.o
 .text.fp_mod   0x00000000       0x90 build/pic32mz_ef_sk/production/_ext/29024758/tfm.o
 .text.fp_invmod
                0x00000000      0x5dc build/pic32mz_ef_sk/production/_ext/29024758/tfm.o
 .text.mp_invmod
                0x00000000       0x1c build/pic32mz_ef_sk/production/_ext/29024758/tfm.o
 .text.fp_mulmod
                0x00000000       0x6c build/pic32mz_ef_sk/production/_ext/29024758/tfm.o
 .text.mp_mulmod
                0x00000000       0x1c build/pic32mz_ef_sk/production/_ext/29024758/tfm.o
 .text.fp_submod
                0x00000000       0x6c build/pic32mz_ef_sk/production/_ext/29024758/tfm.o
 .text.mp_submod
                0x00000000       0x1c build/pic32mz_ef_sk/production/_ext/29024758/tfm.o
 .text.fp_addmod
                0x00000000       0x6c build/pic32mz_ef_sk/production/_ext/29024758/tfm.o
 .text.mp_addmod
                0x00000000       0x1c build/pic32mz_ef_sk/production/_ext/29024758/tfm.o
 .text._fp_exptmod
                0x00000000      0x1fc build/pic32mz_ef_sk/production/_ext/29024758/tfm.o
 .text.mp_mod   0x00000000       0x1c build/pic32mz_ef_sk/production/_ext/29024758/tfm.o
 .text.mp_div   0x00000000       0x1c build/pic32mz_ef_sk/production/_ext/29024758/tfm.o
 .text.fp_exptmod
                0x00000000       0xb8 build/pic32mz_ef_sk/production/_ext/29024758/tfm.o
 .text.mp_exptmod
                0x00000000       0x1c build/pic32mz_ef_sk/production/_ext/29024758/tfm.o
 .text.fp_to_unsigned_bin
                0x00000000       0x4c build/pic32mz_ef_sk/production/_ext/29024758/tfm.o
 .text.mp_to_unsigned_bin
                0x00000000       0x20 build/pic32mz_ef_sk/production/_ext/29024758/tfm.o
 .text.mp_copy  0x00000000       0x20 build/pic32mz_ef_sk/production/_ext/29024758/tfm.o
 .text.mp_isodd
                0x00000000       0x20 build/pic32mz_ef_sk/production/_ext/29024758/tfm.o
 .text.mp_iszero
                0x00000000        0xc build/pic32mz_ef_sk/production/_ext/29024758/tfm.o
 .text.mp_count_bits
                0x00000000       0x1c build/pic32mz_ef_sk/production/_ext/29024758/tfm.o
 .text.mp_leading_bit
                0x00000000       0x1c build/pic32mz_ef_sk/production/_ext/29024758/tfm.o
 .text.mp_rshb  0x00000000       0x1c build/pic32mz_ef_sk/production/_ext/29024758/tfm.o
 .text.mp_rshd  0x00000000       0x1c build/pic32mz_ef_sk/production/_ext/29024758/tfm.o
 .text.mp_set_int
                0x00000000       0x20 build/pic32mz_ef_sk/production/_ext/29024758/tfm.o
 .text.mp_is_bit_set
                0x00000000       0x1c build/pic32mz_ef_sk/production/_ext/29024758/tfm.o
 .text.mp_set_bit
                0x00000000       0x1c build/pic32mz_ef_sk/production/_ext/29024758/tfm.o
 .text.mp_set   0x00000000       0x20 build/pic32mz_ef_sk/production/_ext/29024758/tfm.o
 .text.mp_lshd  0x00000000       0x20 build/pic32mz_ef_sk/production/_ext/29024758/tfm.o
 .text          0x00000000        0x0 build/pic32mz_ef_sk/production/_ext/29024758/asn.o
 .data          0x00000000        0x0 build/pic32mz_ef_sk/production/_ext/29024758/asn.o
 .bss           0x00000000        0x0 build/pic32mz_ef_sk/production/_ext/29024758/asn.o
 .reginfo       0x00000000       0x18 build/pic32mz_ef_sk/production/_ext/29024758/asn.o
 .text          0x00000000        0x0 build/pic32mz_ef_sk/production/_ext/29024758/des3.o
 .data          0x00000000        0x0 build/pic32mz_ef_sk/production/_ext/29024758/des3.o
 .bss           0x00000000        0x0 build/pic32mz_ef_sk/production/_ext/29024758/des3.o
 .reginfo       0x00000000       0x18 build/pic32mz_ef_sk/production/_ext/29024758/des3.o
 .text.DesRawProcessBlock
                0x00000000      0x18c build/pic32mz_ef_sk/production/_ext/29024758/des3.o
 .text.DesSetKey
                0x00000000      0x200 build/pic32mz_ef_sk/production/_ext/29024758/des3.o
 .text.Des3ProcessBlock
                0x00000000      0x214 build/pic32mz_ef_sk/production/_ext/29024758/des3.o
 .text.DesProcessBlock
                0x00000000      0x1e8 build/pic32mz_ef_sk/production/_ext/29024758/des3.o
 .text.wc_Des_CbcEncrypt
                0x00000000      0x108 build/pic32mz_ef_sk/production/_ext/29024758/des3.o
 .text.wc_Des_CbcDecrypt
                0x00000000      0x12c build/pic32mz_ef_sk/production/_ext/29024758/des3.o
 .text.wc_Des3_CbcEncrypt
                0x00000000      0x124 build/pic32mz_ef_sk/production/_ext/29024758/des3.o
 .text.wc_Des3_CbcDecrypt
                0x00000000      0x150 build/pic32mz_ef_sk/production/_ext/29024758/des3.o
 .text.wc_Des_SetIV
                0x00000000       0x58 build/pic32mz_ef_sk/production/_ext/29024758/des3.o
 .text.wc_Des_SetKey
                0x00000000       0x50 build/pic32mz_ef_sk/production/_ext/29024758/des3.o
 .text.wc_Des3_SetIV
                0x00000000       0x68 build/pic32mz_ef_sk/production/_ext/29024758/des3.o
 .text.wc_Des3_SetKey
                0x00000000       0xdc build/pic32mz_ef_sk/production/_ext/29024758/des3.o
 .text.wc_Des3Init
                0x00000000       0x1c build/pic32mz_ef_sk/production/_ext/29024758/des3.o
 .text.wc_Des3Free
                0x00000000        0x8 build/pic32mz_ef_sk/production/_ext/29024758/des3.o
 .rodata        0x00000000      0x898 build/pic32mz_ef_sk/production/_ext/29024758/des3.o
 .text          0x00000000        0x0 build/pic32mz_ef_sk/production/_ext/29024758/rsa.o
 .data          0x00000000        0x0 build/pic32mz_ef_sk/production/_ext/29024758/rsa.o
 .bss           0x00000000        0x0 build/pic32mz_ef_sk/production/_ext/29024758/rsa.o
 .reginfo       0x00000000       0x18 build/pic32mz_ef_sk/production/_ext/29024758/rsa.o
 .text          0x00000000        0x0 build/pic32mz_ef_sk/production/_ext/29024758/aes.o
 .data          0x00000000        0x0 build/pic32mz_ef_sk/production/_ext/29024758/aes.o
 .bss           0x00000000        0x0 build/pic32mz_ef_sk/production/_ext/29024758/aes.o
 .reginfo       0x00000000       0x18 build/pic32mz_ef_sk/production/_ext/29024758/aes.o
 .text          0x00000000        0x0 build/pic32mz_ef_sk/production/_ext/29024758/md5.o
 .data          0x00000000        0x0 build/pic32mz_ef_sk/production/_ext/29024758/md5.o
 .bss           0x00000000        0x0 build/pic32mz_ef_sk/production/_ext/29024758/md5.o
 .reginfo       0x00000000       0x18 build/pic32mz_ef_sk/production/_ext/29024758/md5.o
 .text.wc_Md5Free
                0x00000000        0x8 build/pic32mz_ef_sk/production/_ext/29024758/md5.o
 .text.wc_Md5Copy
                0x00000000       0x7c build/pic32mz_ef_sk/production/_ext/29024758/md5.o
 .text.wc_Md5GetHash
                0x00000000       0x60 build/pic32mz_ef_sk/production/_ext/29024758/md5.o
 .text          0x00000000        0x0 build/pic32mz_ef_sk/production/_ext/29024758/sha.o
 .data          0x00000000        0x0 build/pic32mz_ef_sk/production/_ext/29024758/sha.o
 .bss           0x00000000        0x0 build/pic32mz_ef_sk/production/_ext/29024758/sha.o
 .reginfo       0x00000000       0x18 build/pic32mz_ef_sk/production/_ext/29024758/sha.o
 .text.Transform
                0x00000000     0x1018 build/pic32mz_ef_sk/production/_ext/29024758/sha.o
 .text.wc_InitSha_ex
                0x00000000       0x64 build/pic32mz_ef_sk/production/_ext/29024758/sha.o
 .text.wc_ShaUpdate
                0x00000000      0x164 build/pic32mz_ef_sk/production/_ext/29024758/sha.o
 .text.wc_ShaFinal
                0x00000000      0x2b4 build/pic32mz_ef_sk/production/_ext/29024758/sha.o
 .text.wc_InitSha
                0x00000000       0x20 build/pic32mz_ef_sk/production/_ext/29024758/sha.o
 .text.wc_ShaFree
                0x00000000        0x8 build/pic32mz_ef_sk/production/_ext/29024758/sha.o
 .text.wc_ShaCopy
                0x00000000       0x8c build/pic32mz_ef_sk/production/_ext/29024758/sha.o
 .text.wc_ShaGetHash
                0x00000000       0x60 build/pic32mz_ef_sk/production/_ext/29024758/sha.o
 .text          0x00000000        0x0 build/pic32mz_ef_sk/production/_ext/29024758/sha256.o
 .data          0x00000000        0x0 build/pic32mz_ef_sk/production/_ext/29024758/sha256.o
 .bss           0x00000000        0x0 build/pic32mz_ef_sk/production/_ext/29024758/sha256.o
 .reginfo       0x00000000       0x18 build/pic32mz_ef_sk/production/_ext/29024758/sha256.o
 .text.Transform
                0x00000000      0x46c build/pic32mz_ef_sk/production/_ext/29024758/sha256.o
 .text.wc_InitSha256_ex
                0x00000000       0xac build/pic32mz_ef_sk/production/_ext/29024758/sha256.o
 .text.wc_Sha256Update
                0x00000000      0x168 build/pic32mz_ef_sk/production/_ext/29024758/sha256.o
 .text.wc_Sha256Final
                0x00000000      0x31c build/pic32mz_ef_sk/production/_ext/29024758/sha256.o
 .text.wc_InitSha256
                0x00000000       0x20 build/pic32mz_ef_sk/production/_ext/29024758/sha256.o
 .text.wc_Sha256Free
                0x00000000        0x8 build/pic32mz_ef_sk/production/_ext/29024758/sha256.o
 .text.wc_Sha256Copy
                0x00000000       0x7c build/pic32mz_ef_sk/production/_ext/29024758/sha256.o
 .text.wc_Sha256GetHash
                0x00000000       0x60 build/pic32mz_ef_sk/production/_ext/29024758/sha256.o
 .rodata        0x00000000      0x100 build/pic32mz_ef_sk/production/_ext/29024758/sha256.o
 .text          0x00000000        0x0 build/pic32mz_ef_sk/production/_ext/29024758/sha512.o
 .data          0x00000000        0x0 build/pic32mz_ef_sk/production/_ext/29024758/sha512.o
 .bss           0x00000000        0x0 build/pic32mz_ef_sk/production/_ext/29024758/sha512.o
 .reginfo       0x00000000       0x18 build/pic32mz_ef_sk/production/_ext/29024758/sha512.o
 .text          0x00000000        0x0 build/pic32mz_ef_sk/production/_ext/29024758/hmac.o
 .data          0x00000000        0x0 build/pic32mz_ef_sk/production/_ext/29024758/hmac.o
 .bss           0x00000000        0x0 build/pic32mz_ef_sk/production/_ext/29024758/hmac.o
 .reginfo       0x00000000       0x18 build/pic32mz_ef_sk/production/_ext/29024758/hmac.o
 .text.HmacKeyInnerHash
                0x00000000       0x80 build/pic32mz_ef_sk/production/_ext/29024758/hmac.o
 .text.wc_HmacSizeByType
                0x00000000       0x3c build/pic32mz_ef_sk/production/_ext/29024758/hmac.o
 .text.wc_HmacSetKey
                0x00000000      0x28c build/pic32mz_ef_sk/production/_ext/29024758/hmac.o
 .text.wc_HmacUpdate
                0x00000000       0xc8 build/pic32mz_ef_sk/production/_ext/29024758/hmac.o
 .text.wc_HmacFinal
                0x00000000      0x1a0 build/pic32mz_ef_sk/production/_ext/29024758/hmac.o
 .text.wc_HmacInit
                0x00000000       0x4c build/pic32mz_ef_sk/production/_ext/29024758/hmac.o
 .text.wc_HmacFree
                0x00000000        0x8 build/pic32mz_ef_sk/production/_ext/29024758/hmac.o
 .text.wolfSSL_GetHmacMaxSize
                0x00000000        0x8 build/pic32mz_ef_sk/production/_ext/29024758/hmac.o
 .text          0x00000000        0x0 build/pic32mz_ef_sk/production/_ext/29024758/hash.o
 .data          0x00000000        0x0 build/pic32mz_ef_sk/production/_ext/29024758/hash.o
 .bss           0x00000000        0x0 build/pic32mz_ef_sk/production/_ext/29024758/hash.o
 .reginfo       0x00000000       0x18 build/pic32mz_ef_sk/production/_ext/29024758/hash.o
 .text.wc_HashGetOID
                0x00000000       0x70 build/pic32mz_ef_sk/production/_ext/29024758/hash.o
 .text.wc_HashGetDigestSize
                0x00000000       0x70 build/pic32mz_ef_sk/production/_ext/29024758/hash.o
 .text.wc_HashInit
                0x00000000       0x9c build/pic32mz_ef_sk/production/_ext/29024758/hash.o
 .text.wc_HashUpdate
                0x00000000       0xb0 build/pic32mz_ef_sk/production/_ext/29024758/hash.o
 .text.wc_HashFinal
                0x00000000       0xa4 build/pic32mz_ef_sk/production/_ext/29024758/hash.o
 .text.wc_Md5Hash
                0x00000000       0x6c build/pic32mz_ef_sk/production/_ext/29024758/hash.o
 .text.wc_ShaHash
                0x00000000       0x70 build/pic32mz_ef_sk/production/_ext/29024758/hash.o
 .text.wc_Sha256Hash
                0x00000000       0x6c build/pic32mz_ef_sk/production/_ext/29024758/hash.o
 .text.wc_Hash  0x00000000      0x120 build/pic32mz_ef_sk/production/_ext/29024758/hash.o
 .text          0x00000000        0x0 build/pic32mz_ef_sk/production/_ext/29024758/compress.o
 .data          0x00000000        0x0 build/pic32mz_ef_sk/production/_ext/29024758/compress.o
 .bss           0x00000000        0x0 build/pic32mz_ef_sk/production/_ext/29024758/compress.o
 .reginfo       0x00000000       0x18 build/pic32mz_ef_sk/production/_ext/29024758/compress.o
 .text          0x00000000        0x0 build/pic32mz_ef_sk/production/_ext/29024758/crypto.o
 .data          0x00000000        0x0 build/pic32mz_ef_sk/production/_ext/29024758/crypto.o
 .bss           0x00000000        0x0 build/pic32mz_ef_sk/production/_ext/29024758/crypto.o
 .reginfo       0x00000000       0x18 build/pic32mz_ef_sk/production/_ext/29024758/crypto.o
 .text.CRYPT_MD5_DataSizeSet
                0x00000000        0xc build/pic32mz_ef_sk/production/_ext/29024758/crypto.o
 .text.CRYPT_SHA_Initialize
                0x00000000       0x30 build/pic32mz_ef_sk/production/_ext/29024758/crypto.o
 .text.CRYPT_SHA_DataSizeSet
                0x00000000        0xc build/pic32mz_ef_sk/production/_ext/29024758/crypto.o
 .text.CRYPT_SHA_DataAdd
                0x00000000       0x40 build/pic32mz_ef_sk/production/_ext/29024758/crypto.o
 .text.CRYPT_SHA_Finalize
                0x00000000       0x40 build/pic32mz_ef_sk/production/_ext/29024758/crypto.o
 .text.CRYPT_SHA256_Initialize
                0x00000000       0x30 build/pic32mz_ef_sk/production/_ext/29024758/crypto.o
 .text.CRYPT_SHA256_DataSizeSet
                0x00000000        0xc build/pic32mz_ef_sk/production/_ext/29024758/crypto.o
 .text.CRYPT_SHA256_DataAdd
                0x00000000       0x40 build/pic32mz_ef_sk/production/_ext/29024758/crypto.o
 .text.CRYPT_SHA256_Finalize
                0x00000000       0x40 build/pic32mz_ef_sk/production/_ext/29024758/crypto.o
 .text.CRYPT_HMAC_SetKey
                0x00000000       0x54 build/pic32mz_ef_sk/production/_ext/29024758/crypto.o
 .text.CRYPT_HMAC_DataAdd
                0x00000000       0x40 build/pic32mz_ef_sk/production/_ext/29024758/crypto.o
 .text.CRYPT_HMAC_Finalize
                0x00000000       0x40 build/pic32mz_ef_sk/production/_ext/29024758/crypto.o
 .text.CRYPT_RNG_Initialize
                0x00000000       0x30 build/pic32mz_ef_sk/production/_ext/29024758/crypto.o
 .text.CRYPT_RNG_Get
                0x00000000       0x40 build/pic32mz_ef_sk/production/_ext/29024758/crypto.o
 .text.CRYPT_RNG_BlockGenerate
                0x00000000       0x40 build/pic32mz_ef_sk/production/_ext/29024758/crypto.o
 .text.CRYPT_TDES_KeySet
                0x00000000       0x40 build/pic32mz_ef_sk/production/_ext/29024758/crypto.o
 .text.CRYPT_TDES_IvSet
                0x00000000       0x40 build/pic32mz_ef_sk/production/_ext/29024758/crypto.o
 .text.CRYPT_TDES_CBC_Encrypt
                0x00000000       0x50 build/pic32mz_ef_sk/production/_ext/29024758/crypto.o
 .text.CRYPT_TDES_CBC_Decrypt
                0x00000000       0x50 build/pic32mz_ef_sk/production/_ext/29024758/crypto.o
 .text.CRYPT_ERROR_StringGet
                0x00000000       0x34 build/pic32mz_ef_sk/production/_ext/29024758/crypto.o
 .text          0x00000000        0x0 build/pic32mz_ef_sk/production/_ext/29024758/coding.o
 .data          0x00000000        0x0 build/pic32mz_ef_sk/production/_ext/29024758/coding.o
 .bss           0x00000000        0x0 build/pic32mz_ef_sk/production/_ext/29024758/coding.o
 .reginfo       0x00000000       0x18 build/pic32mz_ef_sk/production/_ext/29024758/coding.o
 .text.CEscape  0x00000000      0x178 build/pic32mz_ef_sk/production/_ext/29024758/coding.o
 .text.DoBase64_Encode
                0x00000000      0x428 build/pic32mz_ef_sk/production/_ext/29024758/coding.o
 .text.Base64_Decode
                0x00000000      0x2b4 build/pic32mz_ef_sk/production/_ext/29024758/coding.o
 .text.Base64_Encode
                0x00000000       0x1c build/pic32mz_ef_sk/production/_ext/29024758/coding.o
 .text.Base64_EncodeEsc
                0x00000000       0x20 build/pic32mz_ef_sk/production/_ext/29024758/coding.o
 .text.Base64_Encode_NoNl
                0x00000000       0x20 build/pic32mz_ef_sk/production/_ext/29024758/coding.o
 .rodata        0x00000000       0x90 build/pic32mz_ef_sk/production/_ext/29024758/coding.o
 .text          0x00000000        0x0 build/pic32mz_ef_sk/production/_ext/29024758/error.o
 .data          0x00000000        0x0 build/pic32mz_ef_sk/production/_ext/29024758/error.o
 .bss           0x00000000        0x0 build/pic32mz_ef_sk/production/_ext/29024758/error.o
 .reginfo       0x00000000       0x18 build/pic32mz_ef_sk/production/_ext/29024758/error.o
 .rodata        0x00000000     0x1158 build/pic32mz_ef_sk/production/_ext/29024758/error.o
 .text.wc_GetErrorString
                0x00000000      0x874 build/pic32mz_ef_sk/production/_ext/29024758/error.o
 .text.wc_ErrorString
                0x00000000       0x34 build/pic32mz_ef_sk/production/_ext/29024758/error.o
 .text          0x00000000        0x0 build/pic32mz_ef_sk/production/_ext/29024758/integer.o
 .data          0x00000000        0x0 build/pic32mz_ef_sk/production/_ext/29024758/integer.o
 .bss           0x00000000        0x0 build/pic32mz_ef_sk/production/_ext/29024758/integer.o
 .reginfo       0x00000000       0x18 build/pic32mz_ef_sk/production/_ext/29024758/integer.o
 .text          0x00000000        0x0 build/pic32mz_ef_sk/production/_ext/29024758/logging.o
 .data          0x00000000        0x0 build/pic32mz_ef_sk/production/_ext/29024758/logging.o
 .bss           0x00000000        0x0 build/pic32mz_ef_sk/production/_ext/29024758/logging.o
 .reginfo       0x00000000       0x18 build/pic32mz_ef_sk/production/_ext/29024758/logging.o
 .text.wolfSSL_SetLoggingCb
                0x00000000        0x8 build/pic32mz_ef_sk/production/_ext/29024758/logging.o
 .text.wolfSSL_Debugging_ON
                0x00000000        0x8 build/pic32mz_ef_sk/production/_ext/29024758/logging.o
 .text.wolfSSL_Debugging_OFF
                0x00000000        0x8 build/pic32mz_ef_sk/production/_ext/29024758/logging.o
 .text          0x00000000        0x0 build/pic32mz_ef_sk/production/_ext/29024758/memory.o
 .data          0x00000000        0x0 build/pic32mz_ef_sk/production/_ext/29024758/memory.o
 .bss           0x00000000        0x0 build/pic32mz_ef_sk/production/_ext/29024758/memory.o
 .reginfo       0x00000000       0x18 build/pic32mz_ef_sk/production/_ext/29024758/memory.o
 .text.wolfSSL_SetAllocators
                0x00000000       0x38 build/pic32mz_ef_sk/production/_ext/29024758/memory.o
 .text.wolfSSL_GetAllocators
                0x00000000       0x30 build/pic32mz_ef_sk/production/_ext/29024758/memory.o
 .text.wolfSSL_Malloc
                0x00000000       0x38 build/pic32mz_ef_sk/production/_ext/29024758/memory.o
 .text.wolfSSL_Free
                0x00000000       0x38 build/pic32mz_ef_sk/production/_ext/29024758/memory.o
 .text.wolfSSL_Realloc
                0x00000000       0x38 build/pic32mz_ef_sk/production/_ext/29024758/memory.o
 .text          0x00000000        0x0 build/pic32mz_ef_sk/production/_ext/29024758/wc_port.o
 .data          0x00000000        0x0 build/pic32mz_ef_sk/production/_ext/29024758/wc_port.o
 .bss           0x00000000        0x0 build/pic32mz_ef_sk/production/_ext/29024758/wc_port.o
 .reginfo       0x00000000       0x18 build/pic32mz_ef_sk/production/_ext/29024758/wc_port.o
 .text.wolfCrypt_Init
                0x00000000       0x1c build/pic32mz_ef_sk/production/_ext/29024758/wc_port.o
 .text.wolfCrypt_Cleanup
                0x00000000       0x18 build/pic32mz_ef_sk/production/_ext/29024758/wc_port.o
 .text.wc_InitAndAllocMutex
                0x00000000       0x1c build/pic32mz_ef_sk/production/_ext/29024758/wc_port.o
 .text.wc_InitMutex
                0x00000000        0x8 build/pic32mz_ef_sk/production/_ext/29024758/wc_port.o
 .text.wc_FreeMutex
                0x00000000        0x8 build/pic32mz_ef_sk/production/_ext/29024758/wc_port.o
 .text.wc_LockMutex
                0x00000000        0x8 build/pic32mz_ef_sk/production/_ext/29024758/wc_port.o
 .text.wc_UnLockMutex
                0x00000000        0x8 build/pic32mz_ef_sk/production/_ext/29024758/wc_port.o
 .text          0x00000000        0x0 build/pic32mz_ef_sk/production/_ext/29024758/wolfmath.o
 .data          0x00000000        0x0 build/pic32mz_ef_sk/production/_ext/29024758/wolfmath.o
 .bss           0x00000000        0x0 build/pic32mz_ef_sk/production/_ext/29024758/wolfmath.o
 .reginfo       0x00000000       0x18 build/pic32mz_ef_sk/production/_ext/29024758/wolfmath.o
 .text.get_digit_count
                0x00000000       0x18 build/pic32mz_ef_sk/production/_ext/29024758/wolfmath.o
 .text.get_digit
                0x00000000       0x40 build/pic32mz_ef_sk/production/_ext/29024758/wolfmath.o
 .text.get_rand_digit
                0x00000000       0x1c build/pic32mz_ef_sk/production/_ext/29024758/wolfmath.o
 .rodata        0x00000000        0x8 build/pic32mz_ef_sk/production/_ext/29024758/wolfmath.o
 .text          0x00000000        0x0 build/pic32mz_ef_sk/production/_ext/1697634946/drv_ethmac.o
 .bss           0x00000000        0x0 build/pic32mz_ef_sk/production/_ext/1697634946/drv_ethmac.o
 .reginfo       0x00000000       0x18 build/pic32mz_ef_sk/production/_ext/1697634946/drv_ethmac.o
 .text          0x00000000        0x0 build/pic32mz_ef_sk/production/_ext/1697634946/drv_ethmac_lib.o
 .data          0x00000000        0x0 build/pic32mz_ef_sk/production/_ext/1697634946/drv_ethmac_lib.o
 .bss           0x00000000        0x0 build/pic32mz_ef_sk/production/_ext/1697634946/drv_ethmac_lib.o
 .reginfo       0x00000000       0x18 build/pic32mz_ef_sk/production/_ext/1697634946/drv_ethmac_lib.o
 .text.DRV_ETHMAC_LibDescriptorsPoolRemove
                0x00000000       0xc4 build/pic32mz_ef_sk/production/_ext/1697634946/drv_ethmac_lib.o
 .text.DRV_ETHMAC_LibTxSendBuffer
                0x00000000       0xe4 build/pic32mz_ef_sk/production/_ext/1697634946/drv_ethmac_lib.o
 .text.DRV_ETHMAC_LibTxGetBufferStatus
                0x00000000       0x84 build/pic32mz_ef_sk/production/_ext/1697634946/drv_ethmac_lib.o
 .text.DRV_ETHMAC_LibRxGetBuffer
                0x00000000       0x3c build/pic32mz_ef_sk/production/_ext/1697634946/drv_ethmac_lib.o
 .text          0x00000000        0x0 build/pic32mz_ef_sk/production/_ext/521481140/drv_ethphy.o
 .data          0x00000000        0x0 build/pic32mz_ef_sk/production/_ext/521481140/drv_ethphy.o
 .reginfo       0x00000000       0x18 build/pic32mz_ef_sk/production/_ext/521481140/drv_ethphy.o
 .text          0x00000000        0x0 build/pic32mz_ef_sk/production/_ext/521481140/drv_extphy_smsc8740.o
 .data          0x00000000        0x0 build/pic32mz_ef_sk/production/_ext/521481140/drv_extphy_smsc8740.o
 .bss           0x00000000        0x0 build/pic32mz_ef_sk/production/_ext/521481140/drv_extphy_smsc8740.o
 .reginfo       0x00000000       0x18 build/pic32mz_ef_sk/production/_ext/521481140/drv_extphy_smsc8740.o
 .text          0x00000000        0x0 build/pic32mz_ef_sk/production/_ext/1470245908/drv_miim.o
 .data          0x00000000        0x0 build/pic32mz_ef_sk/production/_ext/1470245908/drv_miim.o
 .reginfo       0x00000000       0x18 build/pic32mz_ef_sk/production/_ext/1470245908/drv_miim.o
 .text.Helper_SingleListInitialize
                0x00000000       0x10 build/pic32mz_ef_sk/production/_ext/1470245908/drv_miim.o
 .text          0x00000000        0x0 build/pic32mz_ef_sk/production/_ext/184581597/drv_nvm.o
 .data          0x00000000        0x0 build/pic32mz_ef_sk/production/_ext/184581597/drv_nvm.o
 .bss           0x00000000        0x0 build/pic32mz_ef_sk/production/_ext/184581597/drv_nvm.o
 .reginfo       0x00000000       0x18 build/pic32mz_ef_sk/production/_ext/184581597/drv_nvm.o
 .text.DRV_NVM_Deinitialize
                0x00000000       0x5c build/pic32mz_ef_sk/production/_ext/184581597/drv_nvm.o
 .text.DRV_NVM_Status
                0x00000000       0x18 build/pic32mz_ef_sk/production/_ext/184581597/drv_nvm.o
 .text.DRV_NVM_Write
                0x00000000       0x78 build/pic32mz_ef_sk/production/_ext/184581597/drv_nvm.o
 .text.DRV_NVM_IsWriteProtected
                0x00000000        0x8 build/pic32mz_ef_sk/production/_ext/184581597/drv_nvm.o
 .text          0x00000000        0x0 build/pic32mz_ef_sk/production/_ext/184581597/drv_nvm_erasewrite.o
 .data          0x00000000        0x0 build/pic32mz_ef_sk/production/_ext/184581597/drv_nvm_erasewrite.o
 .bss           0x00000000        0x0 build/pic32mz_ef_sk/production/_ext/184581597/drv_nvm_erasewrite.o
 .reginfo       0x00000000       0x18 build/pic32mz_ef_sk/production/_ext/184581597/drv_nvm_erasewrite.o
 .text          0x00000000        0x0 build/pic32mz_ef_sk/production/_ext/941160041/drv_tmr.o
 .data          0x00000000        0x0 build/pic32mz_ef_sk/production/_ext/941160041/drv_tmr.o
 .reginfo       0x00000000       0x18 build/pic32mz_ef_sk/production/_ext/941160041/drv_tmr.o
 .text.DRV_TMR_Deinitialize
                0x00000000       0x54 build/pic32mz_ef_sk/production/_ext/941160041/drv_tmr.o
 .text.DRV_TMR_Status
                0x00000000       0x28 build/pic32mz_ef_sk/production/_ext/941160041/drv_tmr.o
 .text.DRV_TMR_ClientStatus
                0x00000000       0x44 build/pic32mz_ef_sk/production/_ext/941160041/drv_tmr.o
 .text.DRV_TMR_CounterValueSet
                0x00000000       0x60 build/pic32mz_ef_sk/production/_ext/941160041/drv_tmr.o
 .text.DRV_TMR_CounterClear
                0x00000000       0x58 build/pic32mz_ef_sk/production/_ext/941160041/drv_tmr.o
 .text.DRV_TMR_AlarmPeriodSet
                0x00000000       0xb0 build/pic32mz_ef_sk/production/_ext/941160041/drv_tmr.o
 .text.DRV_TMR_AlarmPeriodGet
                0x00000000       0x3c build/pic32mz_ef_sk/production/_ext/941160041/drv_tmr.o
 .text.DRV_TMR_AlarmDeregister
                0x00000000       0x60 build/pic32mz_ef_sk/production/_ext/941160041/drv_tmr.o
 .text.DRV_TMR_Stop
                0x00000000       0x7c build/pic32mz_ef_sk/production/_ext/941160041/drv_tmr.o
 .text.DRV_TMR_AlarmHasElapsed
                0x00000000       0x3c build/pic32mz_ef_sk/production/_ext/941160041/drv_tmr.o
 .text.DRV_TMR_OperationModeGet
                0x00000000       0x3c build/pic32mz_ef_sk/production/_ext/941160041/drv_tmr.o
 .text.DRV_TMR_DividerRangeGet
                0x00000000       0x74 build/pic32mz_ef_sk/production/_ext/941160041/drv_tmr.o
 .text.DRV_TMR_GateModeSet
                0x00000000       0x6c build/pic32mz_ef_sk/production/_ext/941160041/drv_tmr.o
 .text.DRV_TMR_GateModeClear
                0x00000000       0x6c build/pic32mz_ef_sk/production/_ext/941160041/drv_tmr.o
 .text.DRV_TMR_ClockSet
                0x00000000       0xa4 build/pic32mz_ef_sk/production/_ext/941160041/drv_tmr.o
 .text.DRV_TMR_PrescalerGet
                0x00000000      0x130 build/pic32mz_ef_sk/production/_ext/941160041/drv_tmr.o
 .text          0x00000000        0x0 build/pic32mz_ef_sk/production/_ext/821589181/drv_usart.o
 .data          0x00000000        0x0 build/pic32mz_ef_sk/production/_ext/821589181/drv_usart.o
 .bss           0x00000000        0x0 build/pic32mz_ef_sk/production/_ext/821589181/drv_usart.o
 .reginfo       0x00000000       0x18 build/pic32mz_ef_sk/production/_ext/821589181/drv_usart.o
 .text.DRV_USART_Deinitialize
                0x00000000      0x130 build/pic32mz_ef_sk/production/_ext/821589181/drv_usart.o
 .text.DRV_USART_Status
                0x00000000       0x78 build/pic32mz_ef_sk/production/_ext/821589181/drv_usart.o
 .text.DRV_USART_ByteTransmitCallbackSet
                0x00000000       0x3c build/pic32mz_ef_sk/production/_ext/821589181/drv_usart.o
 .text.DRV_USART_ByteReceiveCallbackSet
                0x00000000       0x3c build/pic32mz_ef_sk/production/_ext/821589181/drv_usart.o
 .text.DRV_USART_ByteErrorCallbackSet
                0x00000000       0x3c build/pic32mz_ef_sk/production/_ext/821589181/drv_usart.o
 .text.DRV_USART_ErrorGet
                0x00000000       0x48 build/pic32mz_ef_sk/production/_ext/821589181/drv_usart.o
 .text.DRV_USART_TransferStatus
                0x00000000       0x84 build/pic32mz_ef_sk/production/_ext/821589181/drv_usart.o
 .text._DRV_USART_ClientBufferQueueObjectsRemove
                0x00000000      0x220 build/pic32mz_ef_sk/production/_ext/821589181/drv_usart.o
 .text.DRV_USART_Close
                0x00000000       0xfc build/pic32mz_ef_sk/production/_ext/821589181/drv_usart.o
 .text._DRV_USART_ByteTransmitTasks
                0x00000000       0x84 build/pic32mz_ef_sk/production/_ext/821589181/drv_usart.o
 .text._DRV_USART_ByteReceiveTasks
                0x00000000       0x6c build/pic32mz_ef_sk/production/_ext/821589181/drv_usart.o
 .text._DRV_USART_ByteErrorTasks
                0x00000000       0x84 build/pic32mz_ef_sk/production/_ext/821589181/drv_usart.o
 .text          0x00000000        0x0 build/pic32mz_ef_sk/production/_ext/821589181/drv_usart_buffer_queue.o
 .data          0x00000000        0x0 build/pic32mz_ef_sk/production/_ext/821589181/drv_usart_buffer_queue.o
 .bss           0x00000000        0x0 build/pic32mz_ef_sk/production/_ext/821589181/drv_usart_buffer_queue.o
 .reginfo       0x00000000       0x18 build/pic32mz_ef_sk/production/_ext/821589181/drv_usart_buffer_queue.o
 .text.DRV_USART_AddressedBufferAddWrite
                0x00000000      0x2b0 build/pic32mz_ef_sk/production/_ext/821589181/drv_usart_buffer_queue.o
 .text.DRV_USART_BufferProcessedSizeGet
                0x00000000       0x4c build/pic32mz_ef_sk/production/_ext/821589181/drv_usart_buffer_queue.o
 .text.DRV_USART_BufferCompletedBytesGet
                0x00000000       0x48 build/pic32mz_ef_sk/production/_ext/821589181/drv_usart_buffer_queue.o
 .text.DRV_USART_BufferRemove
                0x00000000      0x1e4 build/pic32mz_ef_sk/production/_ext/821589181/drv_usart_buffer_queue.o
 .text          0x00000000        0x0 build/pic32mz_ef_sk/production/_ext/821589181/drv_usart_read_write.o
 .data          0x00000000        0x0 build/pic32mz_ef_sk/production/_ext/821589181/drv_usart_read_write.o
 .bss           0x00000000        0x0 build/pic32mz_ef_sk/production/_ext/821589181/drv_usart_read_write.o
 .reginfo       0x00000000       0x18 build/pic32mz_ef_sk/production/_ext/821589181/drv_usart_read_write.o
 .text.DRV_USART_Write
                0x00000000      0x250 build/pic32mz_ef_sk/production/_ext/821589181/drv_usart_read_write.o
 .text          0x00000000        0x0 build/pic32mz_ef_sk/production/_ext/871719959/net_pres.o
 .data          0x00000000        0x0 build/pic32mz_ef_sk/production/_ext/871719959/net_pres.o
 .bss           0x00000000        0x0 build/pic32mz_ef_sk/production/_ext/871719959/net_pres.o
 .reginfo       0x00000000       0x18 build/pic32mz_ef_sk/production/_ext/871719959/net_pres.o
 .text.NET_PRES_Deinitialize
                0x00000000      0x144 build/pic32mz_ef_sk/production/_ext/871719959/net_pres.o
 .text.NET_PRES_Reinitialize
                0x00000000       0x30 build/pic32mz_ef_sk/production/_ext/871719959/net_pres.o
 .text.NET_PRES_SocketBind
                0x00000000       0x84 build/pic32mz_ef_sk/production/_ext/871719959/net_pres.o
 .text.NET_PRES_SocketRemoteBind
                0x00000000       0x84 build/pic32mz_ef_sk/production/_ext/871719959/net_pres.o
 .text.NET_PRES_SocketOptionsGet
                0x00000000       0x84 build/pic32mz_ef_sk/production/_ext/871719959/net_pres.o
 .text.NET_PRES_SocketWasReset
                0x00000000       0x84 build/pic32mz_ef_sk/production/_ext/871719959/net_pres.o
 .text.NET_PRES_SocketDisconnect
                0x00000000       0xe0 build/pic32mz_ef_sk/production/_ext/871719959/net_pres.o
 .text.NET_PRES_SocketConnect
                0x00000000       0x84 build/pic32mz_ef_sk/production/_ext/871719959/net_pres.o
 .text.NET_PRES_SocketInfoGet
                0x00000000       0x84 build/pic32mz_ef_sk/production/_ext/871719959/net_pres.o
 .text.NET_PRES_SocketPeek
                0x00000000       0xcc build/pic32mz_ef_sk/production/_ext/871719959/net_pres.o
 .text.NET_PRES_SocketDiscard
                0x00000000       0x90 build/pic32mz_ef_sk/production/_ext/871719959/net_pres.o
 .text.NET_PRES_SocketSignalHandlerDeregister
                0x00000000       0x84 build/pic32mz_ef_sk/production/_ext/871719959/net_pres.o
 .text.NET_PRES_SocketIsNegotiatingEncryption
                0x00000000       0x5c build/pic32mz_ef_sk/production/_ext/871719959/net_pres.o
 .text.NET_PRES_SocketEncryptSocket
                0x00000000       0x80 build/pic32mz_ef_sk/production/_ext/871719959/net_pres.o
 .text.NET_PRES_SocketIsOpenModeSupported
                0x00000000      0x144 build/pic32mz_ef_sk/production/_ext/871719959/net_pres.o
 .text.NET_PRES_Status
                0x00000000       0x2c build/pic32mz_ef_sk/production/_ext/871719959/net_pres.o
 .text.NET_PRES_SocketLastError
                0x00000000       0x64 build/pic32mz_ef_sk/production/_ext/871719959/net_pres.o
 .text.NET_PRES_SocketGetTransportHandle
                0x00000000       0x64 build/pic32mz_ef_sk/production/_ext/871719959/net_pres.o
 .text          0x00000000        0x0 build/pic32mz_ef_sk/production/_ext/308321468/osal_freertos.o
 .data          0x00000000        0x0 build/pic32mz_ef_sk/production/_ext/308321468/osal_freertos.o
 .bss           0x00000000        0x0 build/pic32mz_ef_sk/production/_ext/308321468/osal_freertos.o
 .reginfo       0x00000000       0x18 build/pic32mz_ef_sk/production/_ext/308321468/osal_freertos.o
 .text.OSAL_SEM_GetCount
                0x00000000       0x2c build/pic32mz_ef_sk/production/_ext/308321468/osal_freertos.o
 .text.OSAL_MUTEX_Delete
                0x00000000       0x3c build/pic32mz_ef_sk/production/_ext/308321468/osal_freertos.o
 .rodata        0x00000000        0xc build/pic32mz_ef_sk/production/_ext/308321468/osal_freertos.o
 .text.OSAL_Name
                0x00000000        0xc build/pic32mz_ef_sk/production/_ext/308321468/osal_freertos.o
 .text.OSAL_Initialize
                0x00000000        0x8 build/pic32mz_ef_sk/production/_ext/308321468/osal_freertos.o
 .text          0x00000000        0x0 build/pic32mz_ef_sk/production/_ext/1891376032/sys_command.o
 .data          0x00000000        0x0 build/pic32mz_ef_sk/production/_ext/1891376032/sys_command.o
 .reginfo       0x00000000       0x18 build/pic32mz_ef_sk/production/_ext/1891376032/sys_command.o
 .text.SYS_CMD_RegisterCallback
                0x00000000       0x5c build/pic32mz_ef_sk/production/_ext/1891376032/sys_command.o
 .text.SYS_CMD_READY_TO_WRITE
                0x00000000       0x88 build/pic32mz_ef_sk/production/_ext/1891376032/sys_command.o
 .text          0x00000000        0x0 build/pic32mz_ef_sk/production/_ext/598853952/sys_buffer.o
 .data          0x00000000        0x0 build/pic32mz_ef_sk/production/_ext/598853952/sys_buffer.o
 .bss           0x00000000        0x0 build/pic32mz_ef_sk/production/_ext/598853952/sys_buffer.o
 .reginfo       0x00000000       0x18 build/pic32mz_ef_sk/production/_ext/598853952/sys_buffer.o
 .text.BUFFER_Initialize
                0x00000000       0x48 build/pic32mz_ef_sk/production/_ext/598853952/sys_buffer.o
 .text.BUFFER_Reset
                0x00000000       0x18 build/pic32mz_ef_sk/production/_ext/598853952/sys_buffer.o
 .text.BUFFER_WriteByte
                0x00000000       0x2c build/pic32mz_ef_sk/production/_ext/598853952/sys_buffer.o
 .text.BUFFER_WriteDoubleByte
                0x00000000       0x4c build/pic32mz_ef_sk/production/_ext/598853952/sys_buffer.o
 .text.BUFFER_ReadByte
                0x00000000       0x24 build/pic32mz_ef_sk/production/_ext/598853952/sys_buffer.o
 .text.BUFFER_ReadDoubleByte
                0x00000000       0x2c build/pic32mz_ef_sk/production/_ext/598853952/sys_buffer.o
 .text.BUFFER_Flush
                0x00000000       0x14 build/pic32mz_ef_sk/production/_ext/598853952/sys_buffer.o
 .text          0x00000000        0x0 build/pic32mz_ef_sk/production/_ext/598853952/sys_queue.o
 .data          0x00000000        0x0 build/pic32mz_ef_sk/production/_ext/598853952/sys_queue.o
 .bss           0x00000000        0x0 build/pic32mz_ef_sk/production/_ext/598853952/sys_queue.o
 .reginfo       0x00000000       0x18 build/pic32mz_ef_sk/production/_ext/598853952/sys_queue.o
 .text.QUEUE_Initialize
                0x00000000       0x18 build/pic32mz_ef_sk/production/_ext/598853952/sys_queue.o
 .text.QUEUE_Reset
                0x00000000       0x14 build/pic32mz_ef_sk/production/_ext/598853952/sys_queue.o
 .text.QUEUE_Push
                0x00000000       0xc0 build/pic32mz_ef_sk/production/_ext/598853952/sys_queue.o
 .text.QUEUE_Pop
                0x00000000       0x40 build/pic32mz_ef_sk/production/_ext/598853952/sys_queue.o
 .text          0x00000000        0x0 build/pic32mz_ef_sk/production/_ext/1434663852/sys_console.o
 .data          0x00000000        0x0 build/pic32mz_ef_sk/production/_ext/1434663852/sys_console.o
 .reginfo       0x00000000       0x18 build/pic32mz_ef_sk/production/_ext/1434663852/sys_console.o
 .text.SYS_CONSOLE_Deinitialize
                0x00000000       0x44 build/pic32mz_ef_sk/production/_ext/1434663852/sys_console.o
 .text.SYS_CONSOLE_Reinitialize
                0x00000000       0x64 build/pic32mz_ef_sk/production/_ext/1434663852/sys_console.o
 .text.SYS_CONSOLE_RegisterCallback
                0x00000000       0x48 build/pic32mz_ef_sk/production/_ext/1434663852/sys_console.o
 .text          0x00000000        0x0 build/pic32mz_ef_sk/production/_ext/1434663852/sys_console_uart.o
 .reginfo       0x00000000       0x18 build/pic32mz_ef_sk/production/_ext/1434663852/sys_console_uart.o
 .text          0x00000000        0x0 build/pic32mz_ef_sk/production/_ext/2137108136/sys_debug.o
 .data          0x00000000        0x0 build/pic32mz_ef_sk/production/_ext/2137108136/sys_debug.o
 .reginfo       0x00000000       0x18 build/pic32mz_ef_sk/production/_ext/2137108136/sys_debug.o
 .text.SYS_DEBUG_Reinitialize
                0x00000000       0x2c build/pic32mz_ef_sk/production/_ext/2137108136/sys_debug.o
 .text.SYS_DEBUG_Deinitialize
                0x00000000       0x1c build/pic32mz_ef_sk/production/_ext/2137108136/sys_debug.o
 .text.SYS_DEBUG_Tasks
                0x00000000        0x8 build/pic32mz_ef_sk/production/_ext/2137108136/sys_debug.o
 .text.SYS_DEBUG_Status
                0x00000000        0xc build/pic32mz_ef_sk/production/_ext/2137108136/sys_debug.o
 .text.SYS_DEBUG_ErrorLevelSet
                0x00000000        0x8 build/pic32mz_ef_sk/production/_ext/2137108136/sys_debug.o
 .text          0x00000000        0x0 build/pic32mz_ef_sk/production/_ext/1750042194/sys_fs.o
 .data          0x00000000        0x0 build/pic32mz_ef_sk/production/_ext/1750042194/sys_fs.o
 .bss           0x00000000        0x0 build/pic32mz_ef_sk/production/_ext/1750042194/sys_fs.o
 .reginfo       0x00000000       0x18 build/pic32mz_ef_sk/production/_ext/1750042194/sys_fs.o
 .text.SYS_FS_EventHandlerSet
                0x00000000       0x10 build/pic32mz_ef_sk/production/_ext/1750042194/sys_fs.o
 .text._SYS_FS_StringWildCardCompare
                0x00000000       0xb0 build/pic32mz_ef_sk/production/_ext/1750042194/sys_fs.o
 .text.SYS_FS_Unmount
                0x00000000       0xcc build/pic32mz_ef_sk/production/_ext/1750042194/sys_fs.o
 .text.SYS_FS_FileWrite
                0x00000000       0xec build/pic32mz_ef_sk/production/_ext/1750042194/sys_fs.o
 .text.SYS_FS_FileEOF
                0x00000000       0x90 build/pic32mz_ef_sk/production/_ext/1750042194/sys_fs.o
 .text.SYS_FS_Error
                0x00000000        0x8 build/pic32mz_ef_sk/production/_ext/1750042194/sys_fs.o
 .text.SYS_FS_FileError
                0x00000000       0x20 build/pic32mz_ef_sk/production/_ext/1750042194/sys_fs.o
 .text.SYS_FS_DirectoryMake
                0x00000000      0x110 build/pic32mz_ef_sk/production/_ext/1750042194/sys_fs.o
 .text.SYS_FS_DirectoryChange
                0x00000000      0x110 build/pic32mz_ef_sk/production/_ext/1750042194/sys_fs.o
 .text.SYS_FS_FileDirectoryRemove
                0x00000000      0x110 build/pic32mz_ef_sk/production/_ext/1750042194/sys_fs.o
 .text.SYS_FS_CurrentDriveGet
                0x00000000       0x60 build/pic32mz_ef_sk/production/_ext/1750042194/sys_fs.o
 .text.SYS_FS_CurrentDriveSet
                0x00000000       0xa8 build/pic32mz_ef_sk/production/_ext/1750042194/sys_fs.o
 .text.SYS_FS_DriveLabelGet
                0x00000000      0x128 build/pic32mz_ef_sk/production/_ext/1750042194/sys_fs.o
 .text.SYS_FS_DriveLabelSet
                0x00000000      0x140 build/pic32mz_ef_sk/production/_ext/1750042194/sys_fs.o
 .text.SYS_FS_FileTruncate
                0x00000000       0xc4 build/pic32mz_ef_sk/production/_ext/1750042194/sys_fs.o
 .text.SYS_FS_CurrentWorkingDirectoryGet
                0x00000000      0x2cc build/pic32mz_ef_sk/production/_ext/1750042194/sys_fs.o
 .text.SYS_FS_FileDirectoryModeSet
                0x00000000      0x120 build/pic32mz_ef_sk/production/_ext/1750042194/sys_fs.o
 .text.SYS_FS_FileDirectoryTimeSet
                0x00000000      0x140 build/pic32mz_ef_sk/production/_ext/1750042194/sys_fs.o
 .text.SYS_FS_FileDirectoryRenameMove
                0x00000000      0x180 build/pic32mz_ef_sk/production/_ext/1750042194/sys_fs.o
 .text.SYS_FS_FileSync
                0x00000000       0xc4 build/pic32mz_ef_sk/production/_ext/1750042194/sys_fs.o
 .text.SYS_FS_FileStringGet
                0x00000000       0xe8 build/pic32mz_ef_sk/production/_ext/1750042194/sys_fs.o
 .text.SYS_FS_FileCharacterPut
                0x00000000       0xd4 build/pic32mz_ef_sk/production/_ext/1750042194/sys_fs.o
 .text.SYS_FS_FileStringPut
                0x00000000       0xd8 build/pic32mz_ef_sk/production/_ext/1750042194/sys_fs.o
 .text.SYS_FS_FilePrintf
                0x00000000       0xb4 build/pic32mz_ef_sk/production/_ext/1750042194/sys_fs.o
 .text.SYS_FS_FileTestError
                0x00000000       0x8c build/pic32mz_ef_sk/production/_ext/1750042194/sys_fs.o
 .text.SYS_FS_DriveFormat
                0x00000000       0xa8 build/pic32mz_ef_sk/production/_ext/1750042194/sys_fs.o
 .text.SYS_FS_DirOpen
                0x00000000      0x1ac build/pic32mz_ef_sk/production/_ext/1750042194/sys_fs.o
 .text.SYS_FS_DirRead
                0x00000000       0xd4 build/pic32mz_ef_sk/production/_ext/1750042194/sys_fs.o
 .text.SYS_FS_DirRewind
                0x00000000       0xc8 build/pic32mz_ef_sk/production/_ext/1750042194/sys_fs.o
 .text.SYS_FS_DirSearch
                0x00000000       0xf8 build/pic32mz_ef_sk/production/_ext/1750042194/sys_fs.o
 .text.SYS_FS_DirClose
                0x00000000       0x90 build/pic32mz_ef_sk/production/_ext/1750042194/sys_fs.o
 .text.SYS_FS_DrivePartition
                0x00000000       0xa8 build/pic32mz_ef_sk/production/_ext/1750042194/sys_fs.o
 .text.SYS_FS_DriveSectorGet
                0x00000000      0x12c build/pic32mz_ef_sk/production/_ext/1750042194/sys_fs.o
 .text          0x00000000        0x0 build/pic32mz_ef_sk/production/_ext/1750042194/sys_fs_media_manager.o
 .bss           0x00000000        0x0 build/pic32mz_ef_sk/production/_ext/1750042194/sys_fs_media_manager.o
 .reginfo       0x00000000       0x18 build/pic32mz_ef_sk/production/_ext/1750042194/sys_fs_media_manager.o
 .text.SYS_FS_MEDIA_MANAGER_DeRegister
                0x00000000       0x18 build/pic32mz_ef_sk/production/_ext/1750042194/sys_fs_media_manager.o
 .text.SYS_FS_MEDIA_MANAGER_SectorRead
                0x00000000       0x9c build/pic32mz_ef_sk/production/_ext/1750042194/sys_fs_media_manager.o
 .text.SYS_FS_MEDIA_MANAGER_SectorWrite
                0x00000000      0x2b8 build/pic32mz_ef_sk/production/_ext/1750042194/sys_fs_media_manager.o
 .text.SYS_FS_MEDIA_MANAGER_RegisterTransferHandler
                0x00000000        0xc build/pic32mz_ef_sk/production/_ext/1750042194/sys_fs_media_manager.o
 .text.SYS_FS_MEDIA_MANAGER_GetMediaGeometry
                0x00000000       0x34 build/pic32mz_ef_sk/production/_ext/1750042194/sys_fs_media_manager.o
 .bss.gSYSFSMediaBlockBuffer.gSYSFSMediaBlockBuffer
                0x00000000      0x800 build/pic32mz_ef_sk/production/_ext/1750042194/sys_fs_media_manager.o
 .text          0x00000000        0x0 build/pic32mz_ef_sk/production/_ext/614935175/mpfs.o
 .reginfo       0x00000000       0x18 build/pic32mz_ef_sk/production/_ext/614935175/mpfs.o
 .text          0x00000000        0x0 build/pic32mz_ef_sk/production/_ext/1042686532/sys_int_pic32.o
 .data          0x00000000        0x0 build/pic32mz_ef_sk/production/_ext/1042686532/sys_int_pic32.o
 .bss           0x00000000        0x0 build/pic32mz_ef_sk/production/_ext/1042686532/sys_int_pic32.o
 .reginfo       0x00000000       0x18 build/pic32mz_ef_sk/production/_ext/1042686532/sys_int_pic32.o
 .text.SYS_INT_StatusGetAndDisable
                0x00000000       0x1c build/pic32mz_ef_sk/production/_ext/1042686532/sys_int_pic32.o
 .text.SYS_INT_StatusRestore
                0x00000000       0x1c build/pic32mz_ef_sk/production/_ext/1042686532/sys_int_pic32.o
 .text.SYS_INT_ExternalInterruptTriggerSet
                0x00000000       0x28 build/pic32mz_ef_sk/production/_ext/1042686532/sys_int_pic32.o
 .text          0x00000000        0x0 build/pic32mz_ef_sk/production/_ext/470001640/sys_random.o
 .data          0x00000000        0x0 build/pic32mz_ef_sk/production/_ext/470001640/sys_random.o
 .reginfo       0x00000000       0x18 build/pic32mz_ef_sk/production/_ext/470001640/sys_random.o
 .text.SYS_RANDOM_Deinitialize
                0x00000000        0xc build/pic32mz_ef_sk/production/_ext/470001640/sys_random.o
 .text.SYS_RANDOM_PseudoSeedSet
                0x00000000       0x1c build/pic32mz_ef_sk/production/_ext/470001640/sys_random.o
 COMMON         0x00000000      0x108 build/pic32mz_ef_sk/production/_ext/470001640/sys_random.o
 .text          0x00000000        0x0 build/pic32mz_ef_sk/production/_ext/2110151058/sys_tmr.o
 .data          0x00000000        0x0 build/pic32mz_ef_sk/production/_ext/2110151058/sys_tmr.o
 .reginfo       0x00000000       0x18 build/pic32mz_ef_sk/production/_ext/2110151058/sys_tmr.o
 .text.SYS_TMR_Deinitialize
                0x00000000       0xb0 build/pic32mz_ef_sk/production/_ext/2110151058/sys_tmr.o
 .text.SYS_TMR_Status
                0x00000000       0x20 build/pic32mz_ef_sk/production/_ext/2110151058/sys_tmr.o
 .text.SYS_TMR_ObjectCreate
                0x00000000       0x1c build/pic32mz_ef_sk/production/_ext/2110151058/sys_tmr.o
 .text.SYS_TMR_ObjectReload
                0x00000000       0xa0 build/pic32mz_ef_sk/production/_ext/2110151058/sys_tmr.o
 .text.SYS_TMR_ObjectCountGet
                0x00000000       0xc8 build/pic32mz_ef_sk/production/_ext/2110151058/sys_tmr.o
 .text.SYS_TMR_CallbackSingle
                0x00000000       0x1c build/pic32mz_ef_sk/production/_ext/2110151058/sys_tmr.o
 .text.SYS_TMR_DelayMS
                0x00000000       0x24 build/pic32mz_ef_sk/production/_ext/2110151058/sys_tmr.o
 .text.SYS_TMR_DelayStatusGet
                0x00000000       0x20 build/pic32mz_ef_sk/production/_ext/2110151058/sys_tmr.o
 .text          0x00000000        0x0 build/pic32mz_ef_sk/production/_ext/1886247299/sys_fs_wrapper.o
 .data          0x00000000        0x0 build/pic32mz_ef_sk/production/_ext/1886247299/sys_fs_wrapper.o
 .bss           0x00000000        0x0 build/pic32mz_ef_sk/production/_ext/1886247299/sys_fs_wrapper.o
 .reginfo       0x00000000       0x18 build/pic32mz_ef_sk/production/_ext/1886247299/sys_fs_wrapper.o
 .text.SYS_FS_Unmount_Wrapper
                0x00000000       0x38 build/pic32mz_ef_sk/production/_ext/1886247299/sys_fs_wrapper.o
 .text.SYS_FS_DirOpen_Wrapper
                0x00000000       0x34 build/pic32mz_ef_sk/production/_ext/1886247299/sys_fs_wrapper.o
 .text          0x00000000        0x0 build/pic32mz_ef_sk/production/_ext/1886247299/helpers.o
 .data          0x00000000        0x0 build/pic32mz_ef_sk/production/_ext/1886247299/helpers.o
 .bss           0x00000000        0x0 build/pic32mz_ef_sk/production/_ext/1886247299/helpers.o
 .reginfo       0x00000000       0x18 build/pic32mz_ef_sk/production/_ext/1886247299/helpers.o
 .text.strncpy_m
                0x00000000       0xd8 build/pic32mz_ef_sk/production/_ext/1886247299/helpers.o
 .text          0x00000000        0x0 build/pic32mz_ef_sk/production/_ext/1164207549/ipv4.o
 .data          0x00000000        0x0 build/pic32mz_ef_sk/production/_ext/1164207549/ipv4.o
 .reginfo       0x00000000       0x18 build/pic32mz_ef_sk/production/_ext/1164207549/ipv4.o
 .text.TCPIP_IPV4_PacketFilterSet
                0x00000000       0x44 build/pic32mz_ef_sk/production/_ext/1164207549/ipv4.o
 .text.TCPIP_IPV4_PacketFilterClear
                0x00000000       0x48 build/pic32mz_ef_sk/production/_ext/1164207549/ipv4.o
 .text.TCPIP_IPV4_MacPacketSwitchTxToRx
                0x00000000       0xe4 build/pic32mz_ef_sk/production/_ext/1164207549/ipv4.o
 .text.TCPIP_IPV4_MacPacketTransmit
                0x00000000       0xc0 build/pic32mz_ef_sk/production/_ext/1164207549/ipv4.o
 .text.TCPIP_IPV4_PacketAlloc
                0x00000000       0xc4 build/pic32mz_ef_sk/production/_ext/1164207549/ipv4.o
 .text.TCPIP_IPV4_PacketOptionFieldSet
                0x00000000       0x40 build/pic32mz_ef_sk/production/_ext/1164207549/ipv4.o
 .text.TCPIP_IPV4_PacketOptionListGet
                0x00000000       0x90 build/pic32mz_ef_sk/production/_ext/1164207549/ipv4.o
 .text.TCPIP_IPV4_PacketOptionGet
                0x00000000       0xd8 build/pic32mz_ef_sk/production/_ext/1164207549/ipv4.o
 .text          0x00000000        0x0 build/pic32mz_ef_sk/production/_ext/1164207549/ndp.o
 .data          0x00000000        0x0 build/pic32mz_ef_sk/production/_ext/1164207549/ndp.o
 .reginfo       0x00000000       0x18 build/pic32mz_ef_sk/production/_ext/1164207549/ndp.o
 .text.TCPIP_IPV6_DefaultRouterDelete
                0x00000000       0x70 build/pic32mz_ef_sk/production/_ext/1164207549/ndp.o
 .text          0x00000000        0x0 build/pic32mz_ef_sk/production/_ext/1164207549/ipv6.o
 .data          0x00000000        0x0 build/pic32mz_ef_sk/production/_ext/1164207549/ipv6.o
 .reginfo       0x00000000       0x18 build/pic32mz_ef_sk/production/_ext/1164207549/ipv6.o
 .text.TCPIP_IPV6_Put
                0x00000000       0x30 build/pic32mz_ef_sk/production/_ext/1164207549/ipv6.o
 .text.TCPIP_IPV6_PayloadLengthGet
                0x00000000       0x14 build/pic32mz_ef_sk/production/_ext/1164207549/ipv6.o
 .text.TCPIP_IPV6_MulticastListenerRemove
                0x00000000       0x6c build/pic32mz_ef_sk/production/_ext/1164207549/ipv6.o
 .text.TCPIP_IPV6_DefaultRouterGet
                0x00000000       0x48 build/pic32mz_ef_sk/production/_ext/1164207549/ipv6.o
 .text.TCPIP_IPV6_UniqueLocalUnicastAddressAdd
                0x00000000       0x74 build/pic32mz_ef_sk/production/_ext/1164207549/ipv6.o
 .text.TCPIP_IPV6_DiscardRx
                0x00000000       0x1c build/pic32mz_ef_sk/production/_ext/1164207549/ipv6.o
 .text          0x00000000        0x0 build/pic32mz_ef_sk/production/_ext/1164207549/icmpv6.o
 .data          0x00000000        0x0 build/pic32mz_ef_sk/production/_ext/1164207549/icmpv6.o
 .reginfo       0x00000000       0x18 build/pic32mz_ef_sk/production/_ext/1164207549/icmpv6.o
 .text.TCPIP_ICMPV6_CallbackRegister
                0x00000000       0x58 build/pic32mz_ef_sk/production/_ext/1164207549/icmpv6.o
 .text.TCPIP_ICMPV6_CallbackDeregister
                0x00000000       0x44 build/pic32mz_ef_sk/production/_ext/1164207549/icmpv6.o
 .text.TCPIP_ICMPV6_EchoRequestSend
                0x00000000      0x180 build/pic32mz_ef_sk/production/_ext/1164207549/icmpv6.o
 .text          0x00000000        0x0 build/pic32mz_ef_sk/production/_ext/1164207549/tcp.o
 .data          0x00000000        0x0 build/pic32mz_ef_sk/production/_ext/1164207549/tcp.o
 .bss           0x00000000        0x0 build/pic32mz_ef_sk/production/_ext/1164207549/tcp.o
 .reginfo       0x00000000       0x18 build/pic32mz_ef_sk/production/_ext/1164207549/tcp.o
 .text.TCPIP_TCP_SocketTraceSet
                0x00000000        0x8 build/pic32mz_ef_sk/production/_ext/1164207549/tcp.o
 .text.TCPIP_TCP_Abort
                0x00000000       0x38 build/pic32mz_ef_sk/production/_ext/1164207549/tcp.o
 .text.TCPIP_TCP_SocketsNumberGet
                0x00000000        0x8 build/pic32mz_ef_sk/production/_ext/1164207549/tcp.o
 .text.TCPIP_TCP_FifoTxFreeGet
                0x00000000       0x50 build/pic32mz_ef_sk/production/_ext/1164207549/tcp.o
 .text.TCPIP_TCP_Peek
                0x00000000       0x28 build/pic32mz_ef_sk/production/_ext/1164207549/tcp.o
 .text.TCPIP_TCP_SocketNetSet
                0x00000000       0x68 build/pic32mz_ef_sk/production/_ext/1164207549/tcp.o
 .text.TCPIP_TCP_SourceIPAddressSet
                0x00000000       0x78 build/pic32mz_ef_sk/production/_ext/1164207549/tcp.o
 .text.TCPIP_TCP_IsReady
                0x00000000        0x8 build/pic32mz_ef_sk/production/_ext/1164207549/tcp.o
 .text          0x00000000        0x0 build/pic32mz_ef_sk/production/_ext/1164207549/udp.o
 .data          0x00000000        0x0 build/pic32mz_ef_sk/production/_ext/1164207549/udp.o
 .bss           0x00000000        0x0 build/pic32mz_ef_sk/production/_ext/1164207549/udp.o
 .reginfo       0x00000000       0x18 build/pic32mz_ef_sk/production/_ext/1164207549/udp.o
 .text.TCPIP_UDP_Put
                0x00000000       0x24 build/pic32mz_ef_sk/production/_ext/1164207549/udp.o
 .text.TCPIP_UDP_StringPut
                0x00000000       0x60 build/pic32mz_ef_sk/production/_ext/1164207549/udp.o
 .text.TCPIP_UDP_TxCountGet
                0x00000000       0x54 build/pic32mz_ef_sk/production/_ext/1164207549/udp.o
 .text.TCPIP_UDP_SocketNetGet
                0x00000000       0x28 build/pic32mz_ef_sk/production/_ext/1164207549/udp.o
 .text.TCPIP_UDP_SetSplitPayload
                0x00000000       0xa8 build/pic32mz_ef_sk/production/_ext/1164207549/udp.o
 .text.TCPIP_UDP_SocketsNumberGet
                0x00000000        0x8 build/pic32mz_ef_sk/production/_ext/1164207549/udp.o
 .text          0x00000000        0x0 build/pic32mz_ef_sk/production/_ext/1164207549/tcpip_heap_alloc.o
 .data          0x00000000        0x0 build/pic32mz_ef_sk/production/_ext/1164207549/tcpip_heap_alloc.o
 .bss           0x00000000        0x0 build/pic32mz_ef_sk/production/_ext/1164207549/tcpip_heap_alloc.o
 .reginfo       0x00000000       0x18 build/pic32mz_ef_sk/production/_ext/1164207549/tcpip_heap_alloc.o
 .text._TCPIP_HEAP_PointerMapCached
                0x00000000       0x20 build/pic32mz_ef_sk/production/_ext/1164207549/tcpip_heap_alloc.o
 .text          0x00000000        0x0 build/pic32mz_ef_sk/production/_ext/1164207549/tcpip_heap_internal.o
 .data          0x00000000        0x0 build/pic32mz_ef_sk/production/_ext/1164207549/tcpip_heap_internal.o
 .bss           0x00000000        0x0 build/pic32mz_ef_sk/production/_ext/1164207549/tcpip_heap_internal.o
 .reginfo       0x00000000       0x18 build/pic32mz_ef_sk/production/_ext/1164207549/tcpip_heap_internal.o
 .text          0x00000000        0x0 build/pic32mz_ef_sk/production/_ext/1164207549/arp.o
 .data          0x00000000        0x0 build/pic32mz_ef_sk/production/_ext/1164207549/arp.o
 .reginfo       0x00000000       0x18 build/pic32mz_ef_sk/production/_ext/1164207549/arp.o
 .text.TCPIP_ARP_Resolve
                0x00000000       0x78 build/pic32mz_ef_sk/production/_ext/1164207549/arp.o
 .text.TCPIP_ARP_EntrySet
                0x00000000      0x174 build/pic32mz_ef_sk/production/_ext/1164207549/arp.o
 .text.TCPIP_ARP_EntryRemoveAll
                0x00000000       0xe8 build/pic32mz_ef_sk/production/_ext/1164207549/arp.o
 .text.TCPIP_ARP_CacheThresholdSet
                0x00000000       0xa8 build/pic32mz_ef_sk/production/_ext/1164207549/arp.o
 .text          0x00000000        0x0 build/pic32mz_ef_sk/production/_ext/1164207549/dhcp.o
 .data          0x00000000        0x0 build/pic32mz_ef_sk/production/_ext/1164207549/dhcp.o
 .reginfo       0x00000000       0x18 build/pic32mz_ef_sk/production/_ext/1164207549/dhcp.o
 .text.TCPIP_DHCP_IsBound
                0x00000000       0x78 build/pic32mz_ef_sk/production/_ext/1164207549/dhcp.o
 .text.TCPIP_DHCP_IsServerDetected
                0x00000000       0x78 build/pic32mz_ef_sk/production/_ext/1164207549/dhcp.o
 .text.TCPIP_DHCP_RequestTimeoutSet
                0x00000000       0xa4 build/pic32mz_ef_sk/production/_ext/1164207549/dhcp.o
 .text.TCPIP_DHCP_HostNameCallbackRegister
                0x00000000       0xa0 build/pic32mz_ef_sk/production/_ext/1164207549/dhcp.o
 .text          0x00000000        0x0 build/pic32mz_ef_sk/production/_ext/1164207549/dns.o
 .data          0x00000000        0x0 build/pic32mz_ef_sk/production/_ext/1164207549/dns.o
 .reginfo       0x00000000       0x18 build/pic32mz_ef_sk/production/_ext/1164207549/dns.o
 .text.TCPIP_DNS_Send_Query
                0x00000000       0x1c build/pic32mz_ef_sk/production/_ext/1164207549/dns.o
 .text.TCPIP_DNS_IsEnabled
                0x00000000       0x24 build/pic32mz_ef_sk/production/_ext/1164207549/dns.o
 .text          0x00000000        0x0 build/pic32mz_ef_sk/production/_ext/1164207549/http.o
 .data          0x00000000        0x0 build/pic32mz_ef_sk/production/_ext/1164207549/http.o
 .bss           0x00000000        0x0 build/pic32mz_ef_sk/production/_ext/1164207549/http.o
 .reginfo       0x00000000       0x18 build/pic32mz_ef_sk/production/_ext/1164207549/http.o
 .text.TCPIP_HTTP_CurrentConnectionCallbackPosGet
                0x00000000        0x8 build/pic32mz_ef_sk/production/_ext/1164207549/http.o
 .text.TCPIP_HTTP_CurrentConnectionStatusGet
                0x00000000        0x8 build/pic32mz_ef_sk/production/_ext/1164207549/http.o
 .text.TCPIP_HTTP_CurrentConnectionHasArgsGet
                0x00000000        0x8 build/pic32mz_ef_sk/production/_ext/1164207549/http.o
 .text.TCPIP_HTTP_CurrentConnectionByteCountSet
                0x00000000        0x8 build/pic32mz_ef_sk/production/_ext/1164207549/http.o
 .text.TCPIP_HTTP_CurrentConnectionIsAuthorizedGet
                0x00000000        0x8 build/pic32mz_ef_sk/production/_ext/1164207549/http.o
 .text.TCPIP_HTTP_CurrentConnectionIsAuthorizedSet
                0x00000000        0x8 build/pic32mz_ef_sk/production/_ext/1164207549/http.o
 .text.TCPIP_HTTP_CurrentConnectionUserDataSet
                0x00000000        0x8 build/pic32mz_ef_sk/production/_ext/1164207549/http.o
 .text.TCPIP_HTTP_CurrentConnectionUserDataGet
                0x00000000        0x8 build/pic32mz_ef_sk/production/_ext/1164207549/http.o
 .text.TCPIP_HTTP_CurrentConnectionSMSet
                0x00000000        0x8 build/pic32mz_ef_sk/production/_ext/1164207549/http.o
 .text.TCPIP_HTTP_CurrentConnectionSMGet
                0x00000000        0x8 build/pic32mz_ef_sk/production/_ext/1164207549/http.o
 .text.TCPIP_HTTP_CurrentConnectionIndexGet
                0x00000000        0x8 build/pic32mz_ef_sk/production/_ext/1164207549/http.o
 .text.TCPIP_HTTP_CurrentConnectionHandleGet
                0x00000000       0x34 build/pic32mz_ef_sk/production/_ext/1164207549/http.o
 .text.TCPIP_HTTP_ActiveConnectionCountGet
                0x00000000       0x60 build/pic32mz_ef_sk/production/_ext/1164207549/http.o
 .text          0x00000000        0x0 build/pic32mz_ef_sk/production/_ext/1164207549/nbns.o
 .data          0x00000000        0x0 build/pic32mz_ef_sk/production/_ext/1164207549/nbns.o
 .bss           0x00000000        0x0 build/pic32mz_ef_sk/production/_ext/1164207549/nbns.o
 .reginfo       0x00000000       0x18 build/pic32mz_ef_sk/production/_ext/1164207549/nbns.o
 .text          0x00000000        0x0 build/pic32mz_ef_sk/production/_ext/1164207549/smtp.o
 .data          0x00000000        0x0 build/pic32mz_ef_sk/production/_ext/1164207549/smtp.o
 .reginfo       0x00000000       0x18 build/pic32mz_ef_sk/production/_ext/1164207549/smtp.o
 .text          0x00000000        0x0 build/pic32mz_ef_sk/production/_ext/1164207549/sntp.o
 .data          0x00000000        0x0 build/pic32mz_ef_sk/production/_ext/1164207549/sntp.o
 .reginfo       0x00000000       0x18 build/pic32mz_ef_sk/production/_ext/1164207549/sntp.o
 .text.TCPIP_SNTP_CurrTime
                0x00000000      0x104 build/pic32mz_ef_sk/production/_ext/1164207549/sntp.o
 .text.TCPIP_SNTP_UTCSecondsGet
                0x00000000       0x38 build/pic32mz_ef_sk/production/_ext/1164207549/sntp.o
 .text.TCPIP_SNTP_TimeGet
                0x00000000       0x70 build/pic32mz_ef_sk/production/_ext/1164207549/sntp.o
 .text.TCPIP_SNTP_LastErrorGet
                0x00000000        0xc build/pic32mz_ef_sk/production/_ext/1164207549/sntp.o
 .text.TCPIP_SNTP_HandlerRegister
                0x00000000       0x28 build/pic32mz_ef_sk/production/_ext/1164207549/sntp.o
 .text.TCPIP_SNTP_HandlerDeRegister
                0x00000000       0x1c build/pic32mz_ef_sk/production/_ext/1164207549/sntp.o
 .text          0x00000000        0x0 build/pic32mz_ef_sk/production/_ext/1164207549/zero_conf_helper.o
 .data          0x00000000        0x0 build/pic32mz_ef_sk/production/_ext/1164207549/zero_conf_helper.o
 .bss           0x00000000        0x0 build/pic32mz_ef_sk/production/_ext/1164207549/zero_conf_helper.o
 .reginfo       0x00000000       0x18 build/pic32mz_ef_sk/production/_ext/1164207549/zero_conf_helper.o
 .text          0x00000000        0x0 build/pic32mz_ef_sk/production/_ext/1164207549/zero_conf_link_local.o
 .data          0x00000000        0x0 build/pic32mz_ef_sk/production/_ext/1164207549/zero_conf_link_local.o
 .bss           0x00000000        0x0 build/pic32mz_ef_sk/production/_ext/1164207549/zero_conf_link_local.o
 .reginfo       0x00000000       0x18 build/pic32mz_ef_sk/production/_ext/1164207549/zero_conf_link_local.o
 .text.TCPIP_ZCLL_ARPAction
                0x00000000       0x24 build/pic32mz_ef_sk/production/_ext/1164207549/zero_conf_link_local.o
 .text          0x00000000        0x0 build/pic32mz_ef_sk/production/_ext/1164207549/tcpip_announce.o
 .data          0x00000000        0x0 build/pic32mz_ef_sk/production/_ext/1164207549/tcpip_announce.o
 .reginfo       0x00000000       0x18 build/pic32mz_ef_sk/production/_ext/1164207549/tcpip_announce.o
 .text.TCPIP_ANNOUNCE_MessageRequest
                0x00000000       0xd0 build/pic32mz_ef_sk/production/_ext/1164207549/tcpip_announce.o
 .text.TCPIP_ANNOUNCE_CallbackRegister
                0x00000000       0x24 build/pic32mz_ef_sk/production/_ext/1164207549/tcpip_announce.o
 .text          0x00000000        0x0 build/pic32mz_ef_sk/production/_ext/1164207549/tcpip_commands.o
 .data          0x00000000        0x0 build/pic32mz_ef_sk/production/_ext/1164207549/tcpip_commands.o
 .reginfo       0x00000000       0x18 build/pic32mz_ef_sk/production/_ext/1164207549/tcpip_commands.o
 .text          0x00000000        0x0 build/pic32mz_ef_sk/production/_ext/1164207549/hash_fnv.o
 .data          0x00000000        0x0 build/pic32mz_ef_sk/production/_ext/1164207549/hash_fnv.o
 .bss           0x00000000        0x0 build/pic32mz_ef_sk/production/_ext/1164207549/hash_fnv.o
 .reginfo       0x00000000       0x18 build/pic32mz_ef_sk/production/_ext/1164207549/hash_fnv.o
 .text.fnv_32a_hash
                0x00000000       0x5c build/pic32mz_ef_sk/production/_ext/1164207549/hash_fnv.o
 .text          0x00000000        0x0 build/pic32mz_ef_sk/production/_ext/1164207549/oahash.o
 .data          0x00000000        0x0 build/pic32mz_ef_sk/production/_ext/1164207549/oahash.o
 .bss           0x00000000        0x0 build/pic32mz_ef_sk/production/_ext/1164207549/oahash.o
 .reginfo       0x00000000       0x18 build/pic32mz_ef_sk/production/_ext/1164207549/oahash.o
 .text          0x00000000        0x0 build/pic32mz_ef_sk/production/_ext/1164207549/tcpip_helpers.o
 .bss           0x00000000        0x0 build/pic32mz_ef_sk/production/_ext/1164207549/tcpip_helpers.o
 .reginfo       0x00000000       0x18 build/pic32mz_ef_sk/production/_ext/1164207549/tcpip_helpers.o
 .text.TCPIP_Helper_IsPrivateAddress
                0x00000000       0x3c build/pic32mz_ef_sk/production/_ext/1164207549/tcpip_helpers.o
 .text.TCPIP_Helper_SingleListMidAdd
                0x00000000       0x1c build/pic32mz_ef_sk/production/_ext/1164207549/tcpip_helpers.o
 .text.TCPIP_Helper_SingleListNextRemove
                0x00000000       0x58 build/pic32mz_ef_sk/production/_ext/1164207549/tcpip_helpers.o
 .text.TCPIP_Helper_SingleListFind
                0x00000000       0x48 build/pic32mz_ef_sk/production/_ext/1164207549/tcpip_helpers.o
 .text.TCPIP_Helper_ProtectedSingleListMidAdd
                0x00000000       0x78 build/pic32mz_ef_sk/production/_ext/1164207549/tcpip_helpers.o
 .text.TCPIP_Helper_ProtectedSingleListNextRemove
                0x00000000       0x70 build/pic32mz_ef_sk/production/_ext/1164207549/tcpip_helpers.o
 .text.TCPIP_Helper_ProtectedSingleListAppend
                0x00000000       0x60 build/pic32mz_ef_sk/production/_ext/1164207549/tcpip_helpers.o
 .text.TCPIP_Helper_DoubleListFind
                0x00000000       0x48 build/pic32mz_ef_sk/production/_ext/1164207549/tcpip_helpers.o
 .text.TCPIP_Helper_ProtectedDoubleListInitialize
                0x00000000       0x4c build/pic32mz_ef_sk/production/_ext/1164207549/tcpip_helpers.o
 .text.TCPIP_Helper_ProtectedDoubleListDeinitialize
                0x00000000       0x68 build/pic32mz_ef_sk/production/_ext/1164207549/tcpip_helpers.o
 .text.TCPIP_Helper_ProtectedDoubleListHeadAdd
                0x00000000       0x60 build/pic32mz_ef_sk/production/_ext/1164207549/tcpip_helpers.o
 .text.TCPIP_Helper_ProtectedDoubleListTailAdd
                0x00000000       0x60 build/pic32mz_ef_sk/production/_ext/1164207549/tcpip_helpers.o
 .text.TCPIP_Helper_ProtectedDoubleListMidAdd
                0x00000000       0x70 build/pic32mz_ef_sk/production/_ext/1164207549/tcpip_helpers.o
 .text.TCPIP_Helper_ProtectedDoubleListHeadRemove
                0x00000000       0x60 build/pic32mz_ef_sk/production/_ext/1164207549/tcpip_helpers.o
 .text.TCPIP_Helper_ProtectedDoubleListTailRemove
                0x00000000       0x60 build/pic32mz_ef_sk/production/_ext/1164207549/tcpip_helpers.o
 .text.TCPIP_Helper_ProtectedDoubleListMidRemove
                0x00000000       0x60 build/pic32mz_ef_sk/production/_ext/1164207549/tcpip_helpers.o
 .text.TCPIP_Helper_ProtectedDoubleListNodeRemove
                0x00000000       0x60 build/pic32mz_ef_sk/production/_ext/1164207549/tcpip_helpers.o
 .text.TCPIP_Helper_ProtectedDoubleListRemoveAll
                0x00000000       0x58 build/pic32mz_ef_sk/production/_ext/1164207549/tcpip_helpers.o
 .text.TCPIP_Helper_ProtectedDoubleListLock
                0x00000000       0x2c build/pic32mz_ef_sk/production/_ext/1164207549/tcpip_helpers.o
 .text.TCPIP_Helper_ProtectedDoubleListUnlock
                0x00000000       0x2c build/pic32mz_ef_sk/production/_ext/1164207549/tcpip_helpers.o
 .text.TCPIP_Helper_SecurePortGetByIndex
                0x00000000       0x60 build/pic32mz_ef_sk/production/_ext/1164207549/tcpip_helpers.o
 .text.TCPIP_Helper_SecurePortSet
                0x00000000       0xc0 build/pic32mz_ef_sk/production/_ext/1164207549/tcpip_helpers.o
 .data          0x00000000        0x0 build/pic32mz_ef_sk/production/_ext/1164207549/tcpip_helper_c32.o
 .bss           0x00000000        0x0 build/pic32mz_ef_sk/production/_ext/1164207549/tcpip_helper_c32.o
 .reginfo       0x00000000       0x18 build/pic32mz_ef_sk/production/_ext/1164207549/tcpip_helper_c32.o
 .text          0x00000000        0x0 build/pic32mz_ef_sk/production/_ext/1164207549/tcpip_manager.o
 .data          0x00000000        0x0 build/pic32mz_ef_sk/production/_ext/1164207549/tcpip_manager.o
 .reginfo       0x00000000       0x18 build/pic32mz_ef_sk/production/_ext/1164207549/tcpip_manager.o
 .text.TCPIP_STACK_NetMulticastGet
                0x00000000        0x8 build/pic32mz_ef_sk/production/_ext/1164207549/tcpip_manager.o
 .text.TCPIP_STACK_NetMulticastSet
                0x00000000        0x8 build/pic32mz_ef_sk/production/_ext/1164207549/tcpip_manager.o
 .text.TCPIP_STACK_MacToNet
                0x00000000       0x4c build/pic32mz_ef_sk/production/_ext/1164207549/tcpip_manager.o
 .text.TCPIP_STACK_MacToNetIndex
                0x00000000       0x54 build/pic32mz_ef_sk/production/_ext/1164207549/tcpip_manager.o
 .text.TCPIP_STACK_NetAddressDnsSecondSet
                0x00000000       0x30 build/pic32mz_ef_sk/production/_ext/1164207549/tcpip_manager.o
 .text.TCPIP_STACK_NetMACIdGet
                0x00000000       0x28 build/pic32mz_ef_sk/production/_ext/1164207549/tcpip_manager.o
 .text.TCPIP_STACK_ModuleConfigGet
                0x00000000       0x74 build/pic32mz_ef_sk/production/_ext/1164207549/tcpip_manager.o
 .text.TCPIP_STACK_EventsPendingGet
                0x00000000       0x4c build/pic32mz_ef_sk/production/_ext/1164207549/tcpip_manager.o
 .text.TCPIP_STACK_AddressIsOfNetUp
                0x00000000       0x54 build/pic32mz_ef_sk/production/_ext/1164207549/tcpip_manager.o
 .text.TCPIP_STACK_NetMACId
                0x00000000       0x18 build/pic32mz_ef_sk/production/_ext/1164207549/tcpip_manager.o
 .text.TCPIP_STACK_NetToMAC
                0x00000000       0x18 build/pic32mz_ef_sk/production/_ext/1164207549/tcpip_manager.o
 .text.TCPIP_STACK_VersionGet
                0x00000000        0xc build/pic32mz_ef_sk/production/_ext/1164207549/tcpip_manager.o
 .text.TCPIP_STACK_VersionStrGet
                0x00000000        0xc build/pic32mz_ef_sk/production/_ext/1164207549/tcpip_manager.o
 .text.TCPIP_MODULE_SignalFunctionRegister
                0x00000000       0x84 build/pic32mz_ef_sk/production/_ext/1164207549/tcpip_manager.o
 .text.TCPIP_MODULE_SignalFunctionDeregister
                0x00000000       0x1c build/pic32mz_ef_sk/production/_ext/1164207549/tcpip_manager.o
 .text.TCPIP_MODULE_SignalGet
                0x00000000       0x50 build/pic32mz_ef_sk/production/_ext/1164207549/tcpip_manager.o
 .text.TCPIP_STACK_HEAP_Size
                0x00000000       0x34 build/pic32mz_ef_sk/production/_ext/1164207549/tcpip_manager.o
 .text.TCPIP_STACK_HEAP_MaxSize
                0x00000000       0x34 build/pic32mz_ef_sk/production/_ext/1164207549/tcpip_manager.o
 .text.TCPIP_STACK_HEAP_FreeSize
                0x00000000       0x34 build/pic32mz_ef_sk/production/_ext/1164207549/tcpip_manager.o
 .text.TCPIP_STACK_HEAP_LastError
                0x00000000       0x34 build/pic32mz_ef_sk/production/_ext/1164207549/tcpip_manager.o
 .text._TCPIPStackHeapConfig
                0x00000000        0xc build/pic32mz_ef_sk/production/_ext/1164207549/tcpip_manager.o
 .text          0x00000000        0x0 build/pic32mz_ef_sk/production/_ext/1164207549/tcpip_notify.o
 .data          0x00000000        0x0 build/pic32mz_ef_sk/production/_ext/1164207549/tcpip_notify.o
 .bss           0x00000000        0x0 build/pic32mz_ef_sk/production/_ext/1164207549/tcpip_notify.o
 .reginfo       0x00000000       0x18 build/pic32mz_ef_sk/production/_ext/1164207549/tcpip_notify.o
 .text          0x00000000        0x0 build/pic32mz_ef_sk/production/_ext/1164207549/tcpip_packet.o
 .data          0x00000000        0x0 build/pic32mz_ef_sk/production/_ext/1164207549/tcpip_packet.o
 .bss           0x00000000        0x0 build/pic32mz_ef_sk/production/_ext/1164207549/tcpip_packet.o
 .reginfo       0x00000000       0x18 build/pic32mz_ef_sk/production/_ext/1164207549/tcpip_packet.o
 .text.TCPIP_PKT_SegmentAppend
                0x00000000       0x30 build/pic32mz_ef_sk/production/_ext/1164207549/tcpip_packet.o
 .text._TCPIP_PKT_SegmentAlloc
                0x00000000       0xb0 build/pic32mz_ef_sk/production/_ext/1164207549/tcpip_packet.o
 .text._TCPIP_PKT_SegmentFree
                0x00000000       0x48 build/pic32mz_ef_sk/production/_ext/1164207549/tcpip_packet.o
 .text          0x00000000        0x0 build/pic32mz_ef_sk/production/_ext/1107379230/heap_1.o
 .data          0x00000000        0x0 build/pic32mz_ef_sk/production/_ext/1107379230/heap_1.o
 .reginfo       0x00000000       0x18 build/pic32mz_ef_sk/production/_ext/1107379230/heap_1.o
 .text.vPortInitialiseBlocks
                0x00000000        0x8 build/pic32mz_ef_sk/production/_ext/1107379230/heap_1.o
 .text.xPortGetFreeHeapSize
                0x00000000       0x10 build/pic32mz_ef_sk/production/_ext/1107379230/heap_1.o
 .text          0x00000000        0x0 build/pic32mz_ef_sk/production/_ext/1282498061/port.o
 .data          0x00000000        0x0 build/pic32mz_ef_sk/production/_ext/1282498061/port.o
 .reginfo       0x00000000       0x18 build/pic32mz_ef_sk/production/_ext/1282498061/port.o
 .text.vPortEndScheduler
                0x00000000        0x8 build/pic32mz_ef_sk/production/_ext/1282498061/port.o
 .data          0x00000000        0x0 build/pic32mz_ef_sk/production/_ext/1282498061/port_asm.o
 .bss           0x00000000        0x0 build/pic32mz_ef_sk/production/_ext/1282498061/port_asm.o
 .reginfo       0x00000000       0x18 build/pic32mz_ef_sk/production/_ext/1282498061/port_asm.o
 .text          0x00000000        0x0 build/pic32mz_ef_sk/production/_ext/373060831/croutine.o
 .data          0x00000000        0x0 build/pic32mz_ef_sk/production/_ext/373060831/croutine.o
 .bss           0x00000000        0x0 build/pic32mz_ef_sk/production/_ext/373060831/croutine.o
 .reginfo       0x00000000       0x18 build/pic32mz_ef_sk/production/_ext/373060831/croutine.o
 .text          0x00000000        0x0 build/pic32mz_ef_sk/production/_ext/373060831/list.o
 .data          0x00000000        0x0 build/pic32mz_ef_sk/production/_ext/373060831/list.o
 .bss           0x00000000        0x0 build/pic32mz_ef_sk/production/_ext/373060831/list.o
 .reginfo       0x00000000       0x18 build/pic32mz_ef_sk/production/_ext/373060831/list.o
 .text          0x00000000        0x0 build/pic32mz_ef_sk/production/_ext/373060831/queue.o
 .data          0x00000000        0x0 build/pic32mz_ef_sk/production/_ext/373060831/queue.o
 .bss           0x00000000        0x0 build/pic32mz_ef_sk/production/_ext/373060831/queue.o
 .reginfo       0x00000000       0x18 build/pic32mz_ef_sk/production/_ext/373060831/queue.o
 .text.xQueueGenericSendFromISR
                0x00000000       0xf0 build/pic32mz_ef_sk/production/_ext/373060831/queue.o
 .text.xQueueReceiveFromISR
                0x00000000       0xe0 build/pic32mz_ef_sk/production/_ext/373060831/queue.o
 .text.xQueuePeekFromISR
                0x00000000       0x74 build/pic32mz_ef_sk/production/_ext/373060831/queue.o
 .text.uxQueueMessagesWaiting
                0x00000000       0x34 build/pic32mz_ef_sk/production/_ext/373060831/queue.o
 .text.uxQueueSpacesAvailable
                0x00000000       0x38 build/pic32mz_ef_sk/production/_ext/373060831/queue.o
 .text.uxQueueMessagesWaitingFromISR
                0x00000000        0xc build/pic32mz_ef_sk/production/_ext/373060831/queue.o
 .text.xQueueIsQueueEmptyFromISR
                0x00000000        0xc build/pic32mz_ef_sk/production/_ext/373060831/queue.o
 .text.xQueueIsQueueFullFromISR
                0x00000000       0x14 build/pic32mz_ef_sk/production/_ext/373060831/queue.o
 .text          0x00000000        0x0 build/pic32mz_ef_sk/production/_ext/373060831/tasks.o
 .data          0x00000000        0x0 build/pic32mz_ef_sk/production/_ext/373060831/tasks.o
 .reginfo       0x00000000       0x18 build/pic32mz_ef_sk/production/_ext/373060831/tasks.o
 .text.prvTaskIsTaskSuspended
                0x00000000       0x38 build/pic32mz_ef_sk/production/_ext/373060831/tasks.o
 .text.uxTaskPriorityGetFromISR
                0x00000000       0x3c build/pic32mz_ef_sk/production/_ext/373060831/tasks.o
 .text.xTaskResumeFromISR
                0x00000000       0xd8 build/pic32mz_ef_sk/production/_ext/373060831/tasks.o
 .text.vTaskEndScheduler
                0x00000000       0x34 build/pic32mz_ef_sk/production/_ext/373060831/tasks.o
 .text.xTaskGetTickCount
                0x00000000        0xc build/pic32mz_ef_sk/production/_ext/373060831/tasks.o
 .text.xTaskGetTickCountFromISR
                0x00000000        0xc build/pic32mz_ef_sk/production/_ext/373060831/tasks.o
 .text.uxTaskGetNumberOfTasks
                0x00000000        0xc build/pic32mz_ef_sk/production/_ext/373060831/tasks.o
 .text.pcTaskGetName
                0x00000000       0x10 build/pic32mz_ef_sk/production/_ext/373060831/tasks.o
 .text.vTaskPlaceOnUnorderedEventList
                0x00000000       0x48 build/pic32mz_ef_sk/production/_ext/373060831/tasks.o
 .text.xTaskRemoveFromUnorderedEventList
                0x00000000       0x9c build/pic32mz_ef_sk/production/_ext/373060831/tasks.o
 .text.xTaskGetCurrentTaskHandle
                0x00000000        0xc build/pic32mz_ef_sk/production/_ext/373060831/tasks.o
 .text.vTaskDelete
                0x00000000      0x124 build/pic32mz_ef_sk/production/_ext/373060831/tasks.o
 .text.uxTaskPriorityGet
                0x00000000       0x38 build/pic32mz_ef_sk/production/_ext/373060831/tasks.o
 .text.vTaskPrioritySet
                0x00000000      0x15c build/pic32mz_ef_sk/production/_ext/373060831/tasks.o
 .text.vTaskSuspend
                0x00000000      0x12c build/pic32mz_ef_sk/production/_ext/373060831/tasks.o
 .text.vTaskResume
                0x00000000       0xc0 build/pic32mz_ef_sk/production/_ext/373060831/tasks.o
 .text.vTaskDelayUntil
                0x00000000       0xa8 build/pic32mz_ef_sk/production/_ext/373060831/tasks.o
 .text.uxTaskResetEventItemValue
                0x00000000       0x24 build/pic32mz_ef_sk/production/_ext/373060831/tasks.o
 .text.ulTaskNotifyTake
                0x00000000       0xc4 build/pic32mz_ef_sk/production/_ext/373060831/tasks.o
 .text.xTaskNotifyWait
                0x00000000      0x108 build/pic32mz_ef_sk/production/_ext/373060831/tasks.o
 .text.xTaskGenericNotify
                0x00000000      0x170 build/pic32mz_ef_sk/production/_ext/373060831/tasks.o
 .text.xTaskGenericNotifyFromISR
                0x00000000      0x1a8 build/pic32mz_ef_sk/production/_ext/373060831/tasks.o
 .text.vTaskNotifyGiveFromISR
                0x00000000      0x104 build/pic32mz_ef_sk/production/_ext/373060831/tasks.o
 .text.xTaskNotifyStateClear
                0x00000000       0x60 build/pic32mz_ef_sk/production/_ext/373060831/tasks.o
 .text          0x00000000        0x0 build/pic32mz_ef_sk/production/_ext/373060831/timers.o
 .data          0x00000000        0x0 build/pic32mz_ef_sk/production/_ext/373060831/timers.o
 .bss           0x00000000        0x0 build/pic32mz_ef_sk/production/_ext/373060831/timers.o
 .reginfo       0x00000000       0x18 build/pic32mz_ef_sk/production/_ext/373060831/timers.o
 .text          0x00000000        0x0 build/pic32mz_ef_sk/production/_ext/373060831/event_groups.o
 .data          0x00000000        0x0 build/pic32mz_ef_sk/production/_ext/373060831/event_groups.o
 .bss           0x00000000        0x0 build/pic32mz_ef_sk/production/_ext/373060831/event_groups.o
 .reginfo       0x00000000       0x18 build/pic32mz_ef_sk/production/_ext/373060831/event_groups.o
 .text.xEventGroupCreate
                0x00000000       0x3c build/pic32mz_ef_sk/production/_ext/373060831/event_groups.o
 .text.xEventGroupWaitBits
                0x00000000      0x148 build/pic32mz_ef_sk/production/_ext/373060831/event_groups.o
 .text.xEventGroupClearBits
                0x00000000       0x50 build/pic32mz_ef_sk/production/_ext/373060831/event_groups.o
 .text.xEventGroupGetBitsFromISR
                0x00000000       0x34 build/pic32mz_ef_sk/production/_ext/373060831/event_groups.o
 .text.xEventGroupSetBits
                0x00000000       0xfc build/pic32mz_ef_sk/production/_ext/373060831/event_groups.o
 .text.xEventGroupSync
                0x00000000      0x110 build/pic32mz_ef_sk/production/_ext/373060831/event_groups.o
 .text.vEventGroupDelete
                0x00000000       0x58 build/pic32mz_ef_sk/production/_ext/373060831/event_groups.o
 .text.vEventGroupSetBitsCallback
                0x00000000       0x1c build/pic32mz_ef_sk/production/_ext/373060831/event_groups.o
 .text.vEventGroupClearBitsCallback
                0x00000000       0x1c build/pic32mz_ef_sk/production/_ext/373060831/event_groups.o
 .text          0x00000000        0x0 build/pic32mz_ef_sk/production/_ext/1360937237/websocket.o
 .data          0x00000000        0x0 build/pic32mz_ef_sk/production/_ext/1360937237/websocket.o
 .bss           0x00000000        0x0 build/pic32mz_ef_sk/production/_ext/1360937237/websocket.o
 .reginfo       0x00000000       0x18 build/pic32mz_ef_sk/production/_ext/1360937237/websocket.o
 .text.test_sha1
                0x00000000       0xbc build/pic32mz_ef_sk/production/_ext/1360937237/websocket.o
 .text          0x00000000        0x0 build/pic32mz_ef_sk/production/_ext/1360937237/websocket_thread.o
 .data          0x00000000        0x0 build/pic32mz_ef_sk/production/_ext/1360937237/websocket_thread.o
 .reginfo       0x00000000       0x18 build/pic32mz_ef_sk/production/_ext/1360937237/websocket_thread.o
 .text.error    0x00000000       0x18 build/pic32mz_ef_sk/production/_ext/1360937237/websocket_thread.o
 .text          0x00000000        0x0 build/pic32mz_ef_sk/production/_ext/1164207549/icmp.o
 .data          0x00000000        0x0 build/pic32mz_ef_sk/production/_ext/1164207549/icmp.o
 .reginfo       0x00000000       0x18 build/pic32mz_ef_sk/production/_ext/1164207549/icmp.o
 .text.TCPIP_ICMP_CallbackRegister
                0x00000000       0x58 build/pic32mz_ef_sk/production/_ext/1164207549/icmp.o
 .text.TCPIP_ICMP_CallbackDeregister
                0x00000000       0x44 build/pic32mz_ef_sk/production/_ext/1164207549/icmp.o
 .text.TCPIP_ICMP_EchoRequestSend
                0x00000000      0x120 build/pic32mz_ef_sk/production/_ext/1164207549/icmp.o
 .text          0x00000000        0x0 c:/program files (x86)/microchip/xc32/v1.44/bin/bin/../../lib/gcc/pic32mx/4.8.3/../../../../pic32mx/lib/./proc/32MZ2048EFH144\default_isr_vectors.o
 .data          0x00000000        0x0 c:/program files (x86)/microchip/xc32/v1.44/bin/bin/../../lib/gcc/pic32mx/4.8.3/../../../../pic32mx/lib/./proc/32MZ2048EFH144\default_isr_vectors.o
 .bss           0x00000000        0x0 c:/program files (x86)/microchip/xc32/v1.44/bin/bin/../../lib/gcc/pic32mx/4.8.3/../../../../pic32mx/lib/./proc/32MZ2048EFH144\default_isr_vectors.o
 .reginfo       0x00000000       0x18 c:/program files (x86)/microchip/xc32/v1.44/bin/bin/../../lib/gcc/pic32mx/4.8.3/../../../../pic32mx/lib/./proc/32MZ2048EFH144\default_isr_vectors.o
 .discard       0x00000000        0x4 c:/program files (x86)/microchip/xc32/v1.44/bin/bin/../../lib/gcc/pic32mx/4.8.3/../../../../pic32mx/lib/./proc/32MZ2048EFH144\default_isr_vectors.o
 .data          0x00000000        0x0 c:/program files (x86)/microchip/xc32/v1.44/bin/bin/../../lib/gcc/pic32mx/4.8.3/../../../../pic32mx/lib/fpu64\pic32_software_reset.o
 .bss           0x00000000        0x0 c:/program files (x86)/microchip/xc32/v1.44/bin/bin/../../lib/gcc/pic32mx/4.8.3/../../../../pic32mx/lib/fpu64\pic32_software_reset.o
 .reginfo       0x00000000       0x18 c:/program files (x86)/microchip/xc32/v1.44/bin/bin/../../lib/gcc/pic32mx/4.8.3/../../../../pic32mx/lib/fpu64\pic32_software_reset.o
 .text          0x00000000        0x0 c:/program files (x86)/microchip/xc32/v1.44/bin/bin/../../lib/gcc/pic32mx/4.8.3/../../../../pic32mx/lib/./proc/32MZ2048EFH144\processor.o
 .data          0x00000000        0x0 c:/program files (x86)/microchip/xc32/v1.44/bin/bin/../../lib/gcc/pic32mx/4.8.3/../../../../pic32mx/lib/./proc/32MZ2048EFH144\processor.o
 .bss           0x00000000        0x0 c:/program files (x86)/microchip/xc32/v1.44/bin/bin/../../lib/gcc/pic32mx/4.8.3/../../../../pic32mx/lib/./proc/32MZ2048EFH144\processor.o
 .reginfo       0x00000000       0x18 c:/program files (x86)/microchip/xc32/v1.44/bin/bin/../../lib/gcc/pic32mx/4.8.3/../../../../pic32mx/lib/./proc/32MZ2048EFH144\processor.o
 .text          0x00000000        0x0 c:/program files (x86)/microchip/xc32/v1.44/bin/bin/../../lib/gcc/pic32mx/4.8.3/../../../../pic32mx/lib/./proc/32MZ2048EFH144\vector_offset_init.o
 .data          0x00000000        0x0 c:/program files (x86)/microchip/xc32/v1.44/bin/bin/../../lib/gcc/pic32mx/4.8.3/../../../../pic32mx/lib/./proc/32MZ2048EFH144\vector_offset_init.o
 .bss           0x00000000        0x0 c:/program files (x86)/microchip/xc32/v1.44/bin/bin/../../lib/gcc/pic32mx/4.8.3/../../../../pic32mx/lib/./proc/32MZ2048EFH144\vector_offset_init.o
 .reginfo       0x00000000       0x18 c:/program files (x86)/microchip/xc32/v1.44/bin/bin/../../lib/gcc/pic32mx/4.8.3/../../../../pic32mx/lib/./proc/32MZ2048EFH144\vector_offset_init.o
 .data          0x00000000        0x0 c:/program files (x86)/microchip/xc32/v1.44/bin/bin/../../lib/gcc/pic32mx/4.8.3/fpu64\libgcc.a(_udivdi3.o)
 .bss           0x00000000        0x0 c:/program files (x86)/microchip/xc32/v1.44/bin/bin/../../lib/gcc/pic32mx/4.8.3/fpu64\libgcc.a(_udivdi3.o)
 .reginfo       0x00000000       0x18 c:/program files (x86)/microchip/xc32/v1.44/bin/bin/../../lib/gcc/pic32mx/4.8.3/fpu64\libgcc.a(_udivdi3.o)
 .data          0x00000000        0x0 c:/program files (x86)/microchip/xc32/v1.44/bin/bin/../../lib/gcc/pic32mx/4.8.3/../../../../pic32mx/lib/fpu64\libpic32.a(memcmp.o)
 .bss           0x00000000        0x0 c:/program files (x86)/microchip/xc32/v1.44/bin/bin/../../lib/gcc/pic32mx/4.8.3/../../../../pic32mx/lib/fpu64\libpic32.a(memcmp.o)
 .reginfo       0x00000000       0x18 c:/program files (x86)/microchip/xc32/v1.44/bin/bin/../../lib/gcc/pic32mx/4.8.3/../../../../pic32mx/lib/fpu64\libpic32.a(memcmp.o)
 .data          0x00000000        0x0 c:/program files (x86)/microchip/xc32/v1.44/bin/bin/../../lib/gcc/pic32mx/4.8.3/../../../../pic32mx/lib/fpu64\libpic32.a(memcpy.o)
 .bss           0x00000000        0x0 c:/program files (x86)/microchip/xc32/v1.44/bin/bin/../../lib/gcc/pic32mx/4.8.3/../../../../pic32mx/lib/fpu64\libpic32.a(memcpy.o)
 .reginfo       0x00000000       0x18 c:/program files (x86)/microchip/xc32/v1.44/bin/bin/../../lib/gcc/pic32mx/4.8.3/../../../../pic32mx/lib/fpu64\libpic32.a(memcpy.o)
 .data          0x00000000        0x0 c:/program files (x86)/microchip/xc32/v1.44/bin/bin/../../lib/gcc/pic32mx/4.8.3/../../../../pic32mx/lib/fpu64\libpic32.a(memset.o)
 .bss           0x00000000        0x0 c:/program files (x86)/microchip/xc32/v1.44/bin/bin/../../lib/gcc/pic32mx/4.8.3/../../../../pic32mx/lib/fpu64\libpic32.a(memset.o)
 .reginfo       0x00000000       0x18 c:/program files (x86)/microchip/xc32/v1.44/bin/bin/../../lib/gcc/pic32mx/4.8.3/../../../../pic32mx/lib/fpu64\libpic32.a(memset.o)
 .data          0x00000000        0x0 c:/program files (x86)/microchip/xc32/v1.44/bin/bin/../../lib/gcc/pic32mx/4.8.3/../../../../pic32mx/lib/fpu64\libpic32.a(strcmp.o)
 .bss           0x00000000        0x0 c:/program files (x86)/microchip/xc32/v1.44/bin/bin/../../lib/gcc/pic32mx/4.8.3/../../../../pic32mx/lib/fpu64\libpic32.a(strcmp.o)
 .reginfo       0x00000000       0x18 c:/program files (x86)/microchip/xc32/v1.44/bin/bin/../../lib/gcc/pic32mx/4.8.3/../../../../pic32mx/lib/fpu64\libpic32.a(strcmp.o)
 .data          0x00000000        0x0 c:/program files (x86)/microchip/xc32/v1.44/bin/bin/../../lib/gcc/pic32mx/4.8.3/../../../../pic32mx/lib/fpu64\libpic32.a(strcpy.o)
 .bss           0x00000000        0x0 c:/program files (x86)/microchip/xc32/v1.44/bin/bin/../../lib/gcc/pic32mx/4.8.3/../../../../pic32mx/lib/fpu64\libpic32.a(strcpy.o)
 .reginfo       0x00000000       0x18 c:/program files (x86)/microchip/xc32/v1.44/bin/bin/../../lib/gcc/pic32mx/4.8.3/../../../../pic32mx/lib/fpu64\libpic32.a(strcpy.o)
 .data          0x00000000        0x0 c:/program files (x86)/microchip/xc32/v1.44/bin/bin/../../lib/gcc/pic32mx/4.8.3/../../../../pic32mx/lib/fpu64\libpic32.a(strlen.o)
 .bss           0x00000000        0x0 c:/program files (x86)/microchip/xc32/v1.44/bin/bin/../../lib/gcc/pic32mx/4.8.3/../../../../pic32mx/lib/fpu64\libpic32.a(strlen.o)
 .reginfo       0x00000000       0x18 c:/program files (x86)/microchip/xc32/v1.44/bin/bin/../../lib/gcc/pic32mx/4.8.3/../../../../pic32mx/lib/fpu64\libpic32.a(strlen.o)
 .text          0x00000000        0x0 c:/program files (x86)/microchip/xc32/v1.44/bin/bin/../../lib/gcc/pic32mx/4.8.3/../../../../pic32mx/lib/fpu64\libpic32.a(default-bootstrap-exception-handler.o)
 .data          0x00000000        0x0 c:/program files (x86)/microchip/xc32/v1.44/bin/bin/../../lib/gcc/pic32mx/4.8.3/../../../../pic32mx/lib/fpu64\libpic32.a(default-bootstrap-exception-handler.o)
 .bss           0x00000000        0x0 c:/program files (x86)/microchip/xc32/v1.44/bin/bin/../../lib/gcc/pic32mx/4.8.3/../../../../pic32mx/lib/fpu64\libpic32.a(default-bootstrap-exception-handler.o)
 .reginfo       0x00000000       0x18 c:/program files (x86)/microchip/xc32/v1.44/bin/bin/../../lib/gcc/pic32mx/4.8.3/../../../../pic32mx/lib/fpu64\libpic32.a(default-bootstrap-exception-handler.o)
 .text          0x00000000        0x0 c:/program files (x86)/microchip/xc32/v1.44/bin/bin/../../lib/gcc/pic32mx/4.8.3/../../../../pic32mx/lib/fpu64\libpic32.a(default-on-reset.o)
 .data          0x00000000        0x0 c:/program files (x86)/microchip/xc32/v1.44/bin/bin/../../lib/gcc/pic32mx/4.8.3/../../../../pic32mx/lib/fpu64\libpic32.a(default-on-reset.o)
 .bss           0x00000000        0x0 c:/program files (x86)/microchip/xc32/v1.44/bin/bin/../../lib/gcc/pic32mx/4.8.3/../../../../pic32mx/lib/fpu64\libpic32.a(default-on-reset.o)
 .reginfo       0x00000000       0x18 c:/program files (x86)/microchip/xc32/v1.44/bin/bin/../../lib/gcc/pic32mx/4.8.3/../../../../pic32mx/lib/fpu64\libpic32.a(default-on-reset.o)
 .text          0x00000000        0x0 c:/program files (x86)/microchip/xc32/v1.44/bin/bin/../../lib/gcc/pic32mx/4.8.3/../../../../pic32mx/lib/fpu64\libpic32.a(default-on-bootstrap.o)
 .data          0x00000000        0x0 c:/program files (x86)/microchip/xc32/v1.44/bin/bin/../../lib/gcc/pic32mx/4.8.3/../../../../pic32mx/lib/fpu64\libpic32.a(default-on-bootstrap.o)
 .bss           0x00000000        0x0 c:/program files (x86)/microchip/xc32/v1.44/bin/bin/../../lib/gcc/pic32mx/4.8.3/../../../../pic32mx/lib/fpu64\libpic32.a(default-on-bootstrap.o)
 .reginfo       0x00000000       0x18 c:/program files (x86)/microchip/xc32/v1.44/bin/bin/../../lib/gcc/pic32mx/4.8.3/../../../../pic32mx/lib/fpu64\libpic32.a(default-on-bootstrap.o)
 .data          0x00000000        0x0 c:/program files (x86)/microchip/xc32/v1.44/bin/bin/../../lib/gcc/pic32mx/4.8.3/../../../../pic32mx/lib/fpu64\libpic32.a(default-nmi-handler.o)
 .bss           0x00000000        0x0 c:/program files (x86)/microchip/xc32/v1.44/bin/bin/../../lib/gcc/pic32mx/4.8.3/../../../../pic32mx/lib/fpu64\libpic32.a(default-nmi-handler.o)
 .reginfo       0x00000000       0x18 c:/program files (x86)/microchip/xc32/v1.44/bin/bin/../../lib/gcc/pic32mx/4.8.3/../../../../pic32mx/lib/fpu64\libpic32.a(default-nmi-handler.o)
 .text          0x00000000        0x0 c:/program files (x86)/microchip/xc32/v1.44/bin/bin/../../lib/gcc/pic32mx/4.8.3/../../../../pic32mx/lib/fpu64\libpic32.a(pic32_init_cache.o)
 .data          0x00000000        0x0 c:/program files (x86)/microchip/xc32/v1.44/bin/bin/../../lib/gcc/pic32mx/4.8.3/../../../../pic32mx/lib/fpu64\libpic32.a(pic32_init_cache.o)
 .bss           0x00000000        0x0 c:/program files (x86)/microchip/xc32/v1.44/bin/bin/../../lib/gcc/pic32mx/4.8.3/../../../../pic32mx/lib/fpu64\libpic32.a(pic32_init_cache.o)
 .reginfo       0x00000000       0x18 c:/program files (x86)/microchip/xc32/v1.44/bin/bin/../../lib/gcc/pic32mx/4.8.3/../../../../pic32mx/lib/fpu64\libpic32.a(pic32_init_cache.o)
 .cache_init.pic32_size_cache
                0x00000000       0x58 c:/program files (x86)/microchip/xc32/v1.44/bin/bin/../../lib/gcc/pic32mx/4.8.3/../../../../pic32mx/lib/fpu64\libpic32.a(pic32_init_cache.o)
 .text          0x00000000        0x0 c:/program files (x86)/microchip/xc32/v1.44/bin/bin/../../lib/gcc/pic32mx/4.8.3/../../../../pic32mx/lib/fpu64\libpic32.a(pic32_init_tlb_ebi_sqi.o)
 .data          0x00000000        0x0 c:/program files (x86)/microchip/xc32/v1.44/bin/bin/../../lib/gcc/pic32mx/4.8.3/../../../../pic32mx/lib/fpu64\libpic32.a(pic32_init_tlb_ebi_sqi.o)
 .bss           0x00000000        0x0 c:/program files (x86)/microchip/xc32/v1.44/bin/bin/../../lib/gcc/pic32mx/4.8.3/../../../../pic32mx/lib/fpu64\libpic32.a(pic32_init_tlb_ebi_sqi.o)
 .reginfo       0x00000000       0x18 c:/program files (x86)/microchip/xc32/v1.44/bin/bin/../../lib/gcc/pic32mx/4.8.3/../../../../pic32mx/lib/fpu64\libpic32.a(pic32_init_tlb_ebi_sqi.o)
 .text          0x00000000        0x0 c:/program files (x86)/microchip/xc32/v1.44/bin/bin/../../lib/gcc/pic32mx/4.8.3/../../../../pic32mx/lib/fpu64\libpic32.a(general-exception.o)
 .data          0x00000000        0x0 c:/program files (x86)/microchip/xc32/v1.44/bin/bin/../../lib/gcc/pic32mx/4.8.3/../../../../pic32mx/lib/fpu64\libpic32.a(general-exception.o)
 .bss           0x00000000        0x0 c:/program files (x86)/microchip/xc32/v1.44/bin/bin/../../lib/gcc/pic32mx/4.8.3/../../../../pic32mx/lib/fpu64\libpic32.a(general-exception.o)
 .reginfo       0x00000000       0x18 c:/program files (x86)/microchip/xc32/v1.44/bin/bin/../../lib/gcc/pic32mx/4.8.3/../../../../pic32mx/lib/fpu64\libpic32.a(general-exception.o)
 .text          0x00000000        0x0 c:/program files (x86)/microchip/xc32/v1.44/bin/bin/../../lib/gcc/pic32mx/4.8.3/../../../../pic32mx/lib/fpu64\libpic32.a(cache-err-exception.o)
 .data          0x00000000        0x0 c:/program files (x86)/microchip/xc32/v1.44/bin/bin/../../lib/gcc/pic32mx/4.8.3/../../../../pic32mx/lib/fpu64\libpic32.a(cache-err-exception.o)
 .bss           0x00000000        0x0 c:/program files (x86)/microchip/xc32/v1.44/bin/bin/../../lib/gcc/pic32mx/4.8.3/../../../../pic32mx/lib/fpu64\libpic32.a(cache-err-exception.o)
 .reginfo       0x00000000       0x18 c:/program files (x86)/microchip/xc32/v1.44/bin/bin/../../lib/gcc/pic32mx/4.8.3/../../../../pic32mx/lib/fpu64\libpic32.a(cache-err-exception.o)
 .text          0x00000000        0x0 c:/program files (x86)/microchip/xc32/v1.44/bin/bin/../../lib/gcc/pic32mx/4.8.3/../../../../pic32mx/lib/fpu64\libpic32.a(simple-tlb-refill-exception.o)
 .data          0x00000000        0x0 c:/program files (x86)/microchip/xc32/v1.44/bin/bin/../../lib/gcc/pic32mx/4.8.3/../../../../pic32mx/lib/fpu64\libpic32.a(simple-tlb-refill-exception.o)
 .bss           0x00000000        0x0 c:/program files (x86)/microchip/xc32/v1.44/bin/bin/../../lib/gcc/pic32mx/4.8.3/../../../../pic32mx/lib/fpu64\libpic32.a(simple-tlb-refill-exception.o)
 .reginfo       0x00000000       0x18 c:/program files (x86)/microchip/xc32/v1.44/bin/bin/../../lib/gcc/pic32mx/4.8.3/../../../../pic32mx/lib/fpu64\libpic32.a(simple-tlb-refill-exception.o)
 .text          0x00000000        0x0 c:/program files (x86)/microchip/xc32/v1.44/bin/bin/../../lib/gcc/pic32mx/4.8.3/../../../../pic32mx/lib/fpu64\libpic32.a(defaultinterrupt.o)
 .data          0x00000000        0x0 c:/program files (x86)/microchip/xc32/v1.44/bin/bin/../../lib/gcc/pic32mx/4.8.3/../../../../pic32mx/lib/fpu64\libpic32.a(defaultinterrupt.o)
 .bss           0x00000000        0x0 c:/program files (x86)/microchip/xc32/v1.44/bin/bin/../../lib/gcc/pic32mx/4.8.3/../../../../pic32mx/lib/fpu64\libpic32.a(defaultinterrupt.o)
 .reginfo       0x00000000       0x18 c:/program files (x86)/microchip/xc32/v1.44/bin/bin/../../lib/gcc/pic32mx/4.8.3/../../../../pic32mx/lib/fpu64\libpic32.a(defaultinterrupt.o)
 .text          0x00000000        0x0 c:/program files (x86)/microchip/xc32/v1.44/bin/bin/../../lib/gcc/pic32mx/4.8.3/../../../../pic32mx/lib/fpu64\libpic32.a(default-cache-err-exception-handler.o)
 .data          0x00000000        0x0 c:/program files (x86)/microchip/xc32/v1.44/bin/bin/../../lib/gcc/pic32mx/4.8.3/../../../../pic32mx/lib/fpu64\libpic32.a(default-cache-err-exception-handler.o)
 .bss           0x00000000        0x0 c:/program files (x86)/microchip/xc32/v1.44/bin/bin/../../lib/gcc/pic32mx/4.8.3/../../../../pic32mx/lib/fpu64\libpic32.a(default-cache-err-exception-handler.o)
 .reginfo       0x00000000       0x18 c:/program files (x86)/microchip/xc32/v1.44/bin/bin/../../lib/gcc/pic32mx/4.8.3/../../../../pic32mx/lib/fpu64\libpic32.a(default-cache-err-exception-handler.o)
 .text          0x00000000        0x0 c:/program files (x86)/microchip/xc32/v1.44/bin/bin/../../lib/gcc/pic32mx/4.8.3/../../../../pic32mx/lib/fpu64\libpic32.a(default-simple-tlb-refill-exception-handler.o)
 .data          0x00000000        0x0 c:/program files (x86)/microchip/xc32/v1.44/bin/bin/../../lib/gcc/pic32mx/4.8.3/../../../../pic32mx/lib/fpu64\libpic32.a(default-simple-tlb-refill-exception-handler.o)
 .bss           0x00000000        0x0 c:/program files (x86)/microchip/xc32/v1.44/bin/bin/../../lib/gcc/pic32mx/4.8.3/../../../../pic32mx/lib/fpu64\libpic32.a(default-simple-tlb-refill-exception-handler.o)
 .reginfo       0x00000000       0x18 c:/program files (x86)/microchip/xc32/v1.44/bin/bin/../../lib/gcc/pic32mx/4.8.3/../../../../pic32mx/lib/fpu64\libpic32.a(default-simple-tlb-refill-exception-handler.o)
 .text          0x00000000        0x0 c:/program files (x86)/microchip/xc32/v1.44/bin/bin/../../lib/gcc/pic32mx/4.8.3/../../../../pic32mx/lib/fpu64\libc.a(fassert.o)
 .data          0x00000000        0x0 c:/program files (x86)/microchip/xc32/v1.44/bin/bin/../../lib/gcc/pic32mx/4.8.3/../../../../pic32mx/lib/fpu64\libc.a(fassert.o)
 .bss           0x00000000        0x0 c:/program files (x86)/microchip/xc32/v1.44/bin/bin/../../lib/gcc/pic32mx/4.8.3/../../../../pic32mx/lib/fpu64\libc.a(fassert.o)
 .reginfo       0x00000000       0x18 c:/program files (x86)/microchip/xc32/v1.44/bin/bin/../../lib/gcc/pic32mx/4.8.3/../../../../pic32mx/lib/fpu64\libc.a(fassert.o)
 .text          0x00000000        0x0 c:/program files (x86)/microchip/xc32/v1.44/bin/bin/../../lib/gcc/pic32mx/4.8.3/../../../../pic32mx/lib/fpu64\libc.a(atoi.o)
 .data          0x00000000        0x0 c:/program files (x86)/microchip/xc32/v1.44/bin/bin/../../lib/gcc/pic32mx/4.8.3/../../../../pic32mx/lib/fpu64\libc.a(atoi.o)
 .bss           0x00000000        0x0 c:/program files (x86)/microchip/xc32/v1.44/bin/bin/../../lib/gcc/pic32mx/4.8.3/../../../../pic32mx/lib/fpu64\libc.a(atoi.o)
 .reginfo       0x00000000       0x18 c:/program files (x86)/microchip/xc32/v1.44/bin/bin/../../lib/gcc/pic32mx/4.8.3/../../../../pic32mx/lib/fpu64\libc.a(atoi.o)
 .text          0x00000000        0x0 c:/program files (x86)/microchip/xc32/v1.44/bin/bin/../../lib/gcc/pic32mx/4.8.3/../../../../pic32mx/lib/fpu64\libc.a(atol.o)
 .data          0x00000000        0x0 c:/program files (x86)/microchip/xc32/v1.44/bin/bin/../../lib/gcc/pic32mx/4.8.3/../../../../pic32mx/lib/fpu64\libc.a(atol.o)
 .bss           0x00000000        0x0 c:/program files (x86)/microchip/xc32/v1.44/bin/bin/../../lib/gcc/pic32mx/4.8.3/../../../../pic32mx/lib/fpu64\libc.a(atol.o)
 .reginfo       0x00000000       0x18 c:/program files (x86)/microchip/xc32/v1.44/bin/bin/../../lib/gcc/pic32mx/4.8.3/../../../../pic32mx/lib/fpu64\libc.a(atol.o)
 .text          0x00000000        0x0 c:/program files (x86)/microchip/xc32/v1.44/bin/bin/../../lib/gcc/pic32mx/4.8.3/../../../../pic32mx/lib/fpu64\libc.a(calloc.o)
 .data          0x00000000        0x0 c:/program files (x86)/microchip/xc32/v1.44/bin/bin/../../lib/gcc/pic32mx/4.8.3/../../../../pic32mx/lib/fpu64\libc.a(calloc.o)
 .bss           0x00000000        0x0 c:/program files (x86)/microchip/xc32/v1.44/bin/bin/../../lib/gcc/pic32mx/4.8.3/../../../../pic32mx/lib/fpu64\libc.a(calloc.o)
 .reginfo       0x00000000       0x18 c:/program files (x86)/microchip/xc32/v1.44/bin/bin/../../lib/gcc/pic32mx/4.8.3/../../../../pic32mx/lib/fpu64\libc.a(calloc.o)
 .text          0x00000000        0x0 c:/program files (x86)/microchip/xc32/v1.44/bin/bin/../../lib/gcc/pic32mx/4.8.3/../../../../pic32mx/lib/fpu64\libc.a(ctype.o)
 .data          0x00000000        0x0 c:/program files (x86)/microchip/xc32/v1.44/bin/bin/../../lib/gcc/pic32mx/4.8.3/../../../../pic32mx/lib/fpu64\libc.a(ctype.o)
 .bss           0x00000000        0x0 c:/program files (x86)/microchip/xc32/v1.44/bin/bin/../../lib/gcc/pic32mx/4.8.3/../../../../pic32mx/lib/fpu64\libc.a(ctype.o)
 .reginfo       0x00000000       0x18 c:/program files (x86)/microchip/xc32/v1.44/bin/bin/../../lib/gcc/pic32mx/4.8.3/../../../../pic32mx/lib/fpu64\libc.a(ctype.o)
 .text          0x00000000        0x0 c:/program files (x86)/microchip/xc32/v1.44/bin/bin/../../lib/gcc/pic32mx/4.8.3/../../../../pic32mx/lib/fpu64\libc.a(ctypef.o)
 .data          0x00000000        0x0 c:/program files (x86)/microchip/xc32/v1.44/bin/bin/../../lib/gcc/pic32mx/4.8.3/../../../../pic32mx/lib/fpu64\libc.a(ctypef.o)
 .bss           0x00000000        0x0 c:/program files (x86)/microchip/xc32/v1.44/bin/bin/../../lib/gcc/pic32mx/4.8.3/../../../../pic32mx/lib/fpu64\libc.a(ctypef.o)
 .reginfo       0x00000000       0x18 c:/program files (x86)/microchip/xc32/v1.44/bin/bin/../../lib/gcc/pic32mx/4.8.3/../../../../pic32mx/lib/fpu64\libc.a(ctypef.o)
 .text.isalnum  0x00000000       0x18 c:/program files (x86)/microchip/xc32/v1.44/bin/bin/../../lib/gcc/pic32mx/4.8.3/../../../../pic32mx/lib/fpu64\libc.a(ctypef.o)
 .text.isalpha  0x00000000       0x18 c:/program files (x86)/microchip/xc32/v1.44/bin/bin/../../lib/gcc/pic32mx/4.8.3/../../../../pic32mx/lib/fpu64\libc.a(ctypef.o)
 .text.isascii  0x00000000        0x8 c:/program files (x86)/microchip/xc32/v1.44/bin/bin/../../lib/gcc/pic32mx/4.8.3/../../../../pic32mx/lib/fpu64\libc.a(ctypef.o)
 .text.iscntrl  0x00000000       0x18 c:/program files (x86)/microchip/xc32/v1.44/bin/bin/../../lib/gcc/pic32mx/4.8.3/../../../../pic32mx/lib/fpu64\libc.a(ctypef.o)
 .text.isdigit  0x00000000       0x18 c:/program files (x86)/microchip/xc32/v1.44/bin/bin/../../lib/gcc/pic32mx/4.8.3/../../../../pic32mx/lib/fpu64\libc.a(ctypef.o)
 .text.isgraph  0x00000000       0x18 c:/program files (x86)/microchip/xc32/v1.44/bin/bin/../../lib/gcc/pic32mx/4.8.3/../../../../pic32mx/lib/fpu64\libc.a(ctypef.o)
 .text.islower  0x00000000       0x18 c:/program files (x86)/microchip/xc32/v1.44/bin/bin/../../lib/gcc/pic32mx/4.8.3/../../../../pic32mx/lib/fpu64\libc.a(ctypef.o)
 .text.isprint  0x00000000       0x18 c:/program files (x86)/microchip/xc32/v1.44/bin/bin/../../lib/gcc/pic32mx/4.8.3/../../../../pic32mx/lib/fpu64\libc.a(ctypef.o)
 .text.ispunct  0x00000000       0x18 c:/program files (x86)/microchip/xc32/v1.44/bin/bin/../../lib/gcc/pic32mx/4.8.3/../../../../pic32mx/lib/fpu64\libc.a(ctypef.o)
 .text.isspace  0x00000000       0x18 c:/program files (x86)/microchip/xc32/v1.44/bin/bin/../../lib/gcc/pic32mx/4.8.3/../../../../pic32mx/lib/fpu64\libc.a(ctypef.o)
 .text.isupper  0x00000000       0x18 c:/program files (x86)/microchip/xc32/v1.44/bin/bin/../../lib/gcc/pic32mx/4.8.3/../../../../pic32mx/lib/fpu64\libc.a(ctypef.o)
 .text.isxdigit
                0x00000000       0x18 c:/program files (x86)/microchip/xc32/v1.44/bin/bin/../../lib/gcc/pic32mx/4.8.3/../../../../pic32mx/lib/fpu64\libc.a(ctypef.o)
 .text.toascii  0x00000000        0x8 c:/program files (x86)/microchip/xc32/v1.44/bin/bin/../../lib/gcc/pic32mx/4.8.3/../../../../pic32mx/lib/fpu64\libc.a(ctypef.o)
 .text._tolower
                0x00000000        0x8 c:/program files (x86)/microchip/xc32/v1.44/bin/bin/../../lib/gcc/pic32mx/4.8.3/../../../../pic32mx/lib/fpu64\libc.a(ctypef.o)
 .text._toupper
                0x00000000        0x8 c:/program files (x86)/microchip/xc32/v1.44/bin/bin/../../lib/gcc/pic32mx/4.8.3/../../../../pic32mx/lib/fpu64\libc.a(ctypef.o)
 .text          0x00000000        0x0 c:/program files (x86)/microchip/xc32/v1.44/bin/bin/../../lib/gcc/pic32mx/4.8.3/../../../../pic32mx/lib/fpu64\libc.a(malloc.o)
 .data          0x00000000        0x0 c:/program files (x86)/microchip/xc32/v1.44/bin/bin/../../lib/gcc/pic32mx/4.8.3/../../../../pic32mx/lib/fpu64\libc.a(malloc.o)
 .reginfo       0x00000000       0x18 c:/program files (x86)/microchip/xc32/v1.44/bin/bin/../../lib/gcc/pic32mx/4.8.3/../../../../pic32mx/lib/fpu64\libc.a(malloc.o)
 .text.realloc  0x00000000      0x148 c:/program files (x86)/microchip/xc32/v1.44/bin/bin/../../lib/gcc/pic32mx/4.8.3/../../../../pic32mx/lib/fpu64\libc.a(malloc.o)
 .text          0x00000000        0x0 c:/program files (x86)/microchip/xc32/v1.44/bin/bin/../../lib/gcc/pic32mx/4.8.3/../../../../pic32mx/lib/fpu64\libc.a(perror.o)
 .data          0x00000000        0x0 c:/program files (x86)/microchip/xc32/v1.44/bin/bin/../../lib/gcc/pic32mx/4.8.3/../../../../pic32mx/lib/fpu64\libc.a(perror.o)
 .bss           0x00000000        0x0 c:/program files (x86)/microchip/xc32/v1.44/bin/bin/../../lib/gcc/pic32mx/4.8.3/../../../../pic32mx/lib/fpu64\libc.a(perror.o)
 .reginfo       0x00000000       0x18 c:/program files (x86)/microchip/xc32/v1.44/bin/bin/../../lib/gcc/pic32mx/4.8.3/../../../../pic32mx/lib/fpu64\libc.a(perror.o)
 .rodata        0x00000000        0x4 c:/program files (x86)/microchip/xc32/v1.44/bin/bin/../../lib/gcc/pic32mx/4.8.3/../../../../pic32mx/lib/fpu64\libc.a(perror.o)
 .text.perror   0x00000000       0xbc c:/program files (x86)/microchip/xc32/v1.44/bin/bin/../../lib/gcc/pic32mx/4.8.3/../../../../pic32mx/lib/fpu64\libc.a(perror.o)
 .text          0x00000000        0x0 c:/program files (x86)/microchip/xc32/v1.44/bin/bin/../../lib/gcc/pic32mx/4.8.3/../../../../pic32mx/lib/fpu64\libc.a(rand.o)
 .data          0x00000000        0x0 c:/program files (x86)/microchip/xc32/v1.44/bin/bin/../../lib/gcc/pic32mx/4.8.3/../../../../pic32mx/lib/fpu64\libc.a(rand.o)
 .reginfo       0x00000000       0x18 c:/program files (x86)/microchip/xc32/v1.44/bin/bin/../../lib/gcc/pic32mx/4.8.3/../../../../pic32mx/lib/fpu64\libc.a(rand.o)
 .text          0x00000000        0x0 c:/program files (x86)/microchip/xc32/v1.44/bin/bin/../../lib/gcc/pic32mx/4.8.3/../../../../pic32mx/lib/fpu64\libc.a(signal.o)
 .data          0x00000000        0x0 c:/program files (x86)/microchip/xc32/v1.44/bin/bin/../../lib/gcc/pic32mx/4.8.3/../../../../pic32mx/lib/fpu64\libc.a(signal.o)
 .reginfo       0x00000000       0x18 c:/program files (x86)/microchip/xc32/v1.44/bin/bin/../../lib/gcc/pic32mx/4.8.3/../../../../pic32mx/lib/fpu64\libc.a(signal.o)
 .text.signal   0x00000000       0x30 c:/program files (x86)/microchip/xc32/v1.44/bin/bin/../../lib/gcc/pic32mx/4.8.3/../../../../pic32mx/lib/fpu64\libc.a(signal.o)
 .text          0x00000000        0x0 c:/program files (x86)/microchip/xc32/v1.44/bin/bin/../../lib/gcc/pic32mx/4.8.3/../../../../pic32mx/lib/fpu64\libc.a(strcat.o)
 .data          0x00000000        0x0 c:/program files (x86)/microchip/xc32/v1.44/bin/bin/../../lib/gcc/pic32mx/4.8.3/../../../../pic32mx/lib/fpu64\libc.a(strcat.o)
 .bss           0x00000000        0x0 c:/program files (x86)/microchip/xc32/v1.44/bin/bin/../../lib/gcc/pic32mx/4.8.3/../../../../pic32mx/lib/fpu64\libc.a(strcat.o)
 .reginfo       0x00000000       0x18 c:/program files (x86)/microchip/xc32/v1.44/bin/bin/../../lib/gcc/pic32mx/4.8.3/../../../../pic32mx/lib/fpu64\libc.a(strcat.o)
 .text          0x00000000        0x0 c:/program files (x86)/microchip/xc32/v1.44/bin/bin/../../lib/gcc/pic32mx/4.8.3/../../../../pic32mx/lib/fpu64\libc.a(strchr.o)
 .data          0x00000000        0x0 c:/program files (x86)/microchip/xc32/v1.44/bin/bin/../../lib/gcc/pic32mx/4.8.3/../../../../pic32mx/lib/fpu64\libc.a(strchr.o)
 .bss           0x00000000        0x0 c:/program files (x86)/microchip/xc32/v1.44/bin/bin/../../lib/gcc/pic32mx/4.8.3/../../../../pic32mx/lib/fpu64\libc.a(strchr.o)
 .reginfo       0x00000000       0x18 c:/program files (x86)/microchip/xc32/v1.44/bin/bin/../../lib/gcc/pic32mx/4.8.3/../../../../pic32mx/lib/fpu64\libc.a(strchr.o)
 .text          0x00000000        0x0 c:/program files (x86)/microchip/xc32/v1.44/bin/bin/../../lib/gcc/pic32mx/4.8.3/../../../../pic32mx/lib/fpu64\libc.a(strncat.o)
 .data          0x00000000        0x0 c:/program files (x86)/microchip/xc32/v1.44/bin/bin/../../lib/gcc/pic32mx/4.8.3/../../../../pic32mx/lib/fpu64\libc.a(strncat.o)
 .bss           0x00000000        0x0 c:/program files (x86)/microchip/xc32/v1.44/bin/bin/../../lib/gcc/pic32mx/4.8.3/../../../../pic32mx/lib/fpu64\libc.a(strncat.o)
 .reginfo       0x00000000       0x18 c:/program files (x86)/microchip/xc32/v1.44/bin/bin/../../lib/gcc/pic32mx/4.8.3/../../../../pic32mx/lib/fpu64\libc.a(strncat.o)
 .text          0x00000000        0x0 c:/program files (x86)/microchip/xc32/v1.44/bin/bin/../../lib/gcc/pic32mx/4.8.3/../../../../pic32mx/lib/fpu64\libc.a(strncmp.o)
 .data          0x00000000        0x0 c:/program files (x86)/microchip/xc32/v1.44/bin/bin/../../lib/gcc/pic32mx/4.8.3/../../../../pic32mx/lib/fpu64\libc.a(strncmp.o)
 .bss           0x00000000        0x0 c:/program files (x86)/microchip/xc32/v1.44/bin/bin/../../lib/gcc/pic32mx/4.8.3/../../../../pic32mx/lib/fpu64\libc.a(strncmp.o)
 .reginfo       0x00000000       0x18 c:/program files (x86)/microchip/xc32/v1.44/bin/bin/../../lib/gcc/pic32mx/4.8.3/../../../../pic32mx/lib/fpu64\libc.a(strncmp.o)
 .text          0x00000000        0x0 c:/program files (x86)/microchip/xc32/v1.44/bin/bin/../../lib/gcc/pic32mx/4.8.3/../../../../pic32mx/lib/fpu64\libc.a(strncpy.o)
 .data          0x00000000        0x0 c:/program files (x86)/microchip/xc32/v1.44/bin/bin/../../lib/gcc/pic32mx/4.8.3/../../../../pic32mx/lib/fpu64\libc.a(strncpy.o)
 .bss           0x00000000        0x0 c:/program files (x86)/microchip/xc32/v1.44/bin/bin/../../lib/gcc/pic32mx/4.8.3/../../../../pic32mx/lib/fpu64\libc.a(strncpy.o)
 .reginfo       0x00000000       0x18 c:/program files (x86)/microchip/xc32/v1.44/bin/bin/../../lib/gcc/pic32mx/4.8.3/../../../../pic32mx/lib/fpu64\libc.a(strncpy.o)
 .text          0x00000000        0x0 c:/program files (x86)/microchip/xc32/v1.44/bin/bin/../../lib/gcc/pic32mx/4.8.3/../../../../pic32mx/lib/fpu64\libc.a(strstr.o)
 .data          0x00000000        0x0 c:/program files (x86)/microchip/xc32/v1.44/bin/bin/../../lib/gcc/pic32mx/4.8.3/../../../../pic32mx/lib/fpu64\libc.a(strstr.o)
 .bss           0x00000000        0x0 c:/program files (x86)/microchip/xc32/v1.44/bin/bin/../../lib/gcc/pic32mx/4.8.3/../../../../pic32mx/lib/fpu64\libc.a(strstr.o)
 .reginfo       0x00000000       0x18 c:/program files (x86)/microchip/xc32/v1.44/bin/bin/../../lib/gcc/pic32mx/4.8.3/../../../../pic32mx/lib/fpu64\libc.a(strstr.o)
 .text          0x00000000        0x0 c:/program files (x86)/microchip/xc32/v1.44/bin/bin/../../lib/gcc/pic32mx/4.8.3/../../../../pic32mx/lib/fpu64\libc.a(strtol.o)
 .data          0x00000000        0x0 c:/program files (x86)/microchip/xc32/v1.44/bin/bin/../../lib/gcc/pic32mx/4.8.3/../../../../pic32mx/lib/fpu64\libc.a(strtol.o)
 .bss           0x00000000        0x0 c:/program files (x86)/microchip/xc32/v1.44/bin/bin/../../lib/gcc/pic32mx/4.8.3/../../../../pic32mx/lib/fpu64\libc.a(strtol.o)
 .reginfo       0x00000000       0x18 c:/program files (x86)/microchip/xc32/v1.44/bin/bin/../../lib/gcc/pic32mx/4.8.3/../../../../pic32mx/lib/fpu64\libc.a(strtol.o)
 .text          0x00000000        0x0 c:/program files (x86)/microchip/xc32/v1.44/bin/bin/../../lib/gcc/pic32mx/4.8.3/../../../../pic32mx/lib/fpu64\libc.a(sys_err.o)
 .data          0x00000000       0x50 c:/program files (x86)/microchip/xc32/v1.44/bin/bin/../../lib/gcc/pic32mx/4.8.3/../../../../pic32mx/lib/fpu64\libc.a(sys_err.o)
 .bss           0x00000000        0x0 c:/program files (x86)/microchip/xc32/v1.44/bin/bin/../../lib/gcc/pic32mx/4.8.3/../../../../pic32mx/lib/fpu64\libc.a(sys_err.o)
 .reginfo       0x00000000       0x18 c:/program files (x86)/microchip/xc32/v1.44/bin/bin/../../lib/gcc/pic32mx/4.8.3/../../../../pic32mx/lib/fpu64\libc.a(sys_err.o)
 .rodata        0x00000000      0x198 c:/program files (x86)/microchip/xc32/v1.44/bin/bin/../../lib/gcc/pic32mx/4.8.3/../../../../pic32mx/lib/fpu64\libc.a(sys_err.o)
 .text.strerror
                0x00000000       0x2c c:/program files (x86)/microchip/xc32/v1.44/bin/bin/../../lib/gcc/pic32mx/4.8.3/../../../../pic32mx/lib/fpu64\libc.a(sys_err.o)
 .text          0x00000000        0x0 c:/program files (x86)/microchip/xc32/v1.44/bin/bin/../../lib/gcc/pic32mx/4.8.3/../../../../pic32mx/lib/fpu64\libc.a(exit.o)
 .data          0x00000000        0x0 c:/program files (x86)/microchip/xc32/v1.44/bin/bin/../../lib/gcc/pic32mx/4.8.3/../../../../pic32mx/lib/fpu64\libc.a(exit.o)
 .bss           0x00000000        0x0 c:/program files (x86)/microchip/xc32/v1.44/bin/bin/../../lib/gcc/pic32mx/4.8.3/../../../../pic32mx/lib/fpu64\libc.a(exit.o)
 .reginfo       0x00000000       0x18 c:/program files (x86)/microchip/xc32/v1.44/bin/bin/../../lib/gcc/pic32mx/4.8.3/../../../../pic32mx/lib/fpu64\libc.a(exit.o)
 .text          0x00000000        0x0 c:/program files (x86)/microchip/xc32/v1.44/bin/bin/../../lib/gcc/pic32mx/4.8.3/../../../../pic32mx/lib/fpu64\libc.a(stdclean_simple.o)
 .data          0x00000000        0x0 c:/program files (x86)/microchip/xc32/v1.44/bin/bin/../../lib/gcc/pic32mx/4.8.3/../../../../pic32mx/lib/fpu64\libc.a(stdclean_simple.o)
 .bss           0x00000000        0x0 c:/program files (x86)/microchip/xc32/v1.44/bin/bin/../../lib/gcc/pic32mx/4.8.3/../../../../pic32mx/lib/fpu64\libc.a(stdclean_simple.o)
 .reginfo       0x00000000       0x18 c:/program files (x86)/microchip/xc32/v1.44/bin/bin/../../lib/gcc/pic32mx/4.8.3/../../../../pic32mx/lib/fpu64\libc.a(stdclean_simple.o)
 .text          0x00000000        0x0 c:/program files (x86)/microchip/xc32/v1.44/bin/bin/../../lib/gcc/pic32mx/4.8.3/../../../../pic32mx/lib/fpu64\libc.a(fprintf_cdnopsuxX.eo)
 .data          0x00000000        0x0 c:/program files (x86)/microchip/xc32/v1.44/bin/bin/../../lib/gcc/pic32mx/4.8.3/../../../../pic32mx/lib/fpu64\libc.a(fprintf_cdnopsuxX.eo)
 .bss           0x00000000        0x0 c:/program files (x86)/microchip/xc32/v1.44/bin/bin/../../lib/gcc/pic32mx/4.8.3/../../../../pic32mx/lib/fpu64\libc.a(fprintf_cdnopsuxX.eo)
 .reginfo       0x00000000       0x18 c:/program files (x86)/microchip/xc32/v1.44/bin/bin/../../lib/gcc/pic32mx/4.8.3/../../../../pic32mx/lib/fpu64\libc.a(fprintf_cdnopsuxX.eo)
 .text          0x00000000        0x0 c:/program files (x86)/microchip/xc32/v1.44/bin/bin/../../lib/gcc/pic32mx/4.8.3/../../../../pic32mx/lib/fpu64\libc.a(snprintf_cdnopsuxX.eo)
 .data          0x00000000        0x0 c:/program files (x86)/microchip/xc32/v1.44/bin/bin/../../lib/gcc/pic32mx/4.8.3/../../../../pic32mx/lib/fpu64\libc.a(snprintf_cdnopsuxX.eo)
 .bss           0x00000000        0x0 c:/program files (x86)/microchip/xc32/v1.44/bin/bin/../../lib/gcc/pic32mx/4.8.3/../../../../pic32mx/lib/fpu64\libc.a(snprintf_cdnopsuxX.eo)
 .reginfo       0x00000000       0x18 c:/program files (x86)/microchip/xc32/v1.44/bin/bin/../../lib/gcc/pic32mx/4.8.3/../../../../pic32mx/lib/fpu64\libc.a(snprintf_cdnopsuxX.eo)
 .text          0x00000000        0x0 c:/program files (x86)/microchip/xc32/v1.44/bin/bin/../../lib/gcc/pic32mx/4.8.3/../../../../pic32mx/lib/fpu64\libc.a(sprintf_cdnopsuxX.eo)
 .data          0x00000000        0x0 c:/program files (x86)/microchip/xc32/v1.44/bin/bin/../../lib/gcc/pic32mx/4.8.3/../../../../pic32mx/lib/fpu64\libc.a(sprintf_cdnopsuxX.eo)
 .bss           0x00000000        0x0 c:/program files (x86)/microchip/xc32/v1.44/bin/bin/../../lib/gcc/pic32mx/4.8.3/../../../../pic32mx/lib/fpu64\libc.a(sprintf_cdnopsuxX.eo)
 .reginfo       0x00000000       0x18 c:/program files (x86)/microchip/xc32/v1.44/bin/bin/../../lib/gcc/pic32mx/4.8.3/../../../../pic32mx/lib/fpu64\libc.a(sprintf_cdnopsuxX.eo)
 .text          0x00000000        0x0 c:/program files (x86)/microchip/xc32/v1.44/bin/bin/../../lib/gcc/pic32mx/4.8.3/../../../../pic32mx/lib/fpu64\libc.a(sscanf_s.eo)
 .data          0x00000000        0x0 c:/program files (x86)/microchip/xc32/v1.44/bin/bin/../../lib/gcc/pic32mx/4.8.3/../../../../pic32mx/lib/fpu64\libc.a(sscanf_s.eo)
 .bss           0x00000000        0x0 c:/program files (x86)/microchip/xc32/v1.44/bin/bin/../../lib/gcc/pic32mx/4.8.3/../../../../pic32mx/lib/fpu64\libc.a(sscanf_s.eo)
 .reginfo       0x00000000       0x18 c:/program files (x86)/microchip/xc32/v1.44/bin/bin/../../lib/gcc/pic32mx/4.8.3/../../../../pic32mx/lib/fpu64\libc.a(sscanf_s.eo)
 .text          0x00000000        0x0 c:/program files (x86)/microchip/xc32/v1.44/bin/bin/../../lib/gcc/pic32mx/4.8.3/../../../../pic32mx/lib/fpu64\libc.a(vsnprintf_cdnopsuxX.eo)
 .data          0x00000000        0x0 c:/program files (x86)/microchip/xc32/v1.44/bin/bin/../../lib/gcc/pic32mx/4.8.3/../../../../pic32mx/lib/fpu64\libc.a(vsnprintf_cdnopsuxX.eo)
 .bss           0x00000000        0x0 c:/program files (x86)/microchip/xc32/v1.44/bin/bin/../../lib/gcc/pic32mx/4.8.3/../../../../pic32mx/lib/fpu64\libc.a(vsnprintf_cdnopsuxX.eo)
 .reginfo       0x00000000       0x18 c:/program files (x86)/microchip/xc32/v1.44/bin/bin/../../lib/gcc/pic32mx/4.8.3/../../../../pic32mx/lib/fpu64\libc.a(vsnprintf_cdnopsuxX.eo)
 .text          0x00000000        0x0 c:/program files (x86)/microchip/xc32/v1.44/bin/bin/../../lib/gcc/pic32mx/4.8.3/../../../../pic32mx/lib/fpu64\libc.a(vsnprintf.o)
 .data          0x00000000        0x0 c:/program files (x86)/microchip/xc32/v1.44/bin/bin/../../lib/gcc/pic32mx/4.8.3/../../../../pic32mx/lib/fpu64\libc.a(vsnprintf.o)
 .bss           0x00000000        0x0 c:/program files (x86)/microchip/xc32/v1.44/bin/bin/../../lib/gcc/pic32mx/4.8.3/../../../../pic32mx/lib/fpu64\libc.a(vsnprintf.o)
 .reginfo       0x00000000       0x18 c:/program files (x86)/microchip/xc32/v1.44/bin/bin/../../lib/gcc/pic32mx/4.8.3/../../../../pic32mx/lib/fpu64\libc.a(vsnprintf.o)
 .text          0x00000000        0x0 c:/program files (x86)/microchip/xc32/v1.44/bin/bin/../../lib/gcc/pic32mx/4.8.3/../../../../pic32mx/lib/fpu64\libc.a(_iob.o)
 .reginfo       0x00000000       0x18 c:/program files (x86)/microchip/xc32/v1.44/bin/bin/../../lib/gcc/pic32mx/4.8.3/../../../../pic32mx/lib/fpu64\libc.a(_iob.o)
 .text          0x00000000        0x0 c:/program files (x86)/microchip/xc32/v1.44/bin/bin/../../lib/gcc/pic32mx/4.8.3/../../../../pic32mx/lib/fpu64\libc.a(_fputc_simple.o)
 .data          0x00000000        0x0 c:/program files (x86)/microchip/xc32/v1.44/bin/bin/../../lib/gcc/pic32mx/4.8.3/../../../../pic32mx/lib/fpu64\libc.a(_fputc_simple.o)
 .bss           0x00000000        0x0 c:/program files (x86)/microchip/xc32/v1.44/bin/bin/../../lib/gcc/pic32mx/4.8.3/../../../../pic32mx/lib/fpu64\libc.a(_fputc_simple.o)
 .reginfo       0x00000000       0x18 c:/program files (x86)/microchip/xc32/v1.44/bin/bin/../../lib/gcc/pic32mx/4.8.3/../../../../pic32mx/lib/fpu64\libc.a(_fputc_simple.o)
 .text          0x00000000        0x0 c:/program files (x86)/microchip/xc32/v1.44/bin/bin/../../lib/gcc/pic32mx/4.8.3/../../../../pic32mx/lib/fpu64\libc.a(errno.o)
 .data          0x00000000        0x0 c:/program files (x86)/microchip/xc32/v1.44/bin/bin/../../lib/gcc/pic32mx/4.8.3/../../../../pic32mx/lib/fpu64\libc.a(errno.o)
 .bss           0x00000000        0x0 c:/program files (x86)/microchip/xc32/v1.44/bin/bin/../../lib/gcc/pic32mx/4.8.3/../../../../pic32mx/lib/fpu64\libc.a(errno.o)
 .reginfo       0x00000000       0x18 c:/program files (x86)/microchip/xc32/v1.44/bin/bin/../../lib/gcc/pic32mx/4.8.3/../../../../pic32mx/lib/fpu64\libc.a(errno.o)
 .text          0x00000000        0x0 c:/program files (x86)/microchip/xc32/v1.44/bin/bin/../../lib/gcc/pic32mx/4.8.3/../../../../pic32mx/lib/fpu64\libc.a(doprnt_cdnopsuxX.eo)
 .data          0x00000000        0x0 c:/program files (x86)/microchip/xc32/v1.44/bin/bin/../../lib/gcc/pic32mx/4.8.3/../../../../pic32mx/lib/fpu64\libc.a(doprnt_cdnopsuxX.eo)
 .bss           0x00000000        0x0 c:/program files (x86)/microchip/xc32/v1.44/bin/bin/../../lib/gcc/pic32mx/4.8.3/../../../../pic32mx/lib/fpu64\libc.a(doprnt_cdnopsuxX.eo)
 .reginfo       0x00000000       0x18 c:/program files (x86)/microchip/xc32/v1.44/bin/bin/../../lib/gcc/pic32mx/4.8.3/../../../../pic32mx/lib/fpu64\libc.a(doprnt_cdnopsuxX.eo)
 .text          0x00000000        0x0 c:/program files (x86)/microchip/xc32/v1.44/bin/bin/../../lib/gcc/pic32mx/4.8.3/../../../../pic32mx/lib/fpu64\libc.a(doprnt.o)
 .data          0x00000000        0x0 c:/program files (x86)/microchip/xc32/v1.44/bin/bin/../../lib/gcc/pic32mx/4.8.3/../../../../pic32mx/lib/fpu64\libc.a(doprnt.o)
 .bss           0x00000000        0x0 c:/program files (x86)/microchip/xc32/v1.44/bin/bin/../../lib/gcc/pic32mx/4.8.3/../../../../pic32mx/lib/fpu64\libc.a(doprnt.o)
 .reginfo       0x00000000       0x18 c:/program files (x86)/microchip/xc32/v1.44/bin/bin/../../lib/gcc/pic32mx/4.8.3/../../../../pic32mx/lib/fpu64\libc.a(doprnt.o)
 .text          0x00000000        0x0 c:/program files (x86)/microchip/xc32/v1.44/bin/bin/../../lib/gcc/pic32mx/4.8.3/../../../../pic32mx/lib/fpu64\libc.a(doscan_s.eo)
 .data          0x00000000        0x0 c:/program files (x86)/microchip/xc32/v1.44/bin/bin/../../lib/gcc/pic32mx/4.8.3/../../../../pic32mx/lib/fpu64\libc.a(doscan_s.eo)
 .reginfo       0x00000000       0x18 c:/program files (x86)/microchip/xc32/v1.44/bin/bin/../../lib/gcc/pic32mx/4.8.3/../../../../pic32mx/lib/fpu64\libc.a(doscan_s.eo)
 .text          0x00000000        0x0 c:/program files (x86)/microchip/xc32/v1.44/bin/bin/../../lib/gcc/pic32mx/4.8.3/../../../../pic32mx/lib/fpu64\libc.a(_flsbuf_simple.o)
 .data          0x00000000        0x0 c:/program files (x86)/microchip/xc32/v1.44/bin/bin/../../lib/gcc/pic32mx/4.8.3/../../../../pic32mx/lib/fpu64\libc.a(_flsbuf_simple.o)
 .bss           0x00000000        0x0 c:/program files (x86)/microchip/xc32/v1.44/bin/bin/../../lib/gcc/pic32mx/4.8.3/../../../../pic32mx/lib/fpu64\libc.a(_flsbuf_simple.o)
 .reginfo       0x00000000       0x18 c:/program files (x86)/microchip/xc32/v1.44/bin/bin/../../lib/gcc/pic32mx/4.8.3/../../../../pic32mx/lib/fpu64\libc.a(_flsbuf_simple.o)
 .text          0x00000000        0x0 c:/program files (x86)/microchip/xc32/v1.44/bin/bin/../../lib/gcc/pic32mx/4.8.3/../../../../pic32mx/lib/fpu64\libc.a(fgetc.o)
 .data          0x00000000        0x0 c:/program files (x86)/microchip/xc32/v1.44/bin/bin/../../lib/gcc/pic32mx/4.8.3/../../../../pic32mx/lib/fpu64\libc.a(fgetc.o)
 .bss           0x00000000        0x0 c:/program files (x86)/microchip/xc32/v1.44/bin/bin/../../lib/gcc/pic32mx/4.8.3/../../../../pic32mx/lib/fpu64\libc.a(fgetc.o)
 .reginfo       0x00000000       0x18 c:/program files (x86)/microchip/xc32/v1.44/bin/bin/../../lib/gcc/pic32mx/4.8.3/../../../../pic32mx/lib/fpu64\libc.a(fgetc.o)
 .text          0x00000000        0x0 c:/program files (x86)/microchip/xc32/v1.44/bin/bin/../../lib/gcc/pic32mx/4.8.3/../../../../pic32mx/lib/fpu64\libc.a(ldpowers.o)
 .data          0x00000000        0x0 c:/program files (x86)/microchip/xc32/v1.44/bin/bin/../../lib/gcc/pic32mx/4.8.3/../../../../pic32mx/lib/fpu64\libc.a(ldpowers.o)
 .bss           0x00000000        0x0 c:/program files (x86)/microchip/xc32/v1.44/bin/bin/../../lib/gcc/pic32mx/4.8.3/../../../../pic32mx/lib/fpu64\libc.a(ldpowers.o)
 .reginfo       0x00000000       0x18 c:/program files (x86)/microchip/xc32/v1.44/bin/bin/../../lib/gcc/pic32mx/4.8.3/../../../../pic32mx/lib/fpu64\libc.a(ldpowers.o)
 .text          0x00000000        0x0 c:/program files (x86)/microchip/xc32/v1.44/bin/bin/../../lib/gcc/pic32mx/4.8.3/../../../../pic32mx/lib/fpu64\libc.a(ungetc.o)
 .data          0x00000000        0x0 c:/program files (x86)/microchip/xc32/v1.44/bin/bin/../../lib/gcc/pic32mx/4.8.3/../../../../pic32mx/lib/fpu64\libc.a(ungetc.o)
 .bss           0x00000000        0x0 c:/program files (x86)/microchip/xc32/v1.44/bin/bin/../../lib/gcc/pic32mx/4.8.3/../../../../pic32mx/lib/fpu64\libc.a(ungetc.o)
 .reginfo       0x00000000       0x18 c:/program files (x86)/microchip/xc32/v1.44/bin/bin/../../lib/gcc/pic32mx/4.8.3/../../../../pic32mx/lib/fpu64\libc.a(ungetc.o)
 .text          0x00000000        0x0 c:/program files (x86)/microchip/xc32/v1.44/bin/bin/../../lib/gcc/pic32mx/4.8.3/../../../../pic32mx/lib/fpu64\libc.a(filbuf.o)
 .data          0x00000000        0x0 c:/program files (x86)/microchip/xc32/v1.44/bin/bin/../../lib/gcc/pic32mx/4.8.3/../../../../pic32mx/lib/fpu64\libc.a(filbuf.o)
 .bss           0x00000000        0x0 c:/program files (x86)/microchip/xc32/v1.44/bin/bin/../../lib/gcc/pic32mx/4.8.3/../../../../pic32mx/lib/fpu64\libc.a(filbuf.o)
 .reginfo       0x00000000       0x18 c:/program files (x86)/microchip/xc32/v1.44/bin/bin/../../lib/gcc/pic32mx/4.8.3/../../../../pic32mx/lib/fpu64\libc.a(filbuf.o)
 .text          0x00000000        0x0 c:/program files (x86)/microchip/xc32/v1.44/bin/bin/../../lib/gcc/pic32mx/4.8.3/../../../../pic32mx/lib/fpu64\libc.a(fflush.o)
 .data          0x00000000        0x0 c:/program files (x86)/microchip/xc32/v1.44/bin/bin/../../lib/gcc/pic32mx/4.8.3/../../../../pic32mx/lib/fpu64\libc.a(fflush.o)
 .bss           0x00000000        0x0 c:/program files (x86)/microchip/xc32/v1.44/bin/bin/../../lib/gcc/pic32mx/4.8.3/../../../../pic32mx/lib/fpu64\libc.a(fflush.o)
 .reginfo       0x00000000       0x18 c:/program files (x86)/microchip/xc32/v1.44/bin/bin/../../lib/gcc/pic32mx/4.8.3/../../../../pic32mx/lib/fpu64\libc.a(fflush.o)
 .text          0x00000000        0x0 c:/program files (x86)/microchip/xc32/v1.44/bin/bin/../../lib/gcc/pic32mx/4.8.3/../../../../pic32mx/lib/fpu64\libmfd.a(s_frexp.o)
 .data          0x00000000        0x0 c:/program files (x86)/microchip/xc32/v1.44/bin/bin/../../lib/gcc/pic32mx/4.8.3/../../../../pic32mx/lib/fpu64\libmfd.a(s_frexp.o)
 .bss           0x00000000        0x0 c:/program files (x86)/microchip/xc32/v1.44/bin/bin/../../lib/gcc/pic32mx/4.8.3/../../../../pic32mx/lib/fpu64\libmfd.a(s_frexp.o)
 .reginfo       0x00000000       0x18 c:/program files (x86)/microchip/xc32/v1.44/bin/bin/../../lib/gcc/pic32mx/4.8.3/../../../../pic32mx/lib/fpu64\libmfd.a(s_frexp.o)
 .data          0x00000000        0x0 c:/program files (x86)/microchip/xc32/v1.44/bin/bin/../../lib/gcc/pic32mx/4.8.3/fpu64\libgcc.a(_cmpdi2.o)
 .bss           0x00000000        0x0 c:/program files (x86)/microchip/xc32/v1.44/bin/bin/../../lib/gcc/pic32mx/4.8.3/fpu64\libgcc.a(_cmpdi2.o)
 .reginfo       0x00000000       0x18 c:/program files (x86)/microchip/xc32/v1.44/bin/bin/../../lib/gcc/pic32mx/4.8.3/fpu64\libgcc.a(_cmpdi2.o)
 .data          0x00000000        0x0 c:/program files (x86)/microchip/xc32/v1.44/bin/bin/../../lib/gcc/pic32mx/4.8.3/fpu64\libgcc.a(_umoddi3.o)
 .bss           0x00000000        0x0 c:/program files (x86)/microchip/xc32/v1.44/bin/bin/../../lib/gcc/pic32mx/4.8.3/fpu64\libgcc.a(_umoddi3.o)
 .reginfo       0x00000000       0x18 c:/program files (x86)/microchip/xc32/v1.44/bin/bin/../../lib/gcc/pic32mx/4.8.3/fpu64\libgcc.a(_umoddi3.o)
 .text          0x00000000        0x0 c:/program files (x86)/microchip/xc32/v1.44/bin/bin/../../lib/gcc/pic32mx/4.8.3/../../../../pic32mx/lib/fpu64\libpic32.a(sbrk.o)
 .data          0x00000000        0x0 c:/program files (x86)/microchip/xc32/v1.44/bin/bin/../../lib/gcc/pic32mx/4.8.3/../../../../pic32mx/lib/fpu64\libpic32.a(sbrk.o)
 .reginfo       0x00000000       0x18 c:/program files (x86)/microchip/xc32/v1.44/bin/bin/../../lib/gcc/pic32mx/4.8.3/../../../../pic32mx/lib/fpu64\libpic32.a(sbrk.o)
 .text.getpagesize
                0x00000000        0x8 c:/program files (x86)/microchip/xc32/v1.44/bin/bin/../../lib/gcc/pic32mx/4.8.3/../../../../pic32mx/lib/fpu64\libpic32.a(sbrk.o)
 .text          0x00000000        0x0 c:/program files (x86)/microchip/xc32/v1.44/bin/bin/../../lib/gcc/pic32mx/4.8.3/../../../../pic32mx/lib/fpu64\libpic32.a(read.o)
 .data          0x00000000        0x0 c:/program files (x86)/microchip/xc32/v1.44/bin/bin/../../lib/gcc/pic32mx/4.8.3/../../../../pic32mx/lib/fpu64\libpic32.a(read.o)
 .bss           0x00000000        0x0 c:/program files (x86)/microchip/xc32/v1.44/bin/bin/../../lib/gcc/pic32mx/4.8.3/../../../../pic32mx/lib/fpu64\libpic32.a(read.o)
 .reginfo       0x00000000       0x18 c:/program files (x86)/microchip/xc32/v1.44/bin/bin/../../lib/gcc/pic32mx/4.8.3/../../../../pic32mx/lib/fpu64\libpic32.a(read.o)
 .text          0x00000000        0x0 c:/program files (x86)/microchip/xc32/v1.44/bin/bin/../../lib/gcc/pic32mx/4.8.3/../../../../pic32mx/lib/fpu64\libpic32.a(write.o)
 .data          0x00000000        0x0 c:/program files (x86)/microchip/xc32/v1.44/bin/bin/../../lib/gcc/pic32mx/4.8.3/../../../../pic32mx/lib/fpu64\libpic32.a(write.o)
 .bss           0x00000000        0x0 c:/program files (x86)/microchip/xc32/v1.44/bin/bin/../../lib/gcc/pic32mx/4.8.3/../../../../pic32mx/lib/fpu64\libpic32.a(write.o)
 .reginfo       0x00000000       0x18 c:/program files (x86)/microchip/xc32/v1.44/bin/bin/../../lib/gcc/pic32mx/4.8.3/../../../../pic32mx/lib/fpu64\libpic32.a(write.o)
 .text          0x00000000        0x0 c:/program files (x86)/microchip/xc32/v1.44/bin/bin/../../lib/gcc/pic32mx/4.8.3/../../../../pic32mx/lib/fpu64\libpic32.a(xc32_uart.o)
 .data          0x00000000        0x0 c:/program files (x86)/microchip/xc32/v1.44/bin/bin/../../lib/gcc/pic32mx/4.8.3/../../../../pic32mx/lib/fpu64\libpic32.a(xc32_uart.o)
 .bss           0x00000000        0x0 c:/program files (x86)/microchip/xc32/v1.44/bin/bin/../../lib/gcc/pic32mx/4.8.3/../../../../pic32mx/lib/fpu64\libpic32.a(xc32_uart.o)
 .reginfo       0x00000000       0x18 c:/program files (x86)/microchip/xc32/v1.44/bin/bin/../../lib/gcc/pic32mx/4.8.3/../../../../pic32mx/lib/fpu64\libpic32.a(xc32_uart.o)
 .text          0x00000000        0x0 c:/program files (x86)/microchip/xc32/v1.44/bin/bin/../../lib/gcc/pic32mx/4.8.3/../../../../pic32mx/lib/fpu64\libpic32.a(_mon_putc.o)
 .data          0x00000000        0x0 c:/program files (x86)/microchip/xc32/v1.44/bin/bin/../../lib/gcc/pic32mx/4.8.3/../../../../pic32mx/lib/fpu64\libpic32.a(_mon_putc.o)
 .bss           0x00000000        0x0 c:/program files (x86)/microchip/xc32/v1.44/bin/bin/../../lib/gcc/pic32mx/4.8.3/../../../../pic32mx/lib/fpu64\libpic32.a(_mon_putc.o)
 .reginfo       0x00000000       0x18 c:/program files (x86)/microchip/xc32/v1.44/bin/bin/../../lib/gcc/pic32mx/4.8.3/../../../../pic32mx/lib/fpu64\libpic32.a(_mon_putc.o)

Memory Configuration

Name             Origin             Length             Attributes
kseg0_program_mem 0x9d000000         0x00200000         xr
kseg0_boot_mem   0x9fc004b0         0x00000000
kseg1_boot_mem   0xbfc00000         0x00000480
kseg1_boot_mem_4B0 0xbfc004b0         0x0000fa50
config_BFC0FF40  0xbfc0ff40         0x00000004
config_BFC0FF44  0xbfc0ff44         0x00000004
config_BFC0FF48  0xbfc0ff48         0x00000004
config_BFC0FF4C  0xbfc0ff4c         0x00000004
config_BFC0FF50  0xbfc0ff50         0x00000004
config_BFC0FF54  0xbfc0ff54         0x00000004
config_BFC0FF58  0xbfc0ff58         0x00000004
config_BFC0FF5C  0xbfc0ff5c         0x00000004
config_BFC0FF60  0xbfc0ff60         0x00000004
config_BFC0FF64  0xbfc0ff64         0x00000004
config_BFC0FF68  0xbfc0ff68         0x00000004
config_BFC0FF6C  0xbfc0ff6c         0x00000004
config_BFC0FF70  0xbfc0ff70         0x00000004
config_BFC0FF74  0xbfc0ff74         0x00000004
config_BFC0FF78  0xbfc0ff78         0x00000004
config_BFC0FF7C  0xbfc0ff7c         0x00000004
config_BFC0FFC0  0xbfc0ffc0         0x00000004
config_BFC0FFC4  0xbfc0ffc4         0x00000004
config_BFC0FFC8  0xbfc0ffc8         0x00000004
config_BFC0FFCC  0xbfc0ffcc         0x00000004
config_BFC0FFD0  0xbfc0ffd0         0x00000004
config_BFC0FFD4  0xbfc0ffd4         0x00000004
config_BFC0FFD8  0xbfc0ffd8         0x00000004
config_BFC0FFDC  0xbfc0ffdc         0x00000004
config_BFC0FFE0  0xbfc0ffe0         0x00000004
config_BFC0FFE4  0xbfc0ffe4         0x00000004
config_BFC0FFE8  0xbfc0ffe8         0x00000004
config_BFC0FFEC  0xbfc0ffec         0x00000004
config_BFC0FFF0  0xbfc0fff0         0x00000004
config_BFC0FFF4  0xbfc0fff4         0x00000004
config_BFC0FFF8  0xbfc0fff8         0x00000004
config_BFC0FFFC  0xbfc0fffc         0x00000004
lowerbootaliaslastpage 0xbfc10000         0x00004000
upperbootalias   0xbfc20000         0x0000ff00
config_BFC2FF40  0xbfc2ff40         0x00000004
config_BFC2FF44  0xbfc2ff44         0x00000004
config_BFC2FF48  0xbfc2ff48         0x00000004
config_BFC2FF4C  0xbfc2ff4c         0x00000004
config_BFC2FF50  0xbfc2ff50         0x00000004
config_BFC2FF54  0xbfc2ff54         0x00000004
config_BFC2FF58  0xbfc2ff58         0x00000004
config_BFC2FF5C  0xbfc2ff5c         0x00000004
config_BFC2FF60  0xbfc2ff60         0x00000004
config_BFC2FF64  0xbfc2ff64         0x00000004
config_BFC2FF68  0xbfc2ff68         0x00000004
config_BFC2FF6C  0xbfc2ff6c         0x00000004
config_BFC2FF70  0xbfc2ff70         0x00000004
config_BFC2FF74  0xbfc2ff74         0x00000004
config_BFC2FF78  0xbfc2ff78         0x00000004
config_BFC2FF7C  0xbfc2ff7c         0x00000004
config_BFC2FFC0  0xbfc2ffc0         0x00000004
config_BFC2FFC4  0xbfc2ffc4         0x00000004
config_BFC2FFC8  0xbfc2ffc8         0x00000004
config_BFC2FFCC  0xbfc2ffcc         0x00000004
config_BFC2FFD0  0xbfc2ffd0         0x00000004
config_BFC2FFD4  0xbfc2ffd4         0x00000004
config_BFC2FFD8  0xbfc2ffd8         0x00000004
config_BFC2FFDC  0xbfc2ffdc         0x00000004
config_BFC2FFE0  0xbfc2ffe0         0x00000004
config_BFC2FFE4  0xbfc2ffe4         0x00000004
config_BFC2FFE8  0xbfc2ffe8         0x00000004
config_BFC2FFEC  0xbfc2ffec         0x00000004
config_BFC2FFF0  0xbfc2fff0         0x00000004
config_BFC2FFF4  0xbfc2fff4         0x00000004
config_BFC2FFF8  0xbfc2fff8         0x00000004
config_BFC2FFFC  0xbfc2fffc         0x00000004
upperbootaliaslastpage 0xbfc30000         0x00004000
boot1            0xbfc40000         0x0000ff00
config_BFC4FF40  0xbfc4ff40         0x00000004
config_BFC4FF44  0xbfc4ff44         0x00000004
config_BFC4FF48  0xbfc4ff48         0x00000004
config_BFC4FF4C  0xbfc4ff4c         0x00000004
config_BFC4FF50  0xbfc4ff50         0x00000004
config_BFC4FF54  0xbfc4ff54         0x00000004
config_BFC4FF58  0xbfc4ff58         0x00000004
config_BFC4FF5C  0xbfc4ff5c         0x00000004
config_BFC4FF60  0xbfc4ff60         0x00000004
config_BFC4FF64  0xbfc4ff64         0x00000004
config_BFC4FF68  0xbfc4ff68         0x00000004
config_BFC4FF6C  0xbfc4ff6c         0x00000004
config_BFC4FF70  0xbfc4ff70         0x00000004
config_BFC4FF74  0xbfc4ff74         0x00000004
config_BFC4FF78  0xbfc4ff78         0x00000004
config_BFC4FF7C  0xbfc4ff7c         0x00000004
config_BFC4FFC0  0xbfc4ffc0         0x00000004
config_BFC4FFC4  0xbfc4ffc4         0x00000004
config_BFC4FFC8  0xbfc4ffc8         0x00000004
config_BFC4FFCC  0xbfc4ffcc         0x00000004
config_BFC4FFD0  0xbfc4ffd0         0x00000004
config_BFC4FFD4  0xbfc4ffd4         0x00000004
config_BFC4FFD8  0xbfc4ffd8         0x00000004
config_BFC4FFDC  0xbfc4ffdc         0x00000004
config_BFC4FFE0  0xbfc4ffe0         0x00000004
config_BFC4FFE4  0xbfc4ffe4         0x00000004
config_BFC4FFE8  0xbfc4ffe8         0x00000004
config_BFC4FFEC  0xbfc4ffec         0x00000004
config_BFC4FFF0  0xbfc4fff0         0x00000004
config_BFC4FFF4  0xbfc4fff4         0x00000004
config_BFC4FFF8  0xbfc4fff8         0x00000004
config_BFC4FFFC  0xbfc4fffc         0x00000004
boot1lastpage    0xbfc50000         0x00004000
config_BFC54000  0xbfc54000         0x00000004
config_BFC54004  0xbfc54004         0x00000004
config_BFC54008  0xbfc54008         0x00000004
config_BFC5400C  0xbfc5400c         0x00000004
config_BFC54010  0xbfc54010         0x00000004
config_BFC5401C  0xbfc5401c         0x00000004
config_BFC54020  0xbfc54020         0x00000004
config_BFC54024  0xbfc54024         0x00000004
boot2            0xbfc60000         0x0000ff00
config_BFC6FF40  0xbfc6ff40         0x00000004
config_BFC6FF44  0xbfc6ff44         0x00000004
config_BFC6FF48  0xbfc6ff48         0x00000004
config_BFC6FF4C  0xbfc6ff4c         0x00000004
config_BFC6FF50  0xbfc6ff50         0x00000004
config_BFC6FF54  0xbfc6ff54         0x00000004
config_BFC6FF58  0xbfc6ff58         0x00000004
config_BFC6FF5C  0xbfc6ff5c         0x00000004
config_BFC6FF60  0xbfc6ff60         0x00000004
config_BFC6FF64  0xbfc6ff64         0x00000004
config_BFC6FF68  0xbfc6ff68         0x00000004
config_BFC6FF6C  0xbfc6ff6c         0x00000004
config_BFC6FF70  0xbfc6ff70         0x00000004
config_BFC6FF74  0xbfc6ff74         0x00000004
config_BFC6FF78  0xbfc6ff78         0x00000004
config_BFC6FF7C  0xbfc6ff7c         0x00000004
config_BFC6FFC0  0xbfc6ffc0         0x00000004
config_BFC6FFC4  0xbfc6ffc4         0x00000004
config_BFC6FFC8  0xbfc6ffc8         0x00000004
config_BFC6FFCC  0xbfc6ffcc         0x00000004
config_BFC6FFD0  0xbfc6ffd0         0x00000004
config_BFC6FFD4  0xbfc6ffd4         0x00000004
config_BFC6FFD8  0xbfc6ffd8         0x00000004
config_BFC6FFDC  0xbfc6ffdc         0x00000004
config_BFC6FFE0  0xbfc6ffe0         0x00000004
config_BFC6FFE4  0xbfc6ffe4         0x00000004
config_BFC6FFE8  0xbfc6ffe8         0x00000004
config_BFC6FFEC  0xbfc6ffec         0x00000004
config_BFC6FFF0  0xbfc6fff0         0x00000004
config_BFC6FFF4  0xbfc6fff4         0x00000004
config_BFC6FFF8  0xbfc6fff8         0x00000004
config_BFC6FFFC  0xbfc6fffc         0x00000004
boot2lastpage    0xbfc70000         0x00004000
kseg0_data_mem   0x80000000         0x00080000         w !x
sfrs             0xbf800000         0x00100000
configsfrs_BFC0FF40 0xbfc0ff40         0x00000040
configsfrs_BFC0FFC0 0xbfc0ffc0         0x00000040
configsfrs_BFC2FF40 0xbfc2ff40         0x00000040
configsfrs_BFC2FFC0 0xbfc2ffc0         0x00000040
configsfrs_BFC4FF40 0xbfc4ff40         0x00000040
configsfrs_BFC4FFC0 0xbfc4ffc0         0x00000040
configsfrs_BFC54000 0xbfc54000         0x00000020
configsfrs_BFC6FF40 0xbfc6ff40         0x00000040
configsfrs_BFC6FFC0 0xbfc6ffc0         0x00000040
kseg2_ebi_data_mem 0xc0000000         0x04000000
kseg2_sqi_data_mem 0xd0000000         0x04000000
kseg3_ebi_data_mem 0xe0000000         0x04000000
kseg3_sqi_data_mem 0xf0000000         0x04000000
*default*        0x00000000         0xffffffff

Linker script and memory map

LOAD c:/program files (x86)/microchip/xc32/v1.44/bin/bin/../../lib/gcc/pic32mx/4.8.3/../../../../pic32mx/lib/./proc/32MZ2048EFH144/crt0_mips32r2.o
LOAD c:/program files (x86)/microchip/xc32/v1.44/bin/bin/../../lib/gcc/pic32mx/4.8.3/../../../../pic32mx/lib/fpu64\debug-exception-return.o
LOAD build/pic32mz_ef_sk/production/_ext/29024758/misc.o
LOAD build/pic32mz_ef_sk/production/_ext/354129722/bsp.o
LOAD build/pic32mz_ef_sk/production/_ext/854288108/net_pres_enc_glue.o
LOAD build/pic32mz_ef_sk/production/_ext/571564127/sys_clk_pic32mz.o
LOAD build/pic32mz_ef_sk/production/_ext/1868830280/sys_devcon.o
LOAD build/pic32mz_ef_sk/production/_ext/1868830280/sys_devcon_pic32mz.o
LOAD build/pic32mz_ef_sk/production/_ext/1868830280/sys_devcon_cache_pic32mz.o
LOAD build/pic32mz_ef_sk/production/_ext/1009894383/sys_ports_static.o
LOAD build/pic32mz_ef_sk/production/_ext/119080242/sys_reset.o
LOAD build/pic32mz_ef_sk/production/_ext/849053718/system_init.o
LOAD build/pic32mz_ef_sk/production/_ext/849053718/system_interrupt.o
LOAD build/pic32mz_ef_sk/production/_ext/849053718/system_exceptions.o
LOAD build/pic32mz_ef_sk/production/_ext/849053718/system_tasks.o
LOAD build/pic32mz_ef_sk/production/_ext/849053718/system_interrupt_a.o
LOAD build/pic32mz_ef_sk/production/_ext/849053718/rtos_hooks.o
LOAD build/pic32mz_ef_sk/production/_ext/1360937237/app.o
LOAD build/pic32mz_ef_sk/production/_ext/1360937237/main.o
LOAD build/pic32mz_ef_sk/production/_ext/1360937237/streamer.o
LOAD build/pic32mz_ef_sk/production/_ext/1360937237/ws_server.o
LOAD build/pic32mz_ef_sk/production/_ext/1360937237/http_print.o
LOAD build/pic32mz_ef_sk/production/_ext/1360937237/custom_http_app.o
LOAD build/pic32mz_ef_sk/production/_ext/1360937237/mpfs_img2.o
LOAD build/pic32mz_ef_sk/production/_ext/2046866571/adler32.o
LOAD build/pic32mz_ef_sk/production/_ext/2046866571/compress.o
LOAD build/pic32mz_ef_sk/production/_ext/2046866571/crc32.o
LOAD build/pic32mz_ef_sk/production/_ext/2046866571/deflate.o
LOAD build/pic32mz_ef_sk/production/_ext/2046866571/infback.o
LOAD build/pic32mz_ef_sk/production/_ext/2046866571/inffast.o
LOAD build/pic32mz_ef_sk/production/_ext/2046866571/inflate.o
LOAD build/pic32mz_ef_sk/production/_ext/2046866571/inftrees.o
LOAD build/pic32mz_ef_sk/production/_ext/2046866571/trees.o
LOAD build/pic32mz_ef_sk/production/_ext/2046866571/uncompr.o
LOAD build/pic32mz_ef_sk/production/_ext/2046866571/zutil.o
LOAD build/pic32mz_ef_sk/production/_ext/29024758/ecc.o
LOAD build/pic32mz_ef_sk/production/_ext/29024758/arc4.o
LOAD build/pic32mz_ef_sk/production/_ext/29024758/pwdbased.o
LOAD build/pic32mz_ef_sk/production/_ext/29024758/tfm.o
LOAD build/pic32mz_ef_sk/production/_ext/29024758/asn.o
LOAD build/pic32mz_ef_sk/production/_ext/29024758/des3.o
LOAD build/pic32mz_ef_sk/production/_ext/29024758/rsa.o
LOAD build/pic32mz_ef_sk/production/_ext/29024758/aes.o
LOAD build/pic32mz_ef_sk/production/_ext/29024758/md5.o
LOAD build/pic32mz_ef_sk/production/_ext/29024758/sha.o
LOAD build/pic32mz_ef_sk/production/_ext/29024758/sha256.o
LOAD build/pic32mz_ef_sk/production/_ext/29024758/sha512.o
LOAD build/pic32mz_ef_sk/production/_ext/29024758/hmac.o
LOAD build/pic32mz_ef_sk/production/_ext/29024758/hash.o
LOAD build/pic32mz_ef_sk/production/_ext/29024758/compress.o
LOAD build/pic32mz_ef_sk/production/_ext/29024758/crypto.o
LOAD build/pic32mz_ef_sk/production/_ext/29024758/coding.o
LOAD build/pic32mz_ef_sk/production/_ext/29024758/error.o
LOAD build/pic32mz_ef_sk/production/_ext/29024758/integer.o
LOAD build/pic32mz_ef_sk/production/_ext/29024758/logging.o
LOAD build/pic32mz_ef_sk/production/_ext/29024758/memory.o
LOAD build/pic32mz_ef_sk/production/_ext/29024758/wc_port.o
LOAD build/pic32mz_ef_sk/production/_ext/29024758/wolfmath.o
LOAD build/pic32mz_ef_sk/production/_ext/1697634946/drv_ethmac.o
LOAD build/pic32mz_ef_sk/production/_ext/1697634946/drv_ethmac_lib.o
LOAD build/pic32mz_ef_sk/production/_ext/521481140/drv_ethphy.o
LOAD build/pic32mz_ef_sk/production/_ext/521481140/drv_extphy_smsc8740.o
LOAD build/pic32mz_ef_sk/production/_ext/1470245908/drv_miim.o
LOAD build/pic32mz_ef_sk/production/_ext/184581597/drv_nvm.o
LOAD build/pic32mz_ef_sk/production/_ext/184581597/drv_nvm_erasewrite.o
LOAD build/pic32mz_ef_sk/production/_ext/941160041/drv_tmr.o
LOAD build/pic32mz_ef_sk/production/_ext/821589181/drv_usart.o
LOAD build/pic32mz_ef_sk/production/_ext/821589181/drv_usart_buffer_queue.o
LOAD build/pic32mz_ef_sk/production/_ext/821589181/drv_usart_read_write.o
LOAD build/pic32mz_ef_sk/production/_ext/871719959/net_pres.o
LOAD build/pic32mz_ef_sk/production/_ext/308321468/osal_freertos.o
LOAD build/pic32mz_ef_sk/production/_ext/1891376032/sys_command.o
LOAD build/pic32mz_ef_sk/production/_ext/598853952/sys_buffer.o
LOAD build/pic32mz_ef_sk/production/_ext/598853952/sys_queue.o
LOAD build/pic32mz_ef_sk/production/_ext/1434663852/sys_console.o
LOAD build/pic32mz_ef_sk/production/_ext/1434663852/sys_console_uart.o
LOAD build/pic32mz_ef_sk/production/_ext/2137108136/sys_debug.o
LOAD build/pic32mz_ef_sk/production/_ext/1750042194/sys_fs.o
LOAD build/pic32mz_ef_sk/production/_ext/1750042194/sys_fs_media_manager.o
LOAD build/pic32mz_ef_sk/production/_ext/614935175/mpfs.o
LOAD build/pic32mz_ef_sk/production/_ext/1042686532/sys_int_pic32.o
LOAD build/pic32mz_ef_sk/production/_ext/470001640/sys_random.o
LOAD build/pic32mz_ef_sk/production/_ext/2110151058/sys_tmr.o
LOAD build/pic32mz_ef_sk/production/_ext/1886247299/sys_fs_wrapper.o
LOAD build/pic32mz_ef_sk/production/_ext/1886247299/helpers.o
LOAD build/pic32mz_ef_sk/production/_ext/1164207549/ipv4.o
LOAD build/pic32mz_ef_sk/production/_ext/1164207549/ndp.o
LOAD build/pic32mz_ef_sk/production/_ext/1164207549/ipv6.o
LOAD build/pic32mz_ef_sk/production/_ext/1164207549/icmpv6.o
LOAD build/pic32mz_ef_sk/production/_ext/1164207549/tcp.o
LOAD build/pic32mz_ef_sk/production/_ext/1164207549/udp.o
LOAD build/pic32mz_ef_sk/production/_ext/1164207549/tcpip_heap_alloc.o
LOAD build/pic32mz_ef_sk/production/_ext/1164207549/tcpip_heap_internal.o
LOAD build/pic32mz_ef_sk/production/_ext/1164207549/arp.o
LOAD build/pic32mz_ef_sk/production/_ext/1164207549/dhcp.o
LOAD build/pic32mz_ef_sk/production/_ext/1164207549/dns.o
LOAD build/pic32mz_ef_sk/production/_ext/1164207549/http.o
LOAD build/pic32mz_ef_sk/production/_ext/1164207549/nbns.o
LOAD build/pic32mz_ef_sk/production/_ext/1164207549/smtp.o
LOAD build/pic32mz_ef_sk/production/_ext/1164207549/sntp.o
LOAD build/pic32mz_ef_sk/production/_ext/1164207549/zero_conf_helper.o
LOAD build/pic32mz_ef_sk/production/_ext/1164207549/zero_conf_link_local.o
LOAD build/pic32mz_ef_sk/production/_ext/1164207549/tcpip_announce.o
LOAD build/pic32mz_ef_sk/production/_ext/1164207549/tcpip_commands.o
LOAD build/pic32mz_ef_sk/production/_ext/1164207549/hash_fnv.o
LOAD build/pic32mz_ef_sk/production/_ext/1164207549/oahash.o
LOAD build/pic32mz_ef_sk/production/_ext/1164207549/tcpip_helpers.o
LOAD build/pic32mz_ef_sk/production/_ext/1164207549/tcpip_helper_c32.o
LOAD build/pic32mz_ef_sk/production/_ext/1164207549/tcpip_manager.o
LOAD build/pic32mz_ef_sk/production/_ext/1164207549/tcpip_notify.o
LOAD build/pic32mz_ef_sk/production/_ext/1164207549/tcpip_packet.o
LOAD build/pic32mz_ef_sk/production/_ext/1107379230/heap_1.o
LOAD build/pic32mz_ef_sk/production/_ext/1282498061/port.o
LOAD build/pic32mz_ef_sk/production/_ext/1282498061/port_asm.o
LOAD build/pic32mz_ef_sk/production/_ext/373060831/croutine.o
LOAD build/pic32mz_ef_sk/production/_ext/373060831/list.o
LOAD build/pic32mz_ef_sk/production/_ext/373060831/queue.o
LOAD build/pic32mz_ef_sk/production/_ext/373060831/tasks.o
LOAD build/pic32mz_ef_sk/production/_ext/373060831/timers.o
LOAD build/pic32mz_ef_sk/production/_ext/373060831/event_groups.o
LOAD build/pic32mz_ef_sk/production/_ext/1360937237/websocket.o
LOAD build/pic32mz_ef_sk/production/_ext/1360937237/websocket_thread.o
LOAD build/pic32mz_ef_sk/production/_ext/1164207549/icmp.o
LOAD ..\..\..\..\..\bin\framework\peripheral\PIC32MZ2048EFH144_peripherals.a
                0x00000001                __MPLAB_BUILD = 0x1
                0x0001f400                _min_heap_size = 0x1f400
                0x00000800                _min_stack_size = 0x800
                0x9d010000                _ebase_address = 0x9d010000
LOAD c:/program files (x86)/microchip/xc32/v1.44/bin/bin/../../lib/gcc/pic32mx/4.8.3/../../../../pic32mx/lib/./proc/32MZ2048EFH144\default_isr_vectors.o
LOAD c:/program files (x86)/microchip/xc32/v1.44/bin/bin/../../lib/gcc/pic32mx/4.8.3/../../../../pic32mx/lib/fpu64\pic32_software_reset.o
                0x00000400                PROVIDE (_min_stack_size, 0x400)
LOAD c:/program files (x86)/microchip/xc32/v1.44/bin/bin/../../lib/gcc/pic32mx/4.8.3/../../../../pic32mx/lib/./proc/32MZ2048EFH144\processor.o
START GROUP
LOAD c:/program files (x86)/microchip/xc32/v1.44/bin/bin/../../lib/gcc/pic32mx/4.8.3/../../../../pic32mx/lib/./proc/32MZ2048EFH144\vector_offset_init.o
END GROUP
                0x00000001                PROVIDE (_vector_spacing, 0x1)
                0x9d000000                PROVIDE (_ebase_address, 0x9d000000)
                0xbfc00000                _RESET_ADDR = 0xbfc00000
                0xbfc00380                _BEV_EXCPT_ADDR = 0xbfc00380
                0xbfc00480                _DBG_EXCPT_ADDR = 0xbfc00480
                0x9d010000                _SIMPLE_TLB_REFILL_EXCPT_ADDR = (_ebase_address + 0x0)
                0x9d010100                _CACHE_ERR_EXCPT_ADDR = (_ebase_address + 0x100)
                0x9d010180                _GEN_EXCPT_ADDR = (_ebase_address + 0x180)

.config_BFC0FF40
 *(.config_BFC0FF40)

.config_BFC0FF44
 *(.config_BFC0FF44)

.config_BFC0FF48
 *(.config_BFC0FF48)

.config_BFC0FF4C
 *(.config_BFC0FF4C)

.config_BFC0FF50
 *(.config_BFC0FF50)

.config_BFC0FF54
 *(.config_BFC0FF54)

.config_BFC0FF58
 *(.config_BFC0FF58)

.config_BFC0FF5C
 *(.config_BFC0FF5C)

.config_BFC0FF60
 *(.config_BFC0FF60)

.config_BFC0FF64
 *(.config_BFC0FF64)

.config_BFC0FF68
 *(.config_BFC0FF68)

.config_BFC0FF6C
 *(.config_BFC0FF6C)

.config_BFC0FF70
 *(.config_BFC0FF70)

.config_BFC0FF74
 *(.config_BFC0FF74)

.config_BFC0FF78
 *(.config_BFC0FF78)

.config_BFC0FF7C
 *(.config_BFC0FF7C)

.config_BFC0FFC0
                0xbfc0ffc0        0x4
 *(.config_BFC0FFC0)
 .config_BFC0FFC0
                0xbfc0ffc0        0x4 build/pic32mz_ef_sk/production/_ext/849053718/system_init.o

.config_BFC0FFC4
                0xbfc0ffc4        0x4
 *(.config_BFC0FFC4)
 .config_BFC0FFC4
                0xbfc0ffc4        0x4 build/pic32mz_ef_sk/production/_ext/849053718/system_init.o

.config_BFC0FFC8
                0xbfc0ffc8        0x4
 *(.config_BFC0FFC8)
 .config_BFC0FFC8
                0xbfc0ffc8        0x4 build/pic32mz_ef_sk/production/_ext/849053718/system_init.o

.config_BFC0FFCC
                0xbfc0ffcc        0x4
 *(.config_BFC0FFCC)
 .config_BFC0FFCC
                0xbfc0ffcc        0x4 build/pic32mz_ef_sk/production/_ext/849053718/system_init.o

.config_BFC0FFD0
 *(.config_BFC0FFD0)

.config_BFC0FFD4
 *(.config_BFC0FFD4)

.config_BFC0FFD8
 *(.config_BFC0FFD8)

.config_BFC0FFDC
                0xbfc0ffdc        0x4
 *(.config_BFC0FFDC)
 .config_BFC0FFDC
                0xbfc0ffdc        0x4 build/pic32mz_ef_sk/production/_ext/849053718/system_init.o

.config_BFC0FFE0
 *(.config_BFC0FFE0)

.config_BFC0FFE4
 *(.config_BFC0FFE4)

.config_BFC0FFE8
 *(.config_BFC0FFE8)

.config_BFC0FFEC
 *(.config_BFC0FFEC)

.config_BFC0FFF0
                0xbfc0fff0        0x4
 *(.config_BFC0FFF0)
 .config_BFC0FFF0
                0xbfc0fff0        0x4 build/pic32mz_ef_sk/production/_ext/849053718/system_init.o

.config_BFC0FFF4
 *(.config_BFC0FFF4)

.config_BFC0FFF8
 *(.config_BFC0FFF8)

.config_BFC0FFFC
 *(.config_BFC0FFFC)

.config_BFC2FF40
 *(.config_BFC2FF40)

.config_BFC2FF44
 *(.config_BFC2FF44)

.config_BFC2FF48
 *(.config_BFC2FF48)

.config_BFC2FF4C
 *(.config_BFC2FF4C)

.config_BFC2FF50
 *(.config_BFC2FF50)

.config_BFC2FF54
 *(.config_BFC2FF54)

.config_BFC2FF58
 *(.config_BFC2FF58)

.config_BFC2FF5C
 *(.config_BFC2FF5C)

.config_BFC2FF60
 *(.config_BFC2FF60)

.config_BFC2FF64
 *(.config_BFC2FF64)

.config_BFC2FF68
 *(.config_BFC2FF68)

.config_BFC2FF6C
 *(.config_BFC2FF6C)

.config_BFC2FF70
 *(.config_BFC2FF70)

.config_BFC2FF74
 *(.config_BFC2FF74)

.config_BFC2FF78
 *(.config_BFC2FF78)

.config_BFC2FF7C
 *(.config_BFC2FF7C)

.config_BFC2FFC0
 *(.config_BFC2FFC0)

.config_BFC2FFC4
 *(.config_BFC2FFC4)

.config_BFC2FFC8
 *(.config_BFC2FFC8)

.config_BFC2FFCC
 *(.config_BFC2FFCC)

.config_BFC2FFD0
 *(.config_BFC2FFD0)

.config_BFC2FFD4
 *(.config_BFC2FFD4)

.config_BFC2FFD8
 *(.config_BFC2FFD8)

.config_BFC2FFDC
 *(.config_BFC2FFDC)

.config_BFC2FFE0
 *(.config_BFC2FFE0)

.config_BFC2FFE4
 *(.config_BFC2FFE4)

.config_BFC2FFE8
 *(.config_BFC2FFE8)

.config_BFC2FFEC
 *(.config_BFC2FFEC)

.config_BFC2FFF0
 *(.config_BFC2FFF0)

.config_BFC2FFF4
 *(.config_BFC2FFF4)

.config_BFC2FFF8
 *(.config_BFC2FFF8)

.config_BFC2FFFC
 *(.config_BFC2FFFC)

.config_BFC4FF40
 *(.config_BFC4FF40)

.config_BFC4FF44
 *(.config_BFC4FF44)

.config_BFC4FF48
 *(.config_BFC4FF48)

.config_BFC4FF4C
 *(.config_BFC4FF4C)

.config_BFC4FF50
 *(.config_BFC4FF50)

.config_BFC4FF54
 *(.config_BFC4FF54)

.config_BFC4FF58
 *(.config_BFC4FF58)

.config_BFC4FF5C
 *(.config_BFC4FF5C)

.config_BFC4FF60
 *(.config_BFC4FF60)

.config_BFC4FF64
 *(.config_BFC4FF64)

.config_BFC4FF68
 *(.config_BFC4FF68)

.config_BFC4FF6C
 *(.config_BFC4FF6C)

.config_BFC4FF70
 *(.config_BFC4FF70)

.config_BFC4FF74
 *(.config_BFC4FF74)

.config_BFC4FF78
 *(.config_BFC4FF78)

.config_BFC4FF7C
 *(.config_BFC4FF7C)

.config_BFC4FFC0
 *(.config_BFC4FFC0)

.config_BFC4FFC4
 *(.config_BFC4FFC4)

.config_BFC4FFC8
 *(.config_BFC4FFC8)

.config_BFC4FFCC
 *(.config_BFC4FFCC)

.config_BFC4FFD0
 *(.config_BFC4FFD0)

.config_BFC4FFD4
 *(.config_BFC4FFD4)

.config_BFC4FFD8
 *(.config_BFC4FFD8)

.config_BFC4FFDC
 *(.config_BFC4FFDC)

.config_BFC4FFE0
 *(.config_BFC4FFE0)

.config_BFC4FFE4
 *(.config_BFC4FFE4)

.config_BFC4FFE8
 *(.config_BFC4FFE8)

.config_BFC4FFEC
 *(.config_BFC4FFEC)

.config_BFC4FFF0
 *(.config_BFC4FFF0)

.config_BFC4FFF4
 *(.config_BFC4FFF4)

.config_BFC4FFF8
 *(.config_BFC4FFF8)

.config_BFC4FFFC
 *(.config_BFC4FFFC)

.config_BFC54000
 *(.config_BFC54000)

.config_BFC54004
 *(.config_BFC54004)

.config_BFC54008
 *(.config_BFC54008)

.config_BFC5400C
 *(.config_BFC5400C)

.config_BFC54010
 *(.config_BFC54010)

.config_BFC5401C
 *(.config_BFC5401C)

.config_BFC54020
 *(.config_BFC54020)

.config_BFC54024
 *(.config_BFC54024)

.config_BFC6FF40
 *(.config_BFC6FF40)

.config_BFC6FF44
 *(.config_BFC6FF44)

.config_BFC6FF48
 *(.config_BFC6FF48)

.config_BFC6FF4C
 *(.config_BFC6FF4C)

.config_BFC6FF50
 *(.config_BFC6FF50)

.config_BFC6FF54
 *(.config_BFC6FF54)

.config_BFC6FF58
 *(.config_BFC6FF58)

.config_BFC6FF5C
 *(.config_BFC6FF5C)

.config_BFC6FF60
 *(.config_BFC6FF60)

.config_BFC6FF64
 *(.config_BFC6FF64)

.config_BFC6FF68
 *(.config_BFC6FF68)

.config_BFC6FF6C
 *(.config_BFC6FF6C)

.config_BFC6FF70
 *(.config_BFC6FF70)

.config_BFC6FF74
 *(.config_BFC6FF74)

.config_BFC6FF78
 *(.config_BFC6FF78)

.config_BFC6FF7C
 *(.config_BFC6FF7C)

.config_BFC6FFC0
 *(.config_BFC6FFC0)

.config_BFC6FFC4
 *(.config_BFC6FFC4)

.config_BFC6FFC8
 *(.config_BFC6FFC8)

.config_BFC6FFCC
 *(.config_BFC6FFCC)

.config_BFC6FFD0
 *(.config_BFC6FFD0)

.config_BFC6FFD4
 *(.config_BFC6FFD4)

.config_BFC6FFD8
 *(.config_BFC6FFD8)

.config_BFC6FFDC
 *(.config_BFC6FFDC)

.config_BFC6FFE0
 *(.config_BFC6FFE0)

.config_BFC6FFE4
 *(.config_BFC6FFE4)

.config_BFC6FFE8
 *(.config_BFC6FFE8)

.config_BFC6FFEC
 *(.config_BFC6FFEC)

.config_BFC6FFF0
 *(.config_BFC6FFF0)

.config_BFC6FFF4
 *(.config_BFC6FFF4)

.config_BFC6FFF8
 *(.config_BFC6FFF8)

.config_BFC6FFFC
 *(.config_BFC6FFFC)

.reset          0xbfc00000      0x220
 *(.reset)
 .reset         0xbfc00000       0x18 c:/program files (x86)/microchip/xc32/v1.44/bin/bin/../../lib/gcc/pic32mx/4.8.3/../../../../pic32mx/lib/./proc/32MZ2048EFH144/crt0_mips32r2.o
                0xbfc00000                _reset
 *(.reset.startup)
 .reset.startup
                0xbfc00018      0x208 c:/program files (x86)/microchip/xc32/v1.44/bin/bin/../../lib/gcc/pic32mx/4.8.3/../../../../pic32mx/lib/./proc/32MZ2048EFH144/crt0_mips32r2.o
                0xbfc00018                _startup

.bev_excpt      0xbfc00380       0x10
 *(.bev_handler)
 .bev_handler   0xbfc00380       0x10 c:/program files (x86)/microchip/xc32/v1.44/bin/bin/../../lib/gcc/pic32mx/4.8.3/../../../../pic32mx/lib/./proc/32MZ2048EFH144/crt0_mips32r2.o

.cache_init     0xbfc004b0      0x19c
 *(.cache_init)
 *(.cache_init.*)
 .cache_init.cache
                0xbfc004b0       0xc0 c:/program files (x86)/microchip/xc32/v1.44/bin/bin/../../lib/gcc/pic32mx/4.8.3/../../../../pic32mx/lib/fpu64\libpic32.a(pic32_init_cache.o)
 .cache_init.pic32_init_cache
                0xbfc00570       0xdc c:/program files (x86)/microchip/xc32/v1.44/bin/bin/../../lib/gcc/pic32mx/4.8.3/../../../../pic32mx/lib/fpu64\libpic32.a(pic32_init_cache.o)
                0xbfc00570                __pic32_init_cache

.simple_tlb_refill_excpt
                0x9d010000       0x10
 *(.simple_tlb_refill_vector)
 .simple_tlb_refill_vector
                0x9d010000       0x10 c:/program files (x86)/microchip/xc32/v1.44/bin/bin/../../lib/gcc/pic32mx/4.8.3/../../../../pic32mx/lib/./proc/32MZ2048EFH144/crt0_mips32r2.o

.cache_err_excpt
                0x9d010100       0x10
 *(.cache_err_vector)
 .cache_err_vector
                0x9d010100       0x10 c:/program files (x86)/microchip/xc32/v1.44/bin/bin/../../lib/gcc/pic32mx/4.8.3/../../../../pic32mx/lib/./proc/32MZ2048EFH144/crt0_mips32r2.o

.app_excpt      0x9d010180       0x10
 *(.gen_handler)
 .gen_handler   0x9d010180       0x10 c:/program files (x86)/microchip/xc32/v1.44/bin/bin/../../lib/gcc/pic32mx/4.8.3/../../../../pic32mx/lib/./proc/32MZ2048EFH144/crt0_mips32r2.o

.vectors        0x9d010200     0x1204
                0x000013bc                __vector_offset_0 = DEFINED (__vector_dispatch_0)?(. - _ebase_address):__vector_offset_default
 *(.vector_0)
                0x00000200                __vector_offset_1 = DEFINED (__vector_dispatch_1)?(. - _ebase_address):__vector_offset_default
 *(.vector_1)
 .vector_1      0x9d010200      0x258 build/pic32mz_ef_sk/production/_ext/1282498061/port_asm.o
                0x9d010200                __vector_dispatch_1
                0x9d010200                vPortYieldISR
                0x000013bc                __vector_offset_2 = DEFINED (__vector_dispatch_2)?(. - _ebase_address):__vector_offset_default
 *(.vector_2)
                0x000013bc                __vector_offset_3 = DEFINED (__vector_dispatch_3)?(. - _ebase_address):__vector_offset_default
 *(.vector_3)
                0x00000458                __vector_offset_4 = DEFINED (__vector_dispatch_4)?(. - _ebase_address):__vector_offset_default
 *(.vector_4)
 .vector_4      0x9d010458      0x22c build/pic32mz_ef_sk/production/_ext/1282498061/port_asm.o
                0x9d010458                vPortTickInterruptHandler
                0x9d010458                __vector_dispatch_4
                0x000013bc                __vector_offset_5 = DEFINED (__vector_dispatch_5)?(. - _ebase_address):__vector_offset_default
 *(.vector_5)
                0x000013bc                __vector_offset_6 = DEFINED (__vector_dispatch_6)?(. - _ebase_address):__vector_offset_default
 *(.vector_6)
                0x000013bc                __vector_offset_7 = DEFINED (__vector_dispatch_7)?(. - _ebase_address):__vector_offset_default
 *(.vector_7)
                0x000013bc                __vector_offset_8 = DEFINED (__vector_dispatch_8)?(. - _ebase_address):__vector_offset_default
 *(.vector_8)
                0x00000684                __vector_offset_9 = DEFINED (__vector_dispatch_9)?(. - _ebase_address):__vector_offset_default
 *(.vector_9)
 .vector_9      0x9d010684      0x234 build/pic32mz_ef_sk/production/_ext/849053718/system_interrupt_a.o
                0x9d010684                __vector_dispatch_9
                0x000013bc                __vector_offset_10 = DEFINED (__vector_dispatch_10)?(. - _ebase_address):__vector_offset_default
 *(.vector_10)
                0x000013bc                __vector_offset_11 = DEFINED (__vector_dispatch_11)?(. - _ebase_address):__vector_offset_default
 *(.vector_11)
                0x000013bc                __vector_offset_12 = DEFINED (__vector_dispatch_12)?(. - _ebase_address):__vector_offset_default
 *(.vector_12)
                0x000013bc                __vector_offset_13 = DEFINED (__vector_dispatch_13)?(. - _ebase_address):__vector_offset_default
 *(.vector_13)
                0x000013bc                __vector_offset_14 = DEFINED (__vector_dispatch_14)?(. - _ebase_address):__vector_offset_default
 *(.vector_14)
                0x000013bc                __vector_offset_15 = DEFINED (__vector_dispatch_15)?(. - _ebase_address):__vector_offset_default
 *(.vector_15)
                0x000013bc                __vector_offset_16 = DEFINED (__vector_dispatch_16)?(. - _ebase_address):__vector_offset_default
 *(.vector_16)
                0x000013bc                __vector_offset_17 = DEFINED (__vector_dispatch_17)?(. - _ebase_address):__vector_offset_default
 *(.vector_17)
                0x000013bc                __vector_offset_18 = DEFINED (__vector_dispatch_18)?(. - _ebase_address):__vector_offset_default
 *(.vector_18)
                0x000013bc                __vector_offset_19 = DEFINED (__vector_dispatch_19)?(. - _ebase_address):__vector_offset_default
 *(.vector_19)
                0x000013bc                __vector_offset_20 = DEFINED (__vector_dispatch_20)?(. - _ebase_address):__vector_offset_default
 *(.vector_20)
                0x000013bc                __vector_offset_21 = DEFINED (__vector_dispatch_21)?(. - _ebase_address):__vector_offset_default
 *(.vector_21)
                0x000013bc                __vector_offset_22 = DEFINED (__vector_dispatch_22)?(. - _ebase_address):__vector_offset_default
 *(.vector_22)
                0x000013bc                __vector_offset_23 = DEFINED (__vector_dispatch_23)?(. - _ebase_address):__vector_offset_default
 *(.vector_23)
                0x000013bc                __vector_offset_24 = DEFINED (__vector_dispatch_24)?(. - _ebase_address):__vector_offset_default
 *(.vector_24)
                0x000013bc                __vector_offset_25 = DEFINED (__vector_dispatch_25)?(. - _ebase_address):__vector_offset_default
 *(.vector_25)
                0x000013bc                __vector_offset_26 = DEFINED (__vector_dispatch_26)?(. - _ebase_address):__vector_offset_default
 *(.vector_26)
                0x000013bc                __vector_offset_27 = DEFINED (__vector_dispatch_27)?(. - _ebase_address):__vector_offset_default
 *(.vector_27)
                0x000013bc                __vector_offset_28 = DEFINED (__vector_dispatch_28)?(. - _ebase_address):__vector_offset_default
 *(.vector_28)
                0x000013bc                __vector_offset_29 = DEFINED (__vector_dispatch_29)?(. - _ebase_address):__vector_offset_default
 *(.vector_29)
                0x000013bc                __vector_offset_30 = DEFINED (__vector_dispatch_30)?(. - _ebase_address):__vector_offset_default
 *(.vector_30)
                0x000013bc                __vector_offset_31 = DEFINED (__vector_dispatch_31)?(. - _ebase_address):__vector_offset_default
 *(.vector_31)
                0x000013bc                __vector_offset_32 = DEFINED (__vector_dispatch_32)?(. - _ebase_address):__vector_offset_default
 *(.vector_32)
                0x000013bc                __vector_offset_33 = DEFINED (__vector_dispatch_33)?(. - _ebase_address):__vector_offset_default
 *(.vector_33)
                0x000013bc                __vector_offset_34 = DEFINED (__vector_dispatch_34)?(. - _ebase_address):__vector_offset_default
 *(.vector_34)
                0x000013bc                __vector_offset_35 = DEFINED (__vector_dispatch_35)?(. - _ebase_address):__vector_offset_default
 *(.vector_35)
                0x000013bc                __vector_offset_36 = DEFINED (__vector_dispatch_36)?(. - _ebase_address):__vector_offset_default
 *(.vector_36)
                0x000013bc                __vector_offset_37 = DEFINED (__vector_dispatch_37)?(. - _ebase_address):__vector_offset_default
 *(.vector_37)
                0x000013bc                __vector_offset_38 = DEFINED (__vector_dispatch_38)?(. - _ebase_address):__vector_offset_default
 *(.vector_38)
                0x000013bc                __vector_offset_39 = DEFINED (__vector_dispatch_39)?(. - _ebase_address):__vector_offset_default
 *(.vector_39)
                0x000013bc                __vector_offset_40 = DEFINED (__vector_dispatch_40)?(. - _ebase_address):__vector_offset_default
 *(.vector_40)
                0x000013bc                __vector_offset_41 = DEFINED (__vector_dispatch_41)?(. - _ebase_address):__vector_offset_default
 *(.vector_41)
                0x000013bc                __vector_offset_42 = DEFINED (__vector_dispatch_42)?(. - _ebase_address):__vector_offset_default
 *(.vector_42)
                0x000013bc                __vector_offset_43 = DEFINED (__vector_dispatch_43)?(. - _ebase_address):__vector_offset_default
 *(.vector_43)
                0x000013bc                __vector_offset_44 = DEFINED (__vector_dispatch_44)?(. - _ebase_address):__vector_offset_default
 *(.vector_44)
                0x000013bc                __vector_offset_45 = DEFINED (__vector_dispatch_45)?(. - _ebase_address):__vector_offset_default
 *(.vector_45)
                0x000013bc                __vector_offset_46 = DEFINED (__vector_dispatch_46)?(. - _ebase_address):__vector_offset_default
 *(.vector_46)
                0x000013bc                __vector_offset_47 = DEFINED (__vector_dispatch_47)?(. - _ebase_address):__vector_offset_default
 *(.vector_47)
                0x000013bc                __vector_offset_48 = DEFINED (__vector_dispatch_48)?(. - _ebase_address):__vector_offset_default
 *(.vector_48)
                0x000013bc                __vector_offset_49 = DEFINED (__vector_dispatch_49)?(. - _ebase_address):__vector_offset_default
 *(.vector_49)
                0x000013bc                __vector_offset_50 = DEFINED (__vector_dispatch_50)?(. - _ebase_address):__vector_offset_default
 *(.vector_50)
                0x000013bc                __vector_offset_51 = DEFINED (__vector_dispatch_51)?(. - _ebase_address):__vector_offset_default
 *(.vector_51)
                0x000013bc                __vector_offset_52 = DEFINED (__vector_dispatch_52)?(. - _ebase_address):__vector_offset_default
 *(.vector_52)
                0x000013bc                __vector_offset_53 = DEFINED (__vector_dispatch_53)?(. - _ebase_address):__vector_offset_default
 *(.vector_53)
                0x000013bc                __vector_offset_54 = DEFINED (__vector_dispatch_54)?(. - _ebase_address):__vector_offset_default
 *(.vector_54)
                0x000013bc                __vector_offset_55 = DEFINED (__vector_dispatch_55)?(. - _ebase_address):__vector_offset_default
 *(.vector_55)
                0x000013bc                __vector_offset_56 = DEFINED (__vector_dispatch_56)?(. - _ebase_address):__vector_offset_default
 *(.vector_56)
                0x000013bc                __vector_offset_57 = DEFINED (__vector_dispatch_57)?(. - _ebase_address):__vector_offset_default
 *(.vector_57)
                0x000013bc                __vector_offset_58 = DEFINED (__vector_dispatch_58)?(. - _ebase_address):__vector_offset_default
 *(.vector_58)
                0x000013bc                __vector_offset_59 = DEFINED (__vector_dispatch_59)?(. - _ebase_address):__vector_offset_default
 *(.vector_59)
                0x000013bc                __vector_offset_60 = DEFINED (__vector_dispatch_60)?(. - _ebase_address):__vector_offset_default
 *(.vector_60)
                0x000013bc                __vector_offset_61 = DEFINED (__vector_dispatch_61)?(. - _ebase_address):__vector_offset_default
 *(.vector_61)
                0x000013bc                __vector_offset_62 = DEFINED (__vector_dispatch_62)?(. - _ebase_address):__vector_offset_default
 *(.vector_62)
                0x000013bc                __vector_offset_63 = DEFINED (__vector_dispatch_63)?(. - _ebase_address):__vector_offset_default
 *(.vector_63)
                0x000013bc                __vector_offset_64 = DEFINED (__vector_dispatch_64)?(. - _ebase_address):__vector_offset_default
 *(.vector_64)
                0x000013bc                __vector_offset_65 = DEFINED (__vector_dispatch_65)?(. - _ebase_address):__vector_offset_default
 *(.vector_65)
                0x000013bc                __vector_offset_66 = DEFINED (__vector_dispatch_66)?(. - _ebase_address):__vector_offset_default
 *(.vector_66)
                0x000013bc                __vector_offset_67 = DEFINED (__vector_dispatch_67)?(. - _ebase_address):__vector_offset_default
 *(.vector_67)
                0x000013bc                __vector_offset_68 = DEFINED (__vector_dispatch_68)?(. - _ebase_address):__vector_offset_default
 *(.vector_68)
                0x000013bc                __vector_offset_69 = DEFINED (__vector_dispatch_69)?(. - _ebase_address):__vector_offset_default
 *(.vector_69)
                0x000013bc                __vector_offset_70 = DEFINED (__vector_dispatch_70)?(. - _ebase_address):__vector_offset_default
 *(.vector_70)
                0x000013bc                __vector_offset_71 = DEFINED (__vector_dispatch_71)?(. - _ebase_address):__vector_offset_default
 *(.vector_71)
                0x000013bc                __vector_offset_72 = DEFINED (__vector_dispatch_72)?(. - _ebase_address):__vector_offset_default
 *(.vector_72)
                0x000013bc                __vector_offset_73 = DEFINED (__vector_dispatch_73)?(. - _ebase_address):__vector_offset_default
 *(.vector_73)
                0x000013bc                __vector_offset_74 = DEFINED (__vector_dispatch_74)?(. - _ebase_address):__vector_offset_default
 *(.vector_74)
                0x000013bc                __vector_offset_75 = DEFINED (__vector_dispatch_75)?(. - _ebase_address):__vector_offset_default
 *(.vector_75)
                0x000013bc                __vector_offset_76 = DEFINED (__vector_dispatch_76)?(. - _ebase_address):__vector_offset_default
 *(.vector_76)
                0x000013bc                __vector_offset_77 = DEFINED (__vector_dispatch_77)?(. - _ebase_address):__vector_offset_default
 *(.vector_77)
                0x000013bc                __vector_offset_78 = DEFINED (__vector_dispatch_78)?(. - _ebase_address):__vector_offset_default
 *(.vector_78)
                0x000013bc                __vector_offset_79 = DEFINED (__vector_dispatch_79)?(. - _ebase_address):__vector_offset_default
 *(.vector_79)
                0x000013bc                __vector_offset_80 = DEFINED (__vector_dispatch_80)?(. - _ebase_address):__vector_offset_default
 *(.vector_80)
                0x000013bc                __vector_offset_81 = DEFINED (__vector_dispatch_81)?(. - _ebase_address):__vector_offset_default
 *(.vector_81)
                0x000013bc                __vector_offset_82 = DEFINED (__vector_dispatch_82)?(. - _ebase_address):__vector_offset_default
 *(.vector_82)
                0x000013bc                __vector_offset_83 = DEFINED (__vector_dispatch_83)?(. - _ebase_address):__vector_offset_default
 *(.vector_83)
                0x000013bc                __vector_offset_84 = DEFINED (__vector_dispatch_84)?(. - _ebase_address):__vector_offset_default
 *(.vector_84)
                0x000013bc                __vector_offset_85 = DEFINED (__vector_dispatch_85)?(. - _ebase_address):__vector_offset_default
 *(.vector_85)
                0x000013bc                __vector_offset_86 = DEFINED (__vector_dispatch_86)?(. - _ebase_address):__vector_offset_default
 *(.vector_86)
                0x000013bc                __vector_offset_87 = DEFINED (__vector_dispatch_87)?(. - _ebase_address):__vector_offset_default
 *(.vector_87)
                0x000013bc                __vector_offset_88 = DEFINED (__vector_dispatch_88)?(. - _ebase_address):__vector_offset_default
 *(.vector_88)
                0x000013bc                __vector_offset_89 = DEFINED (__vector_dispatch_89)?(. - _ebase_address):__vector_offset_default
 *(.vector_89)
                0x000013bc                __vector_offset_90 = DEFINED (__vector_dispatch_90)?(. - _ebase_address):__vector_offset_default
 *(.vector_90)
                0x000013bc                __vector_offset_91 = DEFINED (__vector_dispatch_91)?(. - _ebase_address):__vector_offset_default
 *(.vector_91)
                0x000013bc                __vector_offset_92 = DEFINED (__vector_dispatch_92)?(. - _ebase_address):__vector_offset_default
 *(.vector_92)
                0x000013bc                __vector_offset_93 = DEFINED (__vector_dispatch_93)?(. - _ebase_address):__vector_offset_default
 *(.vector_93)
                0x000013bc                __vector_offset_94 = DEFINED (__vector_dispatch_94)?(. - _ebase_address):__vector_offset_default
 *(.vector_94)
                0x000013bc                __vector_offset_95 = DEFINED (__vector_dispatch_95)?(. - _ebase_address):__vector_offset_default
 *(.vector_95)
                0x000013bc                __vector_offset_96 = DEFINED (__vector_dispatch_96)?(. - _ebase_address):__vector_offset_default
 *(.vector_96)
                0x000013bc                __vector_offset_97 = DEFINED (__vector_dispatch_97)?(. - _ebase_address):__vector_offset_default
 *(.vector_97)
                0x000013bc                __vector_offset_98 = DEFINED (__vector_dispatch_98)?(. - _ebase_address):__vector_offset_default
 *(.vector_98)
                0x000013bc                __vector_offset_99 = DEFINED (__vector_dispatch_99)?(. - _ebase_address):__vector_offset_default
 *(.vector_99)
                0x000013bc                __vector_offset_100 = DEFINED (__vector_dispatch_100)?(. - _ebase_address):__vector_offset_default
 *(.vector_100)
                0x000013bc                __vector_offset_101 = DEFINED (__vector_dispatch_101)?(. - _ebase_address):__vector_offset_default
 *(.vector_101)
                0x000013bc                __vector_offset_102 = DEFINED (__vector_dispatch_102)?(. - _ebase_address):__vector_offset_default
 *(.vector_102)
                0x000013bc                __vector_offset_103 = DEFINED (__vector_dispatch_103)?(. - _ebase_address):__vector_offset_default
 *(.vector_103)
                0x000013bc                __vector_offset_104 = DEFINED (__vector_dispatch_104)?(. - _ebase_address):__vector_offset_default
 *(.vector_104)
                0x000013bc                __vector_offset_105 = DEFINED (__vector_dispatch_105)?(. - _ebase_address):__vector_offset_default
 *(.vector_105)
                0x000013bc                __vector_offset_106 = DEFINED (__vector_dispatch_106)?(. - _ebase_address):__vector_offset_default
 *(.vector_106)
                0x000013bc                __vector_offset_107 = DEFINED (__vector_dispatch_107)?(. - _ebase_address):__vector_offset_default
 *(.vector_107)
                0x000013bc                __vector_offset_108 = DEFINED (__vector_dispatch_108)?(. - _ebase_address):__vector_offset_default
 *(.vector_108)
                0x000013bc                __vector_offset_109 = DEFINED (__vector_dispatch_109)?(. - _ebase_address):__vector_offset_default
 *(.vector_109)
                0x000013bc                __vector_offset_110 = DEFINED (__vector_dispatch_110)?(. - _ebase_address):__vector_offset_default
 *(.vector_110)
                0x000013bc                __vector_offset_111 = DEFINED (__vector_dispatch_111)?(. - _ebase_address):__vector_offset_default
 *(.vector_111)
                0x000013bc                __vector_offset_112 = DEFINED (__vector_dispatch_112)?(. - _ebase_address):__vector_offset_default
 *(.vector_112)
                0x000013bc                __vector_offset_113 = DEFINED (__vector_dispatch_113)?(. - _ebase_address):__vector_offset_default
 *(.vector_113)
                0x000013bc                __vector_offset_114 = DEFINED (__vector_dispatch_114)?(. - _ebase_address):__vector_offset_default
 *(.vector_114)
                0x000013bc                __vector_offset_115 = DEFINED (__vector_dispatch_115)?(. - _ebase_address):__vector_offset_default
 *(.vector_115)
                0x000013bc                __vector_offset_116 = DEFINED (__vector_dispatch_116)?(. - _ebase_address):__vector_offset_default
 *(.vector_116)
                0x000013bc                __vector_offset_117 = DEFINED (__vector_dispatch_117)?(. - _ebase_address):__vector_offset_default
 *(.vector_117)
                0x000013bc                __vector_offset_118 = DEFINED (__vector_dispatch_118)?(. - _ebase_address):__vector_offset_default
 *(.vector_118)
                0x000013bc                __vector_offset_119 = DEFINED (__vector_dispatch_119)?(. - _ebase_address):__vector_offset_default
 *(.vector_119)
                0x000013bc                __vector_offset_120 = DEFINED (__vector_dispatch_120)?(. - _ebase_address):__vector_offset_default
 *(.vector_120)
                0x000013bc                __vector_offset_121 = DEFINED (__vector_dispatch_121)?(. - _ebase_address):__vector_offset_default
 *(.vector_121)
                0x000013bc                __vector_offset_122 = DEFINED (__vector_dispatch_122)?(. - _ebase_address):__vector_offset_default
 *(.vector_122)
                0x000013bc                __vector_offset_123 = DEFINED (__vector_dispatch_123)?(. - _ebase_address):__vector_offset_default
 *(.vector_123)
                0x000013bc                __vector_offset_124 = DEFINED (__vector_dispatch_124)?(. - _ebase_address):__vector_offset_default
 *(.vector_124)
                0x000013bc                __vector_offset_125 = DEFINED (__vector_dispatch_125)?(. - _ebase_address):__vector_offset_default
 *(.vector_125)
                0x000013bc                __vector_offset_126 = DEFINED (__vector_dispatch_126)?(. - _ebase_address):__vector_offset_default
 *(.vector_126)
                0x000013bc                __vector_offset_127 = DEFINED (__vector_dispatch_127)?(. - _ebase_address):__vector_offset_default
 *(.vector_127)
                0x000013bc                __vector_offset_128 = DEFINED (__vector_dispatch_128)?(. - _ebase_address):__vector_offset_default
 *(.vector_128)
                0x000013bc                __vector_offset_129 = DEFINED (__vector_dispatch_129)?(. - _ebase_address):__vector_offset_default
 *(.vector_129)
                0x000013bc                __vector_offset_130 = DEFINED (__vector_dispatch_130)?(. - _ebase_address):__vector_offset_default
 *(.vector_130)
                0x000013bc                __vector_offset_131 = DEFINED (__vector_dispatch_131)?(. - _ebase_address):__vector_offset_default
 *(.vector_131)
                0x000013bc                __vector_offset_132 = DEFINED (__vector_dispatch_132)?(. - _ebase_address):__vector_offset_default
 *(.vector_132)
                0x000013bc                __vector_offset_133 = DEFINED (__vector_dispatch_133)?(. - _ebase_address):__vector_offset_default
 *(.vector_133)
                0x000013bc                __vector_offset_134 = DEFINED (__vector_dispatch_134)?(. - _ebase_address):__vector_offset_default
 *(.vector_134)
                0x000013bc                __vector_offset_135 = DEFINED (__vector_dispatch_135)?(. - _ebase_address):__vector_offset_default
 *(.vector_135)
                0x000013bc                __vector_offset_136 = DEFINED (__vector_dispatch_136)?(. - _ebase_address):__vector_offset_default
 *(.vector_136)
                0x000013bc                __vector_offset_137 = DEFINED (__vector_dispatch_137)?(. - _ebase_address):__vector_offset_default
 *(.vector_137)
                0x000013bc                __vector_offset_138 = DEFINED (__vector_dispatch_138)?(. - _ebase_address):__vector_offset_default
 *(.vector_138)
                0x000013bc                __vector_offset_139 = DEFINED (__vector_dispatch_139)?(. - _ebase_address):__vector_offset_default
 *(.vector_139)
                0x000013bc                __vector_offset_140 = DEFINED (__vector_dispatch_140)?(. - _ebase_address):__vector_offset_default
 *(.vector_140)
                0x000013bc                __vector_offset_141 = DEFINED (__vector_dispatch_141)?(. - _ebase_address):__vector_offset_default
 *(.vector_141)
                0x000013bc                __vector_offset_142 = DEFINED (__vector_dispatch_142)?(. - _ebase_address):__vector_offset_default
 *(.vector_142)
                0x000013bc                __vector_offset_143 = DEFINED (__vector_dispatch_143)?(. - _ebase_address):__vector_offset_default
 *(.vector_143)
                0x000013bc                __vector_offset_144 = DEFINED (__vector_dispatch_144)?(. - _ebase_address):__vector_offset_default
 *(.vector_144)
                0x000008b8                __vector_offset_145 = DEFINED (__vector_dispatch_145)?(. - _ebase_address):__vector_offset_default
 *(.vector_145)
 .vector_145    0x9d0108b8      0x234 build/pic32mz_ef_sk/production/_ext/849053718/system_interrupt_a.o
                0x9d0108b8                __vector_dispatch_145
                0x00000aec                __vector_offset_146 = DEFINED (__vector_dispatch_146)?(. - _ebase_address):__vector_offset_default
 *(.vector_146)
 .vector_146    0x9d010aec      0x234 build/pic32mz_ef_sk/production/_ext/849053718/system_interrupt_a.o
                0x9d010aec                __vector_dispatch_146
                0x00000d20                __vector_offset_147 = DEFINED (__vector_dispatch_147)?(. - _ebase_address):__vector_offset_default
 *(.vector_147)
 .vector_147    0x9d010d20      0x234 build/pic32mz_ef_sk/production/_ext/849053718/system_interrupt_a.o
                0x9d010d20                __vector_dispatch_147
                0x000013bc                __vector_offset_148 = DEFINED (__vector_dispatch_148)?(. - _ebase_address):__vector_offset_default
 *(.vector_148)
                0x000013bc                __vector_offset_149 = DEFINED (__vector_dispatch_149)?(. - _ebase_address):__vector_offset_default
 *(.vector_149)
                0x000013bc                __vector_offset_150 = DEFINED (__vector_dispatch_150)?(. - _ebase_address):__vector_offset_default
 *(.vector_150)
                0x000013bc                __vector_offset_151 = DEFINED (__vector_dispatch_151)?(. - _ebase_address):__vector_offset_default
 *(.vector_151)
                0x000013bc                __vector_offset_152 = DEFINED (__vector_dispatch_152)?(. - _ebase_address):__vector_offset_default
 *(.vector_152)
                0x00000f54                __vector_offset_153 = DEFINED (__vector_dispatch_153)?(. - _ebase_address):__vector_offset_default
 *(.vector_153)
 .vector_153    0x9d010f54      0x234 build/pic32mz_ef_sk/production/_ext/849053718/system_interrupt_a.o
                0x9d010f54                __vector_dispatch_153
                0x000013bc                __vector_offset_154 = DEFINED (__vector_dispatch_154)?(. - _ebase_address):__vector_offset_default
 *(.vector_154)
                0x000013bc                __vector_offset_155 = DEFINED (__vector_dispatch_155)?(. - _ebase_address):__vector_offset_default
 *(.vector_155)
                0x000013bc                __vector_offset_156 = DEFINED (__vector_dispatch_156)?(. - _ebase_address):__vector_offset_default
 *(.vector_156)
                0x000013bc                __vector_offset_157 = DEFINED (__vector_dispatch_157)?(. - _ebase_address):__vector_offset_default
 *(.vector_157)
                0x000013bc                __vector_offset_158 = DEFINED (__vector_dispatch_158)?(. - _ebase_address):__vector_offset_default
 *(.vector_158)
                0x000013bc                __vector_offset_159 = DEFINED (__vector_dispatch_159)?(. - _ebase_address):__vector_offset_default
 *(.vector_159)
                0x000013bc                __vector_offset_160 = DEFINED (__vector_dispatch_160)?(. - _ebase_address):__vector_offset_default
 *(.vector_160)
                0x000013bc                __vector_offset_161 = DEFINED (__vector_dispatch_161)?(. - _ebase_address):__vector_offset_default
 *(.vector_161)
                0x000013bc                __vector_offset_162 = DEFINED (__vector_dispatch_162)?(. - _ebase_address):__vector_offset_default
 *(.vector_162)
                0x000013bc                __vector_offset_163 = DEFINED (__vector_dispatch_163)?(. - _ebase_address):__vector_offset_default
 *(.vector_163)
                0x000013bc                __vector_offset_164 = DEFINED (__vector_dispatch_164)?(. - _ebase_address):__vector_offset_default
 *(.vector_164)
                0x000013bc                __vector_offset_165 = DEFINED (__vector_dispatch_165)?(. - _ebase_address):__vector_offset_default
 *(.vector_165)
                0x000013bc                __vector_offset_166 = DEFINED (__vector_dispatch_166)?(. - _ebase_address):__vector_offset_default
 *(.vector_166)
                0x00001188                __vector_offset_167 = DEFINED (__vector_dispatch_167)?(. - _ebase_address):__vector_offset_default
 *(.vector_167)
 .vector_167    0x9d011188      0x234 build/pic32mz_ef_sk/production/_ext/849053718/system_interrupt_a.o
                0x9d011188                __vector_dispatch_167
                0x000013bc                __vector_offset_168 = DEFINED (__vector_dispatch_168)?(. - _ebase_address):__vector_offset_default
 *(.vector_168)
                0x000013bc                __vector_offset_169 = DEFINED (__vector_dispatch_169)?(. - _ebase_address):__vector_offset_default
 *(.vector_169)
                0x000013bc                __vector_offset_170 = DEFINED (__vector_dispatch_170)?(. - _ebase_address):__vector_offset_default
 *(.vector_170)
                0x000013bc                __vector_offset_171 = DEFINED (__vector_dispatch_171)?(. - _ebase_address):__vector_offset_default
 *(.vector_171)
                0x000013bc                __vector_offset_172 = DEFINED (__vector_dispatch_172)?(. - _ebase_address):__vector_offset_default
 *(.vector_172)
                0x000013bc                __vector_offset_173 = DEFINED (__vector_dispatch_173)?(. - _ebase_address):__vector_offset_default
 *(.vector_173)
                0x000013bc                __vector_offset_174 = DEFINED (__vector_dispatch_174)?(. - _ebase_address):__vector_offset_default
 *(.vector_174)
                0x000013bc                __vector_offset_175 = DEFINED (__vector_dispatch_175)?(. - _ebase_address):__vector_offset_default
 *(.vector_175)
                0x000013bc                __vector_offset_176 = DEFINED (__vector_dispatch_176)?(. - _ebase_address):__vector_offset_default
 *(.vector_176)
                0x000013bc                __vector_offset_177 = DEFINED (__vector_dispatch_177)?(. - _ebase_address):__vector_offset_default
 *(.vector_177)
                0x000013bc                __vector_offset_178 = DEFINED (__vector_dispatch_178)?(. - _ebase_address):__vector_offset_default
 *(.vector_178)
                0x000013bc                __vector_offset_179 = DEFINED (__vector_dispatch_179)?(. - _ebase_address):__vector_offset_default
 *(.vector_179)
                0x000013bc                __vector_offset_180 = DEFINED (__vector_dispatch_180)?(. - _ebase_address):__vector_offset_default
 *(.vector_180)
                0x000013bc                __vector_offset_181 = DEFINED (__vector_dispatch_181)?(. - _ebase_address):__vector_offset_default
 *(.vector_181)
                0x000013bc                __vector_offset_182 = DEFINED (__vector_dispatch_182)?(. - _ebase_address):__vector_offset_default
 *(.vector_182)
                0x000013bc                __vector_offset_183 = DEFINED (__vector_dispatch_183)?(. - _ebase_address):__vector_offset_default
 *(.vector_183)
                0x000013bc                __vector_offset_184 = DEFINED (__vector_dispatch_184)?(. - _ebase_address):__vector_offset_default
 *(.vector_184)
                0x000013bc                __vector_offset_185 = DEFINED (__vector_dispatch_185)?(. - _ebase_address):__vector_offset_default
 *(.vector_185)
                0x000013bc                __vector_offset_186 = DEFINED (__vector_dispatch_186)?(. - _ebase_address):__vector_offset_default
 *(.vector_186)
                0x000013bc                __vector_offset_187 = DEFINED (__vector_dispatch_187)?(. - _ebase_address):__vector_offset_default
 *(.vector_187)
                0x000013bc                __vector_offset_188 = DEFINED (__vector_dispatch_188)?(. - _ebase_address):__vector_offset_default
 *(.vector_188)
                0x000013bc                __vector_offset_189 = DEFINED (__vector_dispatch_189)?(. - _ebase_address):__vector_offset_default
 *(.vector_189)
                0x000013bc                __vector_offset_190 = DEFINED (__vector_dispatch_190)?(. - _ebase_address):__vector_offset_default
 *(.vector_190)
                0x000013bc                __vector_offset_191 = DEFINED (__vector_dispatch_191)?(. - _ebase_address):__vector_offset_default
 *(.vector_191)
                0x000013bc                __vector_offset_192 = DEFINED (__vector_dispatch_192)?(. - _ebase_address):__vector_offset_default
 *(.vector_192)
                0x000013bc                __vector_offset_193 = DEFINED (__vector_dispatch_193)?(. - _ebase_address):__vector_offset_default
 *(.vector_193)
                0x000013bc                __vector_offset_194 = DEFINED (__vector_dispatch_194)?(. - _ebase_address):__vector_offset_default
 *(.vector_194)
                0x000013bc                __vector_offset_195 = DEFINED (__vector_dispatch_195)?(. - _ebase_address):__vector_offset_default
 *(.vector_195)
                0x000013bc                __vector_offset_196 = DEFINED (__vector_dispatch_196)?(. - _ebase_address):__vector_offset_default
 *(.vector_196)
                0x000013bc                __vector_offset_197 = DEFINED (__vector_dispatch_197)?(. - _ebase_address):__vector_offset_default
 *(.vector_197)
                0x000013bc                __vector_offset_198 = DEFINED (__vector_dispatch_198)?(. - _ebase_address):__vector_offset_default
 *(.vector_198)
                0x000013bc                __vector_offset_199 = DEFINED (__vector_dispatch_199)?(. - _ebase_address):__vector_offset_default
 *(.vector_199)
                0x000013bc                __vector_offset_200 = DEFINED (__vector_dispatch_200)?(. - _ebase_address):__vector_offset_default
 *(.vector_200)
                0x000013bc                __vector_offset_201 = DEFINED (__vector_dispatch_201)?(. - _ebase_address):__vector_offset_default
 *(.vector_201)
                0x000013bc                __vector_offset_202 = DEFINED (__vector_dispatch_202)?(. - _ebase_address):__vector_offset_default
 *(.vector_202)
                0x000013bc                __vector_offset_203 = DEFINED (__vector_dispatch_203)?(. - _ebase_address):__vector_offset_default
 *(.vector_203)
                0x000013bc                __vector_offset_204 = DEFINED (__vector_dispatch_204)?(. - _ebase_address):__vector_offset_default
 *(.vector_204)
                0x000013bc                __vector_offset_205 = DEFINED (__vector_dispatch_205)?(. - _ebase_address):__vector_offset_default
 *(.vector_205)
                0x000013bc                __vector_offset_206 = DEFINED (__vector_dispatch_206)?(. - _ebase_address):__vector_offset_default
 *(.vector_206)
                0x000013bc                __vector_offset_207 = DEFINED (__vector_dispatch_207)?(. - _ebase_address):__vector_offset_default
 *(.vector_207)
                0x000013bc                __vector_offset_208 = DEFINED (__vector_dispatch_208)?(. - _ebase_address):__vector_offset_default
 *(.vector_208)
                0x000013bc                __vector_offset_209 = DEFINED (__vector_dispatch_209)?(. - _ebase_address):__vector_offset_default
 *(.vector_209)
                0x000013bc                __vector_offset_210 = DEFINED (__vector_dispatch_210)?(. - _ebase_address):__vector_offset_default
 *(.vector_210)
                0x000013bc                __vector_offset_211 = DEFINED (__vector_dispatch_211)?(. - _ebase_address):__vector_offset_default
 *(.vector_211)
                0x000013bc                __vector_offset_212 = DEFINED (__vector_dispatch_212)?(. - _ebase_address):__vector_offset_default
 *(.vector_212)
                0x000013bc                __vector_offset_213 = DEFINED (__vector_dispatch_213)?(. - _ebase_address):__vector_offset_default
 *(.vector_213)
                0x000013bc                __vector_offset_214 = DEFINED (__vector_dispatch_214)?(. - _ebase_address):__vector_offset_default
 *(.vector_214)
                0x000013bc                __vector_offset_215 = DEFINED (__vector_dispatch_215)?(. - _ebase_address):__vector_offset_default
 *(.vector_215)
                0x000013bc                __vector_offset_216 = DEFINED (__vector_dispatch_216)?(. - _ebase_address):__vector_offset_default
 *(.vector_216)
                0x000013bc                __vector_offset_217 = DEFINED (__vector_dispatch_217)?(. - _ebase_address):__vector_offset_default
 *(.vector_217)
                0x000013bc                __vector_offset_218 = DEFINED (__vector_dispatch_218)?(. - _ebase_address):__vector_offset_default
 *(.vector_218)
                0x000013bc                __vector_offset_219 = DEFINED (__vector_dispatch_219)?(. - _ebase_address):__vector_offset_default
 *(.vector_219)
                0x000013bc                __vector_offset_220 = DEFINED (__vector_dispatch_220)?(. - _ebase_address):__vector_offset_default
 *(.vector_220)
                0x000013bc                __vector_offset_221 = DEFINED (__vector_dispatch_221)?(. - _ebase_address):__vector_offset_default
 *(.vector_221)
                0x000013bc                __vector_offset_222 = DEFINED (__vector_dispatch_222)?(. - _ebase_address):__vector_offset_default
 *(.vector_222)
                0x000013bc                __vector_offset_223 = DEFINED (__vector_dispatch_223)?(. - _ebase_address):__vector_offset_default
 *(.vector_223)
                0x000013bc                __vector_offset_224 = DEFINED (__vector_dispatch_224)?(. - _ebase_address):__vector_offset_default
 *(.vector_224)
                0x000013bc                __vector_offset_225 = DEFINED (__vector_dispatch_225)?(. - _ebase_address):__vector_offset_default
 *(.vector_225)
                0x000013bc                __vector_offset_226 = DEFINED (__vector_dispatch_226)?(. - _ebase_address):__vector_offset_default
 *(.vector_226)
                0x000013bc                __vector_offset_227 = DEFINED (__vector_dispatch_227)?(. - _ebase_address):__vector_offset_default
 *(.vector_227)
                0x000013bc                __vector_offset_228 = DEFINED (__vector_dispatch_228)?(. - _ebase_address):__vector_offset_default
 *(.vector_228)
                0x000013bc                __vector_offset_229 = DEFINED (__vector_dispatch_229)?(. - _ebase_address):__vector_offset_default
 *(.vector_229)
                0x000013bc                __vector_offset_230 = DEFINED (__vector_dispatch_230)?(. - _ebase_address):__vector_offset_default
 *(.vector_230)
                0x000013bc                __vector_offset_231 = DEFINED (__vector_dispatch_231)?(. - _ebase_address):__vector_offset_default
 *(.vector_231)
                0x000013bc                __vector_offset_232 = DEFINED (__vector_dispatch_232)?(. - _ebase_address):__vector_offset_default
 *(.vector_232)
                0x000013bc                __vector_offset_233 = DEFINED (__vector_dispatch_233)?(. - _ebase_address):__vector_offset_default
 *(.vector_233)
                0x000013bc                __vector_offset_234 = DEFINED (__vector_dispatch_234)?(. - _ebase_address):__vector_offset_default
 *(.vector_234)
                0x000013bc                __vector_offset_235 = DEFINED (__vector_dispatch_235)?(. - _ebase_address):__vector_offset_default
 *(.vector_235)
                0x000013bc                __vector_offset_236 = DEFINED (__vector_dispatch_236)?(. - _ebase_address):__vector_offset_default
 *(.vector_236)
                0x000013bc                __vector_offset_237 = DEFINED (__vector_dispatch_237)?(. - _ebase_address):__vector_offset_default
 *(.vector_237)
                0x000013bc                __vector_offset_238 = DEFINED (__vector_dispatch_238)?(. - _ebase_address):__vector_offset_default
 *(.vector_238)
                0x000013bc                __vector_offset_239 = DEFINED (__vector_dispatch_239)?(. - _ebase_address):__vector_offset_default
 *(.vector_239)
                0x000013bc                __vector_offset_240 = DEFINED (__vector_dispatch_240)?(. - _ebase_address):__vector_offset_default
 *(.vector_240)
                0x000013bc                __vector_offset_241 = DEFINED (__vector_dispatch_241)?(. - _ebase_address):__vector_offset_default
 *(.vector_241)
                0x000013bc                __vector_offset_242 = DEFINED (__vector_dispatch_242)?(. - _ebase_address):__vector_offset_default
 *(.vector_242)
                0x000013bc                __vector_offset_243 = DEFINED (__vector_dispatch_243)?(. - _ebase_address):__vector_offset_default
 *(.vector_243)
                0x000013bc                __vector_offset_244 = DEFINED (__vector_dispatch_244)?(. - _ebase_address):__vector_offset_default
 *(.vector_244)
                0x000013bc                __vector_offset_245 = DEFINED (__vector_dispatch_245)?(. - _ebase_address):__vector_offset_default
 *(.vector_245)
                0x000013bc                __vector_offset_246 = DEFINED (__vector_dispatch_246)?(. - _ebase_address):__vector_offset_default
 *(.vector_246)
                0x000013bc                __vector_offset_247 = DEFINED (__vector_dispatch_247)?(. - _ebase_address):__vector_offset_default
 *(.vector_247)
                0x000013bc                __vector_offset_248 = DEFINED (__vector_dispatch_248)?(. - _ebase_address):__vector_offset_default
 *(.vector_248)
                0x000013bc                __vector_offset_249 = DEFINED (__vector_dispatch_249)?(. - _ebase_address):__vector_offset_default
 *(.vector_249)
                0x000013bc                __vector_offset_250 = DEFINED (__vector_dispatch_250)?(. - _ebase_address):__vector_offset_default
 *(.vector_250)
                0x000013bc                __vector_offset_251 = DEFINED (__vector_dispatch_251)?(. - _ebase_address):__vector_offset_default
 *(.vector_251)
                0x000013bc                __vector_offset_252 = DEFINED (__vector_dispatch_252)?(. - _ebase_address):__vector_offset_default
 *(.vector_252)
                0x000013bc                __vector_offset_253 = DEFINED (__vector_dispatch_253)?(. - _ebase_address):__vector_offset_default
 *(.vector_253)
                0x000013bc                __vector_offset_254 = DEFINED (__vector_dispatch_254)?(. - _ebase_address):__vector_offset_default
 *(.vector_254)
                0x000013bc                __vector_offset_255 = DEFINED (__vector_dispatch_255)?(. - _ebase_address):__vector_offset_default
 *(.vector_255)
                0x000013bc                __vector_offset_default = (. - _ebase_address)
 *(.vector_default)
 .vector_default
                0x9d0113bc       0x48 c:/program files (x86)/microchip/xc32/v1.44/bin/bin/../../lib/gcc/pic32mx/4.8.3/../../../../pic32mx/lib/fpu64\libpic32.a(defaultinterrupt.o)
                0x9d0113bc                _DefaultInterrupt

.startup
 *(.startup)

.text           0x9d011404        0x0
 *(.stub .gnu.linkonce.t.*)
 *(.text.*personality*)
 *(.mips16.fn.*)
 *(.mips16.call.*)
 *(.gnu.warning)
                0x9d011404                . = ALIGN (0x4)

.init           0x9d011404        0x0
 *crti.o(.init)
 *crtbegin.o(.init)
 *(EXCLUDE_FILE(*crtn.o *crtend?.o *crtend.o) .init)
 *crtend.o(.init)
 *crtn.o(.init)
                0x9d011404                . = ALIGN (0x4)

.fini           0x9d011404        0x0
 *(.fini)
                0x9d011404                . = ALIGN (0x4)

.preinit_array  0x9d011404        0x0
                0x9d011404                PROVIDE (__preinit_array_start, .)
 *(.preinit_array)
                0x9d011404                PROVIDE (__preinit_array_end, .)
                0x9d011404                . = ALIGN (0x4)

.init_array     0x9d011404        0x0
                0x9d011404                PROVIDE (__init_array_start, .)
 *(SORT(.init_array.*))
 *(.init_array)
                0x9d011404                PROVIDE (__init_array_end, .)
                0x9d011404                . = ALIGN (0x4)

.fini_array     0x9d011404        0x0
                0x9d011404                PROVIDE (__fini_array_start, .)
 *(SORT(.fini_array.*))
 *(.fini_array)
                0x9d011404                PROVIDE (__fini_array_end, .)
                0x9d011404                . = ALIGN (0x4)

.ctors          0x9d011404        0x0
 *crtbegin.o(.ctors)
 *crtbegin?.o(.ctors)
 *(EXCLUDE_FILE(*crtend?.o *crtend.o) .ctors)
 *(SORT(.ctors.*))
 *(.ctors)
                0x9d011404                . = ALIGN (0x4)

.dtors          0x9d011404        0x0
 *crtbegin.o(.dtors)
 *crtbegin?.o(.dtors)
 *(EXCLUDE_FILE(*crtend?.o *crtend.o) .dtors)
 *(SORT(.dtors.*))
 *(.dtors)
                0x9d011404                . = ALIGN (0x4)

.rodata         0x9d011404        0x0
 *(.gnu.linkonce.r.*)
 *(.rodata1)
                0x9d011404                . = ALIGN (0x4)

.sdata2         0x9fc004b0        0x0
 *(.sdata2 .sdata2.* .gnu.linkonce.s2.*)
                0x9fc004b0                . = ALIGN (0x4)

.sbss2          0x9fc004b0        0x0
 *(.sbss2 .sbss2.* .gnu.linkonce.sb2.*)
                0x9fc004b0                . = ALIGN (0x4)

.eh_frame_hdr
 *(.eh_frame_hdr)
                0x9fc004b0                . = ALIGN (0x4)

.eh_frame
 *(.eh_frame)
                0x9fc004b0                . = ALIGN (0x4)

.gcc_except_table
 *(.gcc_except_table .gcc_except_table.*)
                0x9fc004b0                . = ALIGN (0x4)

.dbg_data       0x80000000        0x0
                0x80000000                . = (. + DEFINED (_DEBUGGER)?0x200:0x0)
                0x80000000                . = (. + DEFINED (_DEBUGGER)?0x80:0x0)
                0x80000000                . = (. + DEFINED (_DEBUGGER)?0x100:0x0)

.jcr            0x80000000        0x0
 *(.jcr)
                0x80000000                . = ALIGN (0x4)

.eh_frame
 *(.eh_frame)
                0x80000000                . = ALIGN (0x4)

.gcc_except_table
 *(.gcc_except_table .gcc_except_table.*)
                0x80000000                . = ALIGN (0x4)

.persist        0x80000000        0x0
                0x80000000                _persist_begin = .
 *(.persist .persist.*)
 *(.pbss .pbss.*)
                0x80000000                . = ALIGN (0x4)
                0x80000000                _persist_end = .

.data           0x80000000        0x0
 *(.gnu.linkonce.d.*)
 *(.data1)
                0x80000000                . = ALIGN (0x4)
                0x80000000                . = .
                0x80007ff0                _gp = (ALIGN (0x10) + 0x7ff0)

.got            0x80000000        0x0
 *(.got.plt)
 *(.got)
                0x80000000                . = ALIGN (0x4)

.sdata          0x80000000       0x68
                0x80000000                _sdata_begin = .
 *(.sdata .sdata.* .gnu.linkonce.s.*)
 .sdata         0x80000000        0xc build/pic32mz_ef_sk/production/_ext/849053718/system_init.o
                0x80000000                consUsartInit0
                0x80000008                sysConsoleObjects
 .sdata         0x8000000c        0x8 build/pic32mz_ef_sk/production/_ext/1360937237/app.o
 .sdata         0x80000014        0x8 build/pic32mz_ef_sk/production/_ext/1164207549/arp.o
 .sdata         0x8000001c        0x2 build/pic32mz_ef_sk/production/_ext/1164207549/smtp.o
 .sdata         0x8000001e        0x2 build/pic32mz_ef_sk/production/_ext/1164207549/sntp.o
 .sdata         0x80000020        0x1 build/pic32mz_ef_sk/production/_ext/1164207549/zero_conf_helper.o
                0x80000020                zeroconf_dbg_level
 *fill*         0x80000021        0x3 
 .sdata         0x80000024        0x8 build/pic32mz_ef_sk/production/_ext/1164207549/zero_conf_link_local.o
 .sdata         0x8000002c        0x8 build/pic32mz_ef_sk/production/_ext/1164207549/tcpip_commands.o
 .sdata         0x80000034        0x4 build/pic32mz_ef_sk/production/_ext/1164207549/tcpip_manager.o
 .sdata         0x80000038        0x4 build/pic32mz_ef_sk/production/_ext/1282498061/port.o
                0x80000038                uxInterruptNesting
 .sdata         0x8000003c        0x4 build/pic32mz_ef_sk/production/_ext/1360937237/websocket.o
 .sdata         0x80000040       0x24 c:/program files (x86)/microchip/xc32/v1.44/bin/bin/../../lib/gcc/pic32mx/4.8.3/../../../../pic32mx/lib/fpu64\libpic32.a(pic32_init_cache.o)
                0x80000040                __pic32_icache_size
                0x80000044                __pic32_icache_linesize
                0x80000048                __pic32_icache_ways
                0x8000004c                __pic32_dcache_size
                0x80000050                __pic32_dcache_linesize
                0x80000054                __pic32_dcache_ways
                0x80000058                __pic32_scache_size
                0x8000005c                __pic32_scache_linesize
                0x80000060                __pic32_scache_ways
 .sdata         0x80000064        0x4 c:/program files (x86)/microchip/xc32/v1.44/bin/bin/../../lib/gcc/pic32mx/4.8.3/../../../../pic32mx/lib/fpu64\libpic32.a(xc32_uart.o)
                0x80000064                __XC_UART
                0x80000068                . = ALIGN (0x4)
                0x80000068                _sdata_end = .

.lit8
 *(.lit8)

.lit4
 *(.lit4)
                0x80000068                . = ALIGN (0x4)
                0x80000068                _data_end = .
                0x80000068                _bss_begin = .

.sbss           0x80000068      0x350
                0x80000068                _sbss_begin = .
 *(.dynsbss)
 *(.sbss .sbss.* .gnu.linkonce.sb.*)
 .sbss          0x80000068        0x8 build/pic32mz_ef_sk/production/_ext/849053718/system_init.o
                0x80000068                sysCmdInit
 .sbss          0x80000070        0xc build/pic32mz_ef_sk/production/_ext/849053718/system_exceptions.o
 .sbss          0x8000007c        0x4 build/pic32mz_ef_sk/production/_ext/1360937237/app.o
 .sbss          0x80000080        0x2 build/pic32mz_ef_sk/production/_ext/1360937237/streamer.o
 *fill*         0x80000082        0x2 
 .sbss          0x80000084        0xc build/pic32mz_ef_sk/production/_ext/1360937237/custom_http_app.o
 .sbss          0x80000090        0xc build/pic32mz_ef_sk/production/_ext/29024758/memory.o
 .sbss          0x8000009c        0x4 build/pic32mz_ef_sk/production/_ext/29024758/wc_port.o
 .sbss          0x800000a0        0x4 build/pic32mz_ef_sk/production/_ext/1697634946/drv_ethmac.o
 .sbss          0x800000a4        0x8 build/pic32mz_ef_sk/production/_ext/521481140/drv_ethphy.o
                0x800000a4                _PhyStayCondLoop
                0x800000a8                _PhyStayAssertLoop
 .sbss          0x800000ac        0x8 build/pic32mz_ef_sk/production/_ext/1470245908/drv_miim.o
                0x800000ac                _MIIMStayCondLoop
                0x800000b0                _MIIMStayAssertLoop
 .sbss          0x800000b4        0x2 build/pic32mz_ef_sk/production/_ext/184581597/drv_nvm.o
                0x800000b4                gDrvNVMBufferToken
 *fill*         0x800000b6        0x2 
 .sbss          0x800000b8        0x4 build/pic32mz_ef_sk/production/_ext/941160041/drv_tmr.o
 .sbss          0x800000bc        0x2 build/pic32mz_ef_sk/production/_ext/821589181/drv_usart_buffer_queue.o
 *fill*         0x800000be        0x2 
 .sbss          0x800000c0       0x10 build/pic32mz_ef_sk/production/_ext/1891376032/sys_command.o
 .sbss          0x800000d0        0x8 build/pic32mz_ef_sk/production/_ext/1434663852/sys_console_uart.o
 .sbss          0x800000d8        0x4 build/pic32mz_ef_sk/production/_ext/1750042194/sys_fs.o
                0x800000d8                gSYSFSEventHandler
 .sbss          0x800000dc        0x1 build/pic32mz_ef_sk/production/_ext/614935175/mpfs.o
                0x800000dc                gSysMpfsHandleToken
 *fill*         0x800000dd        0x3 
 .sbss          0x800000e0       0x1c build/pic32mz_ef_sk/production/_ext/1164207549/ipv4.o
                0x800000e0                _IPv4StayAssertLoop
 .sbss          0x800000fc       0x28 build/pic32mz_ef_sk/production/_ext/1164207549/ndp.o
 .sbss          0x80000124       0x34 build/pic32mz_ef_sk/production/_ext/1164207549/ipv6.o
 .sbss          0x80000158        0x8 build/pic32mz_ef_sk/production/_ext/1164207549/icmpv6.o
 .sbss          0x80000160       0x20 build/pic32mz_ef_sk/production/_ext/1164207549/tcp.o
 .sbss          0x80000180       0x1c build/pic32mz_ef_sk/production/_ext/1164207549/udp.o
 .sbss          0x8000019c       0x24 build/pic32mz_ef_sk/production/_ext/1164207549/dhcp.o
 .sbss          0x800001c0       0x10 build/pic32mz_ef_sk/production/_ext/1164207549/dns.o
                0x800001c0                _DNSStayCondLoop
                0x800001c4                _DNSStayAssertLoop
 .sbss          0x800001d0       0x20 build/pic32mz_ef_sk/production/_ext/1164207549/http.o
 .sbss          0x800001f0        0xc build/pic32mz_ef_sk/production/_ext/1164207549/nbns.o
 .sbss          0x800001fc       0x44 build/pic32mz_ef_sk/production/_ext/1164207549/smtp.o
 .sbss          0x80000240       0x34 build/pic32mz_ef_sk/production/_ext/1164207549/sntp.o
 .sbss          0x80000274        0xc build/pic32mz_ef_sk/production/_ext/1164207549/zero_conf_link_local.o
 .sbss          0x80000280        0x4 build/pic32mz_ef_sk/production/_ext/1164207549/tcpip_announce.o
 .sbss          0x80000284       0x4c build/pic32mz_ef_sk/production/_ext/1164207549/tcpip_commands.o
 .sbss          0x800002d0       0x24 build/pic32mz_ef_sk/production/_ext/1164207549/tcpip_manager.o
 .sbss          0x800002f4        0x8 build/pic32mz_ef_sk/production/_ext/1164207549/tcpip_packet.o
 .sbss          0x800002fc        0x8 build/pic32mz_ef_sk/production/_ext/1107379230/heap_1.o
 .sbss          0x80000304        0x4 build/pic32mz_ef_sk/production/_ext/1282498061/port.o
                0x80000304                uxSavedTaskStackPointer
 .sbss          0x80000308       0x3c build/pic32mz_ef_sk/production/_ext/373060831/tasks.o
                0x80000340                pxCurrentTCB
 .sbss          0x80000344        0x2 build/pic32mz_ef_sk/production/_ext/1360937237/websocket_thread.o
                0x80000344                ActiveclientSocket
 *fill*         0x80000346        0x2 
 .sbss          0x80000348       0x18 build/pic32mz_ef_sk/production/_ext/1164207549/icmp.o
 *(.scommon)
 .scommon       0x80000360        0x8 build/pic32mz_ef_sk/production/_ext/1868830280/sys_devcon.o
                0x80000360                sysDevconObj
 .scommon       0x80000368        0x8 build/pic32mz_ef_sk/production/_ext/1360937237/app.o
                0x80000368                appData
 .scommon       0x80000370        0x4 build/pic32mz_ef_sk/production/_ext/1360937237/streamer.o
                0x80000370                streamerData
 .scommon       0x80000374       0x10 build/pic32mz_ef_sk/production/_ext/184581597/drv_nvm.o
                0x80000374                nvmBufObjMutex
                0x80000378                gDrvNVMMediaGeometry
                0x8000037c                gNVMGeometryTable
                0x80000380                nvmClientObjMutex
 .scommon       0x80000384        0x4 build/pic32mz_ef_sk/production/_ext/2137108136/sys_debug.o
                0x80000384                gblErrLvl
 .scommon       0x80000388       0x1c build/pic32mz_ef_sk/production/_ext/1750042194/sys_fs.o
                0x80000388                gSYSFSObj
                0x80000390                errorValue
                0x80000394                mutexFileSystemObj
                0x80000398                gSYSFSCurrentMountPoint
                0x800003a0                mutexDirObj
 .scommon       0x800003a4        0x2 build/pic32mz_ef_sk/production/_ext/1750042194/sys_fs_media_manager.o
                0x800003a4                VolToPart
 *fill*         0x800003a6        0x2 
 .scommon       0x800003a8        0x8 build/pic32mz_ef_sk/production/_ext/1164207549/ndp.o
                0x800003a8                ROUTER_SOLICITATION_STATE
                0x800003ac                DUPLICATE_ADDR_DISCOVERY_STATE
 .scommon       0x800003b0        0x4 build/pic32mz_ef_sk/production/_ext/1164207549/ipv6.o
                0x800003b0                IPV6_INIT_STATE
 .scommon       0x800003b4        0x4 build/pic32mz_ef_sk/production/_ext/1164207549/tcpip_commands.o
                0x800003b4                icmpStartTick
                0x800003b8                _sbss_end = .
                0x800003b8                . = ALIGN (0x4)

.bss            0x800003b8    0x1259c
 *(.dynbss)
 *(COMMON)
 COMMON         0x800003b8       0x24 build/pic32mz_ef_sk/production/_ext/849053718/system_init.o
                0x800003b8                sysObj
 COMMON         0x800003dc        0xc build/pic32mz_ef_sk/production/_ext/1360937237/ws_server.o
                0x800003dc                ws_serverData
 COMMON         0x800003e8      0x13c build/pic32mz_ef_sk/production/_ext/184581597/drv_nvm.o
                0x800003e8                gDrvNVMObj
                0x8000041c                gDrvNVMBufferObject
                0x8000050c                gDrvNVMClientObj
 COMMON         0x80000524       0xbc build/pic32mz_ef_sk/production/_ext/821589181/drv_usart.o
                0x80000524                gDrvUSARTClientObj
                0x80000574                gDrvUSARTObj
                0x800005d4                gDrvUSARTCommonDataObj
 COMMON         0x800005e0      0x370 build/pic32mz_ef_sk/production/_ext/821589181/drv_usart_buffer_queue.o
                0x800005e0                gDrvUSARTBufferObj
 COMMON         0x80000950      0x374 build/pic32mz_ef_sk/production/_ext/871719959/net_pres.o
                0x80000950                sNetPresSockets
                0x80000ab8                sNetPresData
 COMMON         0x80000cc4       0x10 build/pic32mz_ef_sk/production/_ext/2137108136/sys_debug.o
                0x80000cc4                sysDebugInstance
 COMMON         0x80000cd4     0x1c38 build/pic32mz_ef_sk/production/_ext/1750042194/sys_fs.o
                0x80000cd4                gSYSFSFileObj
                0x80002764                gSYSFSDirObj
                0x800028f4                gSYSFSMountPoint
 COMMON         0x8000290c       0x48 build/pic32mz_ef_sk/production/_ext/1750042194/sys_fs_media_manager.o
                0x8000290c                gSYSFSVolumeObject
                0x80002928                gSYSFSMediaObject
 COMMON         0x80002954     0xffff build/pic32mz_ef_sk/production/_ext/1360937237/websocket_thread.o
                0x80002954                gBuffer
                0x80012954                . = ALIGN ((. != 0x0)?0x4:0x1)
 *fill*         0x80012953        0x1 
                0x80012954                . = ALIGN (0x4)
                0x80012954                _end = .
                0x80012954                _bss_end = .
                0x00080000                _bmxdudba_address = 0x80000
                0x00080000                _bmxdupba_address = 0x80000

/DISCARD/
 *(.pdr)
 *(.rel.dyn)
 *(.note.GNU-stack)
 *(.note.GNU-stack)
 *(.gnu_debuglink)
 *(.gnu.lto_*)
 *(.discard)

.gptab.sdata
 *(.gptab.data)
 *(.gptab.sdata)

.gptab.sbss
 *(.gptab.bss)
 *(.gptab.sbss)

.mdebug.abi32   0x00000000        0x0
 *(.mdebug.abi32)
 .mdebug.abi32  0x00000000        0x0 build/pic32mz_ef_sk/production/_ext/29024758/misc.o
 .mdebug.abi32  0x00000000        0x0 build/pic32mz_ef_sk/production/_ext/354129722/bsp.o
 .mdebug.abi32  0x00000000        0x0 build/pic32mz_ef_sk/production/_ext/854288108/net_pres_enc_glue.o
 .mdebug.abi32  0x00000000        0x0 build/pic32mz_ef_sk/production/_ext/571564127/sys_clk_pic32mz.o
 .mdebug.abi32  0x00000000        0x0 build/pic32mz_ef_sk/production/_ext/1868830280/sys_devcon.o
 .mdebug.abi32  0x00000000        0x0 build/pic32mz_ef_sk/production/_ext/1868830280/sys_devcon_pic32mz.o
 .mdebug.abi32  0x00000000        0x0 build/pic32mz_ef_sk/production/_ext/1009894383/sys_ports_static.o
 .mdebug.abi32  0x00000000        0x0 build/pic32mz_ef_sk/production/_ext/119080242/sys_reset.o
 .mdebug.abi32  0x00000000        0x0 build/pic32mz_ef_sk/production/_ext/849053718/system_init.o
 .mdebug.abi32  0x00000000        0x0 build/pic32mz_ef_sk/production/_ext/849053718/system_interrupt.o
 .mdebug.abi32  0x00000000        0x0 build/pic32mz_ef_sk/production/_ext/849053718/system_exceptions.o
 .mdebug.abi32  0x00000000        0x0 build/pic32mz_ef_sk/production/_ext/849053718/system_tasks.o
 .mdebug.abi32  0x00000000        0x0 build/pic32mz_ef_sk/production/_ext/849053718/rtos_hooks.o
 .mdebug.abi32  0x00000000        0x0 build/pic32mz_ef_sk/production/_ext/1360937237/app.o
 .mdebug.abi32  0x00000000        0x0 build/pic32mz_ef_sk/production/_ext/1360937237/main.o
 .mdebug.abi32  0x00000000        0x0 build/pic32mz_ef_sk/production/_ext/1360937237/streamer.o
 .mdebug.abi32  0x00000000        0x0 build/pic32mz_ef_sk/production/_ext/1360937237/ws_server.o
 .mdebug.abi32  0x00000000        0x0 build/pic32mz_ef_sk/production/_ext/1360937237/http_print.o
 .mdebug.abi32  0x00000000        0x0 build/pic32mz_ef_sk/production/_ext/1360937237/custom_http_app.o
 .mdebug.abi32  0x00000000        0x0 build/pic32mz_ef_sk/production/_ext/1360937237/mpfs_img2.o
 .mdebug.abi32  0x00000000        0x0 build/pic32mz_ef_sk/production/_ext/2046866571/adler32.o
 .mdebug.abi32  0x00000000        0x0 build/pic32mz_ef_sk/production/_ext/2046866571/compress.o
 .mdebug.abi32  0x00000000        0x0 build/pic32mz_ef_sk/production/_ext/2046866571/crc32.o
 .mdebug.abi32  0x00000000        0x0 build/pic32mz_ef_sk/production/_ext/2046866571/deflate.o
 .mdebug.abi32  0x00000000        0x0 build/pic32mz_ef_sk/production/_ext/2046866571/infback.o
 .mdebug.abi32  0x00000000        0x0 build/pic32mz_ef_sk/production/_ext/2046866571/inffast.o
 .mdebug.abi32  0x00000000        0x0 build/pic32mz_ef_sk/production/_ext/2046866571/inflate.o
 .mdebug.abi32  0x00000000        0x0 build/pic32mz_ef_sk/production/_ext/2046866571/inftrees.o
 .mdebug.abi32  0x00000000        0x0 build/pic32mz_ef_sk/production/_ext/2046866571/trees.o
 .mdebug.abi32  0x00000000        0x0 build/pic32mz_ef_sk/production/_ext/2046866571/uncompr.o
 .mdebug.abi32  0x00000000        0x0 build/pic32mz_ef_sk/production/_ext/2046866571/zutil.o
 .mdebug.abi32  0x00000000        0x0 build/pic32mz_ef_sk/production/_ext/29024758/ecc.o
 .mdebug.abi32  0x00000000        0x0 build/pic32mz_ef_sk/production/_ext/29024758/arc4.o
 .mdebug.abi32  0x00000000        0x0 build/pic32mz_ef_sk/production/_ext/29024758/pwdbased.o
 .mdebug.abi32  0x00000000        0x0 build/pic32mz_ef_sk/production/_ext/29024758/tfm.o
 .mdebug.abi32  0x00000000        0x0 build/pic32mz_ef_sk/production/_ext/29024758/asn.o
 .mdebug.abi32  0x00000000        0x0 build/pic32mz_ef_sk/production/_ext/29024758/des3.o
 .mdebug.abi32  0x00000000        0x0 build/pic32mz_ef_sk/production/_ext/29024758/rsa.o
 .mdebug.abi32  0x00000000        0x0 build/pic32mz_ef_sk/production/_ext/29024758/aes.o
 .mdebug.abi32  0x00000000        0x0 build/pic32mz_ef_sk/production/_ext/29024758/md5.o
 .mdebug.abi32  0x00000000        0x0 build/pic32mz_ef_sk/production/_ext/29024758/sha.o
 .mdebug.abi32  0x00000000        0x0 build/pic32mz_ef_sk/production/_ext/29024758/sha256.o
 .mdebug.abi32  0x00000000        0x0 build/pic32mz_ef_sk/production/_ext/29024758/sha512.o
 .mdebug.abi32  0x00000000        0x0 build/pic32mz_ef_sk/production/_ext/29024758/hmac.o
 .mdebug.abi32  0x00000000        0x0 build/pic32mz_ef_sk/production/_ext/29024758/hash.o
 .mdebug.abi32  0x00000000        0x0 build/pic32mz_ef_sk/production/_ext/29024758/compress.o
 .mdebug.abi32  0x00000000        0x0 build/pic32mz_ef_sk/production/_ext/29024758/crypto.o
 .mdebug.abi32  0x00000000        0x0 build/pic32mz_ef_sk/production/_ext/29024758/coding.o
 .mdebug.abi32  0x00000000        0x0 build/pic32mz_ef_sk/production/_ext/29024758/error.o
 .mdebug.abi32  0x00000000        0x0 build/pic32mz_ef_sk/production/_ext/29024758/integer.o
 .mdebug.abi32  0x00000000        0x0 build/pic32mz_ef_sk/production/_ext/29024758/logging.o
 .mdebug.abi32  0x00000000        0x0 build/pic32mz_ef_sk/production/_ext/29024758/memory.o
 .mdebug.abi32  0x00000000        0x0 build/pic32mz_ef_sk/production/_ext/29024758/wc_port.o
 .mdebug.abi32  0x00000000        0x0 build/pic32mz_ef_sk/production/_ext/29024758/wolfmath.o
 .mdebug.abi32  0x00000000        0x0 build/pic32mz_ef_sk/production/_ext/1697634946/drv_ethmac.o
 .mdebug.abi32  0x00000000        0x0 build/pic32mz_ef_sk/production/_ext/1697634946/drv_ethmac_lib.o
 .mdebug.abi32  0x00000000        0x0 build/pic32mz_ef_sk/production/_ext/521481140/drv_ethphy.o
 .mdebug.abi32  0x00000000        0x0 build/pic32mz_ef_sk/production/_ext/521481140/drv_extphy_smsc8740.o
 .mdebug.abi32  0x00000000        0x0 build/pic32mz_ef_sk/production/_ext/1470245908/drv_miim.o
 .mdebug.abi32  0x00000000        0x0 build/pic32mz_ef_sk/production/_ext/184581597/drv_nvm.o
 .mdebug.abi32  0x00000000        0x0 build/pic32mz_ef_sk/production/_ext/184581597/drv_nvm_erasewrite.o
 .mdebug.abi32  0x00000000        0x0 build/pic32mz_ef_sk/production/_ext/941160041/drv_tmr.o
 .mdebug.abi32  0x00000000        0x0 build/pic32mz_ef_sk/production/_ext/821589181/drv_usart.o
 .mdebug.abi32  0x00000000        0x0 build/pic32mz_ef_sk/production/_ext/821589181/drv_usart_buffer_queue.o
 .mdebug.abi32  0x00000000        0x0 build/pic32mz_ef_sk/production/_ext/821589181/drv_usart_read_write.o
 .mdebug.abi32  0x00000000        0x0 build/pic32mz_ef_sk/production/_ext/871719959/net_pres.o
 .mdebug.abi32  0x00000000        0x0 build/pic32mz_ef_sk/production/_ext/308321468/osal_freertos.o
 .mdebug.abi32  0x00000000        0x0 build/pic32mz_ef_sk/production/_ext/1891376032/sys_command.o
 .mdebug.abi32  0x00000000        0x0 build/pic32mz_ef_sk/production/_ext/598853952/sys_buffer.o
 .mdebug.abi32  0x00000000        0x0 build/pic32mz_ef_sk/production/_ext/598853952/sys_queue.o
 .mdebug.abi32  0x00000000        0x0 build/pic32mz_ef_sk/production/_ext/1434663852/sys_console.o
 .mdebug.abi32  0x00000000        0x0 build/pic32mz_ef_sk/production/_ext/1434663852/sys_console_uart.o
 .mdebug.abi32  0x00000000        0x0 build/pic32mz_ef_sk/production/_ext/2137108136/sys_debug.o
 .mdebug.abi32  0x00000000        0x0 build/pic32mz_ef_sk/production/_ext/1750042194/sys_fs.o
 .mdebug.abi32  0x00000000        0x0 build/pic32mz_ef_sk/production/_ext/1750042194/sys_fs_media_manager.o
 .mdebug.abi32  0x00000000        0x0 build/pic32mz_ef_sk/production/_ext/614935175/mpfs.o
 .mdebug.abi32  0x00000000        0x0 build/pic32mz_ef_sk/production/_ext/1042686532/sys_int_pic32.o
 .mdebug.abi32  0x00000000        0x0 build/pic32mz_ef_sk/production/_ext/470001640/sys_random.o
 .mdebug.abi32  0x00000000        0x0 build/pic32mz_ef_sk/production/_ext/2110151058/sys_tmr.o
 .mdebug.abi32  0x00000000        0x0 build/pic32mz_ef_sk/production/_ext/1886247299/sys_fs_wrapper.o
 .mdebug.abi32  0x00000000        0x0 build/pic32mz_ef_sk/production/_ext/1886247299/helpers.o
 .mdebug.abi32  0x00000000        0x0 build/pic32mz_ef_sk/production/_ext/1164207549/ipv4.o
 .mdebug.abi32  0x00000000        0x0 build/pic32mz_ef_sk/production/_ext/1164207549/ndp.o
 .mdebug.abi32  0x00000000        0x0 build/pic32mz_ef_sk/production/_ext/1164207549/ipv6.o
 .mdebug.abi32  0x00000000        0x0 build/pic32mz_ef_sk/production/_ext/1164207549/icmpv6.o
 .mdebug.abi32  0x00000000        0x0 build/pic32mz_ef_sk/production/_ext/1164207549/tcp.o
 .mdebug.abi32  0x00000000        0x0 build/pic32mz_ef_sk/production/_ext/1164207549/udp.o
 .mdebug.abi32  0x00000000        0x0 build/pic32mz_ef_sk/production/_ext/1164207549/tcpip_heap_alloc.o
 .mdebug.abi32  0x00000000        0x0 build/pic32mz_ef_sk/production/_ext/1164207549/tcpip_heap_internal.o
 .mdebug.abi32  0x00000000        0x0 build/pic32mz_ef_sk/production/_ext/1164207549/arp.o
 .mdebug.abi32  0x00000000        0x0 build/pic32mz_ef_sk/production/_ext/1164207549/dhcp.o
 .mdebug.abi32  0x00000000        0x0 build/pic32mz_ef_sk/production/_ext/1164207549/dns.o
 .mdebug.abi32  0x00000000        0x0 build/pic32mz_ef_sk/production/_ext/1164207549/http.o
 .mdebug.abi32  0x00000000        0x0 build/pic32mz_ef_sk/production/_ext/1164207549/nbns.o
 .mdebug.abi32  0x00000000        0x0 build/pic32mz_ef_sk/production/_ext/1164207549/smtp.o
 .mdebug.abi32  0x00000000        0x0 build/pic32mz_ef_sk/production/_ext/1164207549/sntp.o
 .mdebug.abi32  0x00000000        0x0 build/pic32mz_ef_sk/production/_ext/1164207549/zero_conf_helper.o
 .mdebug.abi32  0x00000000        0x0 build/pic32mz_ef_sk/production/_ext/1164207549/zero_conf_link_local.o
 .mdebug.abi32  0x00000000        0x0 build/pic32mz_ef_sk/production/_ext/1164207549/tcpip_announce.o
 .mdebug.abi32  0x00000000        0x0 build/pic32mz_ef_sk/production/_ext/1164207549/tcpip_commands.o
 .mdebug.abi32  0x00000000        0x0 build/pic32mz_ef_sk/production/_ext/1164207549/hash_fnv.o
 .mdebug.abi32  0x00000000        0x0 build/pic32mz_ef_sk/production/_ext/1164207549/oahash.o
 .mdebug.abi32  0x00000000        0x0 build/pic32mz_ef_sk/production/_ext/1164207549/tcpip_helpers.o
 .mdebug.abi32  0x00000000        0x0 build/pic32mz_ef_sk/production/_ext/1164207549/tcpip_manager.o
 .mdebug.abi32  0x00000000        0x0 build/pic32mz_ef_sk/production/_ext/1164207549/tcpip_notify.o
 .mdebug.abi32  0x00000000        0x0 build/pic32mz_ef_sk/production/_ext/1164207549/tcpip_packet.o
 .mdebug.abi32  0x00000000        0x0 build/pic32mz_ef_sk/production/_ext/1107379230/heap_1.o
 .mdebug.abi32  0x00000000        0x0 build/pic32mz_ef_sk/production/_ext/1282498061/port.o
 .mdebug.abi32  0x00000000        0x0 build/pic32mz_ef_sk/production/_ext/373060831/croutine.o
 .mdebug.abi32  0x00000000        0x0 build/pic32mz_ef_sk/production/_ext/373060831/list.o
 .mdebug.abi32  0x00000000        0x0 build/pic32mz_ef_sk/production/_ext/373060831/queue.o
 .mdebug.abi32  0x00000000        0x0 build/pic32mz_ef_sk/production/_ext/373060831/tasks.o
 .mdebug.abi32  0x00000000        0x0 build/pic32mz_ef_sk/production/_ext/373060831/timers.o
 .mdebug.abi32  0x00000000        0x0 build/pic32mz_ef_sk/production/_ext/373060831/event_groups.o
 .mdebug.abi32  0x00000000        0x0 build/pic32mz_ef_sk/production/_ext/1360937237/websocket.o
 .mdebug.abi32  0x00000000        0x0 build/pic32mz_ef_sk/production/_ext/1360937237/websocket_thread.o
 .mdebug.abi32  0x00000000        0x0 build/pic32mz_ef_sk/production/_ext/1164207549/icmp.o
 .mdebug.abi32  0x00000000        0x0 c:/program files (x86)/microchip/xc32/v1.44/bin/bin/../../lib/gcc/pic32mx/4.8.3/fpu64\libgcc.a(_udivdi3.o)
 .mdebug.abi32  0x00000000        0x0 c:/program files (x86)/microchip/xc32/v1.44/bin/bin/../../lib/gcc/pic32mx/4.8.3/../../../../pic32mx/lib/fpu64\libpic32.a(default-bootstrap-exception-handler.o)
 .mdebug.abi32  0x00000000        0x0 c:/program files (x86)/microchip/xc32/v1.44/bin/bin/../../lib/gcc/pic32mx/4.8.3/../../../../pic32mx/lib/fpu64\libpic32.a(default-on-reset.o)
 .mdebug.abi32  0x00000000        0x0 c:/program files (x86)/microchip/xc32/v1.44/bin/bin/../../lib/gcc/pic32mx/4.8.3/../../../../pic32mx/lib/fpu64\libpic32.a(default-on-bootstrap.o)
 .mdebug.abi32  0x00000000        0x0 c:/program files (x86)/microchip/xc32/v1.44/bin/bin/../../lib/gcc/pic32mx/4.8.3/../../../../pic32mx/lib/fpu64\libpic32.a(defaultinterrupt.o)
 .mdebug.abi32  0x00000000        0x0 c:/program files (x86)/microchip/xc32/v1.44/bin/bin/../../lib/gcc/pic32mx/4.8.3/../../../../pic32mx/lib/fpu64\libpic32.a(default-cache-err-exception-handler.o)
 .mdebug.abi32  0x00000000        0x0 c:/program files (x86)/microchip/xc32/v1.44/bin/bin/../../lib/gcc/pic32mx/4.8.3/../../../../pic32mx/lib/fpu64\libpic32.a(default-simple-tlb-refill-exception-handler.o)
 .mdebug.abi32  0x00000000        0x0 c:/program files (x86)/microchip/xc32/v1.44/bin/bin/../../lib/gcc/pic32mx/4.8.3/../../../../pic32mx/lib/fpu64\libc.a(fassert.o)
 .mdebug.abi32  0x00000000        0x0 c:/program files (x86)/microchip/xc32/v1.44/bin/bin/../../lib/gcc/pic32mx/4.8.3/../../../../pic32mx/lib/fpu64\libc.a(atoi.o)
 .mdebug.abi32  0x00000000        0x0 c:/program files (x86)/microchip/xc32/v1.44/bin/bin/../../lib/gcc/pic32mx/4.8.3/../../../../pic32mx/lib/fpu64\libc.a(atol.o)
 .mdebug.abi32  0x00000000        0x0 c:/program files (x86)/microchip/xc32/v1.44/bin/bin/../../lib/gcc/pic32mx/4.8.3/../../../../pic32mx/lib/fpu64\libc.a(calloc.o)
 .mdebug.abi32  0x00000000        0x0 c:/program files (x86)/microchip/xc32/v1.44/bin/bin/../../lib/gcc/pic32mx/4.8.3/../../../../pic32mx/lib/fpu64\libc.a(ctype.o)
 .mdebug.abi32  0x00000000        0x0 c:/program files (x86)/microchip/xc32/v1.44/bin/bin/../../lib/gcc/pic32mx/4.8.3/../../../../pic32mx/lib/fpu64\libc.a(ctypef.o)
 .mdebug.abi32  0x00000000        0x0 c:/program files (x86)/microchip/xc32/v1.44/bin/bin/../../lib/gcc/pic32mx/4.8.3/../../../../pic32mx/lib/fpu64\libc.a(malloc.o)
 .mdebug.abi32  0x00000000        0x0 c:/program files (x86)/microchip/xc32/v1.44/bin/bin/../../lib/gcc/pic32mx/4.8.3/../../../../pic32mx/lib/fpu64\libc.a(perror.o)
 .mdebug.abi32  0x00000000        0x0 c:/program files (x86)/microchip/xc32/v1.44/bin/bin/../../lib/gcc/pic32mx/4.8.3/../../../../pic32mx/lib/fpu64\libc.a(rand.o)
 .mdebug.abi32  0x00000000        0x0 c:/program files (x86)/microchip/xc32/v1.44/bin/bin/../../lib/gcc/pic32mx/4.8.3/../../../../pic32mx/lib/fpu64\libc.a(signal.o)
 .mdebug.abi32  0x00000000        0x0 c:/program files (x86)/microchip/xc32/v1.44/bin/bin/../../lib/gcc/pic32mx/4.8.3/../../../../pic32mx/lib/fpu64\libc.a(strcat.o)
 .mdebug.abi32  0x00000000        0x0 c:/program files (x86)/microchip/xc32/v1.44/bin/bin/../../lib/gcc/pic32mx/4.8.3/../../../../pic32mx/lib/fpu64\libc.a(strchr.o)
 .mdebug.abi32  0x00000000        0x0 c:/program files (x86)/microchip/xc32/v1.44/bin/bin/../../lib/gcc/pic32mx/4.8.3/../../../../pic32mx/lib/fpu64\libc.a(strncat.o)
 .mdebug.abi32  0x00000000        0x0 c:/program files (x86)/microchip/xc32/v1.44/bin/bin/../../lib/gcc/pic32mx/4.8.3/../../../../pic32mx/lib/fpu64\libc.a(strncmp.o)
 .mdebug.abi32  0x00000000        0x0 c:/program files (x86)/microchip/xc32/v1.44/bin/bin/../../lib/gcc/pic32mx/4.8.3/../../../../pic32mx/lib/fpu64\libc.a(strncpy.o)
 .mdebug.abi32  0x00000000        0x0 c:/program files (x86)/microchip/xc32/v1.44/bin/bin/../../lib/gcc/pic32mx/4.8.3/../../../../pic32mx/lib/fpu64\libc.a(strstr.o)
 .mdebug.abi32  0x00000000        0x0 c:/program files (x86)/microchip/xc32/v1.44/bin/bin/../../lib/gcc/pic32mx/4.8.3/../../../../pic32mx/lib/fpu64\libc.a(strtol.o)
 .mdebug.abi32  0x00000000        0x0 c:/program files (x86)/microchip/xc32/v1.44/bin/bin/../../lib/gcc/pic32mx/4.8.3/../../../../pic32mx/lib/fpu64\libc.a(sys_err.o)
 .mdebug.abi32  0x00000000        0x0 c:/program files (x86)/microchip/xc32/v1.44/bin/bin/../../lib/gcc/pic32mx/4.8.3/../../../../pic32mx/lib/fpu64\libc.a(exit.o)
 .mdebug.abi32  0x00000000        0x0 c:/program files (x86)/microchip/xc32/v1.44/bin/bin/../../lib/gcc/pic32mx/4.8.3/../../../../pic32mx/lib/fpu64\libc.a(stdclean_simple.o)
 .mdebug.abi32  0x00000000        0x0 c:/program files (x86)/microchip/xc32/v1.44/bin/bin/../../lib/gcc/pic32mx/4.8.3/../../../../pic32mx/lib/fpu64\libc.a(fprintf_cdnopsuxX.eo)
 .mdebug.abi32  0x00000000        0x0 c:/program files (x86)/microchip/xc32/v1.44/bin/bin/../../lib/gcc/pic32mx/4.8.3/../../../../pic32mx/lib/fpu64\libc.a(snprintf_cdnopsuxX.eo)
 .mdebug.abi32  0x00000000        0x0 c:/program files (x86)/microchip/xc32/v1.44/bin/bin/../../lib/gcc/pic32mx/4.8.3/../../../../pic32mx/lib/fpu64\libc.a(sprintf_cdnopsuxX.eo)
 .mdebug.abi32  0x00000000        0x0 c:/program files (x86)/microchip/xc32/v1.44/bin/bin/../../lib/gcc/pic32mx/4.8.3/../../../../pic32mx/lib/fpu64\libc.a(sscanf_s.eo)
 .mdebug.abi32  0x00000000        0x0 c:/program files (x86)/microchip/xc32/v1.44/bin/bin/../../lib/gcc/pic32mx/4.8.3/../../../../pic32mx/lib/fpu64\libc.a(vsnprintf_cdnopsuxX.eo)
 .mdebug.abi32  0x00000000        0x0 c:/program files (x86)/microchip/xc32/v1.44/bin/bin/../../lib/gcc/pic32mx/4.8.3/../../../../pic32mx/lib/fpu64\libc.a(vsnprintf.o)
 .mdebug.abi32  0x00000000        0x0 c:/program files (x86)/microchip/xc32/v1.44/bin/bin/../../lib/gcc/pic32mx/4.8.3/../../../../pic32mx/lib/fpu64\libc.a(_iob.o)
 .mdebug.abi32  0x00000000        0x0 c:/program files (x86)/microchip/xc32/v1.44/bin/bin/../../lib/gcc/pic32mx/4.8.3/../../../../pic32mx/lib/fpu64\libc.a(_fputc_simple.o)
 .mdebug.abi32  0x00000000        0x0 c:/program files (x86)/microchip/xc32/v1.44/bin/bin/../../lib/gcc/pic32mx/4.8.3/../../../../pic32mx/lib/fpu64\libc.a(errno.o)
 .mdebug.abi32  0x00000000        0x0 c:/program files (x86)/microchip/xc32/v1.44/bin/bin/../../lib/gcc/pic32mx/4.8.3/../../../../pic32mx/lib/fpu64\libc.a(doprnt_cdnopsuxX.eo)
 .mdebug.abi32  0x00000000        0x0 c:/program files (x86)/microchip/xc32/v1.44/bin/bin/../../lib/gcc/pic32mx/4.8.3/../../../../pic32mx/lib/fpu64\libc.a(doprnt.o)
 .mdebug.abi32  0x00000000        0x0 c:/program files (x86)/microchip/xc32/v1.44/bin/bin/../../lib/gcc/pic32mx/4.8.3/../../../../pic32mx/lib/fpu64\libc.a(doscan_s.eo)
 .mdebug.abi32  0x00000000        0x0 c:/program files (x86)/microchip/xc32/v1.44/bin/bin/../../lib/gcc/pic32mx/4.8.3/../../../../pic32mx/lib/fpu64\libc.a(_flsbuf_simple.o)
 .mdebug.abi32  0x00000000        0x0 c:/program files (x86)/microchip/xc32/v1.44/bin/bin/../../lib/gcc/pic32mx/4.8.3/../../../../pic32mx/lib/fpu64\libc.a(fgetc.o)
 .mdebug.abi32  0x00000000        0x0 c:/program files (x86)/microchip/xc32/v1.44/bin/bin/../../lib/gcc/pic32mx/4.8.3/../../../../pic32mx/lib/fpu64\libc.a(ldpowers.o)
 .mdebug.abi32  0x00000000        0x0 c:/program files (x86)/microchip/xc32/v1.44/bin/bin/../../lib/gcc/pic32mx/4.8.3/../../../../pic32mx/lib/fpu64\libc.a(ungetc.o)
 .mdebug.abi32  0x00000000        0x0 c:/program files (x86)/microchip/xc32/v1.44/bin/bin/../../lib/gcc/pic32mx/4.8.3/../../../../pic32mx/lib/fpu64\libc.a(filbuf.o)
 .mdebug.abi32  0x00000000        0x0 c:/program files (x86)/microchip/xc32/v1.44/bin/bin/../../lib/gcc/pic32mx/4.8.3/../../../../pic32mx/lib/fpu64\libc.a(fflush.o)
 .mdebug.abi32  0x00000000        0x0 c:/program files (x86)/microchip/xc32/v1.44/bin/bin/../../lib/gcc/pic32mx/4.8.3/../../../../pic32mx/lib/fpu64\libmfd.a(s_frexp.o)
 .mdebug.abi32  0x00000000        0x0 c:/program files (x86)/microchip/xc32/v1.44/bin/bin/../../lib/gcc/pic32mx/4.8.3/fpu64\libgcc.a(_cmpdi2.o)
 .mdebug.abi32  0x00000000        0x0 c:/program files (x86)/microchip/xc32/v1.44/bin/bin/../../lib/gcc/pic32mx/4.8.3/fpu64\libgcc.a(_umoddi3.o)
 .mdebug.abi32  0x00000000        0x0 c:/program files (x86)/microchip/xc32/v1.44/bin/bin/../../lib/gcc/pic32mx/4.8.3/../../../../pic32mx/lib/fpu64\libpic32.a(sbrk.o)
 .mdebug.abi32  0x00000000        0x0 c:/program files (x86)/microchip/xc32/v1.44/bin/bin/../../lib/gcc/pic32mx/4.8.3/../../../../pic32mx/lib/fpu64\libpic32.a(read.o)
 .mdebug.abi32  0x00000000        0x0 c:/program files (x86)/microchip/xc32/v1.44/bin/bin/../../lib/gcc/pic32mx/4.8.3/../../../../pic32mx/lib/fpu64\libpic32.a(write.o)
 .mdebug.abi32  0x00000000        0x0 c:/program files (x86)/microchip/xc32/v1.44/bin/bin/../../lib/gcc/pic32mx/4.8.3/../../../../pic32mx/lib/fpu64\libpic32.a(xc32_uart.o)
 .mdebug.abi32  0x00000000        0x0 c:/program files (x86)/microchip/xc32/v1.44/bin/bin/../../lib/gcc/pic32mx/4.8.3/../../../../pic32mx/lib/fpu64\libpic32.a(_mon_putc.o)

.mdebug.abiN32
 *(.mdebug.abiN32)

.mdebug.abi64
 *(.mdebug.abi64)

.mdebug.abiO64
 *(.mdebug.abiO64)

.mdebug.eabi32
 *(.mdebug.eabi32)

.mdebug.eabi64
 *(.mdebug.eabi64)

.gcc_compiled_long32
 *(.gcc_compiled_long32)

.gcc_compiled_long64
 *(.gcc_compiled_long64)

.stab
 *(.stab)

.stabstr
 *(.stabstr)

.stab.excl
 *(.stab.excl)

.stab.exclstr
 *(.stab.exclstr)

.stab.index
 *(.stab.index)

.stab.indexstr
 *(.stab.indexstr)

.comment        0x00000000      0x19f
 *(.comment)
 .comment       0x00000000       0x3c build/pic32mz_ef_sk/production/_ext/29024758/misc.o
                                 0x3d (size before relaxing)
 .comment       0x00000000       0x3d build/pic32mz_ef_sk/production/_ext/354129722/bsp.o
 .comment       0x00000000       0x3d build/pic32mz_ef_sk/production/_ext/854288108/net_pres_enc_glue.o
 .comment       0x00000000       0x3d build/pic32mz_ef_sk/production/_ext/571564127/sys_clk_pic32mz.o
 .comment       0x00000000       0x3d build/pic32mz_ef_sk/production/_ext/1868830280/sys_devcon.o
 .comment       0x00000000       0x3d build/pic32mz_ef_sk/production/_ext/1868830280/sys_devcon_pic32mz.o
 .comment       0x00000000       0x3d build/pic32mz_ef_sk/production/_ext/1009894383/sys_ports_static.o
 .comment       0x00000000       0x3d build/pic32mz_ef_sk/production/_ext/119080242/sys_reset.o
 .comment       0x00000000       0x3d build/pic32mz_ef_sk/production/_ext/849053718/system_init.o
 .comment       0x00000000       0x3d build/pic32mz_ef_sk/production/_ext/849053718/system_interrupt.o
 .comment       0x00000000       0x3d build/pic32mz_ef_sk/production/_ext/849053718/system_exceptions.o
 .comment       0x00000000       0x3d build/pic32mz_ef_sk/production/_ext/849053718/system_tasks.o
 .comment       0x00000000       0x3d build/pic32mz_ef_sk/production/_ext/849053718/rtos_hooks.o
 .comment       0x00000000       0x3d build/pic32mz_ef_sk/production/_ext/1360937237/app.o
 .comment       0x00000000       0x3d build/pic32mz_ef_sk/production/_ext/1360937237/main.o
 .comment       0x00000000       0x3d build/pic32mz_ef_sk/production/_ext/1360937237/streamer.o
 .comment       0x00000000       0x3d build/pic32mz_ef_sk/production/_ext/1360937237/ws_server.o
 .comment       0x00000000       0x3d build/pic32mz_ef_sk/production/_ext/1360937237/http_print.o
 .comment       0x00000000       0x3d build/pic32mz_ef_sk/production/_ext/1360937237/custom_http_app.o
 .comment       0x00000000       0x3d build/pic32mz_ef_sk/production/_ext/1360937237/mpfs_img2.o
 .comment       0x00000000       0x3d build/pic32mz_ef_sk/production/_ext/2046866571/adler32.o
 .comment       0x00000000       0x3d build/pic32mz_ef_sk/production/_ext/2046866571/compress.o
 .comment       0x00000000       0x3d build/pic32mz_ef_sk/production/_ext/2046866571/crc32.o
 .comment       0x00000000       0x3d build/pic32mz_ef_sk/production/_ext/2046866571/deflate.o
 .comment       0x00000000       0x3d build/pic32mz_ef_sk/production/_ext/2046866571/infback.o
 .comment       0x00000000       0x3d build/pic32mz_ef_sk/production/_ext/2046866571/inffast.o
 .comment       0x00000000       0x3d build/pic32mz_ef_sk/production/_ext/2046866571/inflate.o
 .comment       0x00000000       0x3d build/pic32mz_ef_sk/production/_ext/2046866571/inftrees.o
 .comment       0x00000000       0x3d build/pic32mz_ef_sk/production/_ext/2046866571/trees.o
 .comment       0x00000000       0x3d build/pic32mz_ef_sk/production/_ext/2046866571/uncompr.o
 .comment       0x00000000       0x3d build/pic32mz_ef_sk/production/_ext/2046866571/zutil.o
 .comment       0x00000000       0x3d build/pic32mz_ef_sk/production/_ext/29024758/ecc.o
 .comment       0x00000000       0x3d build/pic32mz_ef_sk/production/_ext/29024758/arc4.o
 .comment       0x00000000       0x3d build/pic32mz_ef_sk/production/_ext/29024758/pwdbased.o
 .comment       0x00000000       0x3d build/pic32mz_ef_sk/production/_ext/29024758/tfm.o
 .comment       0x00000000       0x3d build/pic32mz_ef_sk/production/_ext/29024758/asn.o
 .comment       0x00000000       0x3d build/pic32mz_ef_sk/production/_ext/29024758/des3.o
 .comment       0x00000000       0x3d build/pic32mz_ef_sk/production/_ext/29024758/rsa.o
 .comment       0x00000000       0x3d build/pic32mz_ef_sk/production/_ext/29024758/aes.o
 .comment       0x00000000       0x3d build/pic32mz_ef_sk/production/_ext/29024758/md5.o
 .comment       0x00000000       0x3d build/pic32mz_ef_sk/production/_ext/29024758/sha.o
 .comment       0x00000000       0x3d build/pic32mz_ef_sk/production/_ext/29024758/sha256.o
 .comment       0x00000000       0x3d build/pic32mz_ef_sk/production/_ext/29024758/sha512.o
 .comment       0x00000000       0x3d build/pic32mz_ef_sk/production/_ext/29024758/hmac.o
 .comment       0x00000000       0x3d build/pic32mz_ef_sk/production/_ext/29024758/hash.o
 .comment       0x00000000       0x3d build/pic32mz_ef_sk/production/_ext/29024758/compress.o
 .comment       0x00000000       0x3d build/pic32mz_ef_sk/production/_ext/29024758/crypto.o
 .comment       0x00000000       0x3d build/pic32mz_ef_sk/production/_ext/29024758/coding.o
 .comment       0x00000000       0x3d build/pic32mz_ef_sk/production/_ext/29024758/error.o
 .comment       0x00000000       0x3d build/pic32mz_ef_sk/production/_ext/29024758/integer.o
 .comment       0x00000000       0x3d build/pic32mz_ef_sk/production/_ext/29024758/logging.o
 .comment       0x00000000       0x3d build/pic32mz_ef_sk/production/_ext/29024758/memory.o
 .comment       0x00000000       0x3d build/pic32mz_ef_sk/production/_ext/29024758/wc_port.o
 .comment       0x00000000       0x3d build/pic32mz_ef_sk/production/_ext/29024758/wolfmath.o
 .comment       0x00000000       0x3d build/pic32mz_ef_sk/production/_ext/1697634946/drv_ethmac.o
 .comment       0x00000000       0x3d build/pic32mz_ef_sk/production/_ext/1697634946/drv_ethmac_lib.o
 .comment       0x00000000       0x3d build/pic32mz_ef_sk/production/_ext/521481140/drv_ethphy.o
 .comment       0x00000000       0x3d build/pic32mz_ef_sk/production/_ext/521481140/drv_extphy_smsc8740.o
 .comment       0x00000000       0x3d build/pic32mz_ef_sk/production/_ext/1470245908/drv_miim.o
 .comment       0x00000000       0x3d build/pic32mz_ef_sk/production/_ext/184581597/drv_nvm.o
 .comment       0x00000000       0x3d build/pic32mz_ef_sk/production/_ext/184581597/drv_nvm_erasewrite.o
 .comment       0x00000000       0x3d build/pic32mz_ef_sk/production/_ext/941160041/drv_tmr.o
 .comment       0x00000000       0x3d build/pic32mz_ef_sk/production/_ext/821589181/drv_usart.o
 .comment       0x00000000       0x3d build/pic32mz_ef_sk/production/_ext/821589181/drv_usart_buffer_queue.o
 .comment       0x00000000       0x3d build/pic32mz_ef_sk/production/_ext/821589181/drv_usart_read_write.o
 .comment       0x00000000       0x3d build/pic32mz_ef_sk/production/_ext/871719959/net_pres.o
 .comment       0x00000000       0x3d build/pic32mz_ef_sk/production/_ext/308321468/osal_freertos.o
 .comment       0x00000000       0x3d build/pic32mz_ef_sk/production/_ext/1891376032/sys_command.o
 .comment       0x00000000       0x3d build/pic32mz_ef_sk/production/_ext/598853952/sys_buffer.o
 .comment       0x00000000       0x3d build/pic32mz_ef_sk/production/_ext/598853952/sys_queue.o
 .comment       0x00000000       0x3d build/pic32mz_ef_sk/production/_ext/1434663852/sys_console.o
 .comment       0x00000000       0x3d build/pic32mz_ef_sk/production/_ext/1434663852/sys_console_uart.o
 .comment       0x00000000       0x3d build/pic32mz_ef_sk/production/_ext/2137108136/sys_debug.o
 .comment       0x00000000       0x3d build/pic32mz_ef_sk/production/_ext/1750042194/sys_fs.o
 .comment       0x00000000       0x3d build/pic32mz_ef_sk/production/_ext/1750042194/sys_fs_media_manager.o
 .comment       0x00000000       0x3d build/pic32mz_ef_sk/production/_ext/614935175/mpfs.o
 .comment       0x00000000       0x3d build/pic32mz_ef_sk/production/_ext/1042686532/sys_int_pic32.o
 .comment       0x00000000       0x3d build/pic32mz_ef_sk/production/_ext/470001640/sys_random.o
 .comment       0x00000000       0x3d build/pic32mz_ef_sk/production/_ext/2110151058/sys_tmr.o
 .comment       0x00000000       0x3d build/pic32mz_ef_sk/production/_ext/1886247299/sys_fs_wrapper.o
 .comment       0x00000000       0x3d build/pic32mz_ef_sk/production/_ext/1886247299/helpers.o
 .comment       0x00000000       0x3d build/pic32mz_ef_sk/production/_ext/1164207549/ipv4.o
 .comment       0x00000000       0x3d build/pic32mz_ef_sk/production/_ext/1164207549/ndp.o
 .comment       0x00000000       0x3d build/pic32mz_ef_sk/production/_ext/1164207549/ipv6.o
 .comment       0x00000000       0x3d build/pic32mz_ef_sk/production/_ext/1164207549/icmpv6.o
 .comment       0x00000000       0x3d build/pic32mz_ef_sk/production/_ext/1164207549/tcp.o
 .comment       0x00000000       0x3d build/pic32mz_ef_sk/production/_ext/1164207549/udp.o
 .comment       0x00000000       0x3d build/pic32mz_ef_sk/production/_ext/1164207549/tcpip_heap_alloc.o
 .comment       0x00000000       0x3d build/pic32mz_ef_sk/production/_ext/1164207549/tcpip_heap_internal.o
 .comment       0x00000000       0x3d build/pic32mz_ef_sk/production/_ext/1164207549/arp.o
 .comment       0x00000000       0x3d build/pic32mz_ef_sk/production/_ext/1164207549/dhcp.o
 .comment       0x00000000       0x3d build/pic32mz_ef_sk/production/_ext/1164207549/dns.o
 .comment       0x00000000       0x3d build/pic32mz_ef_sk/production/_ext/1164207549/http.o
 .comment       0x00000000       0x3d build/pic32mz_ef_sk/production/_ext/1164207549/nbns.o
 .comment       0x00000000       0x3d build/pic32mz_ef_sk/production/_ext/1164207549/smtp.o
 .comment       0x00000000       0x3d build/pic32mz_ef_sk/production/_ext/1164207549/sntp.o
 .comment       0x00000000       0x3d build/pic32mz_ef_sk/production/_ext/1164207549/zero_conf_helper.o
 .comment       0x00000000       0x3d build/pic32mz_ef_sk/production/_ext/1164207549/zero_conf_link_local.o
 .comment       0x00000000       0x3d build/pic32mz_ef_sk/production/_ext/1164207549/tcpip_announce.o
 .comment       0x00000000       0x3d build/pic32mz_ef_sk/production/_ext/1164207549/tcpip_commands.o
 .comment       0x00000000       0x3d build/pic32mz_ef_sk/production/_ext/1164207549/hash_fnv.o
 .comment       0x00000000       0x3d build/pic32mz_ef_sk/production/_ext/1164207549/oahash.o
 .comment       0x00000000       0x3d build/pic32mz_ef_sk/production/_ext/1164207549/tcpip_helpers.o
 .comment       0x00000000       0x3d build/pic32mz_ef_sk/production/_ext/1164207549/tcpip_manager.o
 .comment       0x00000000       0x3d build/pic32mz_ef_sk/production/_ext/1164207549/tcpip_notify.o
 .comment       0x00000000       0x3d build/pic32mz_ef_sk/production/_ext/1164207549/tcpip_packet.o
 .comment       0x00000000       0x3d build/pic32mz_ef_sk/production/_ext/1107379230/heap_1.o
 .comment       0x00000000       0x3d build/pic32mz_ef_sk/production/_ext/1282498061/port.o
 .comment       0x00000000       0x3d build/pic32mz_ef_sk/production/_ext/373060831/croutine.o
 .comment       0x00000000       0x3d build/pic32mz_ef_sk/production/_ext/373060831/list.o
 .comment       0x00000000       0x3d build/pic32mz_ef_sk/production/_ext/373060831/queue.o
 .comment       0x00000000       0x3d build/pic32mz_ef_sk/production/_ext/373060831/tasks.o
 .comment       0x00000000       0x3d build/pic32mz_ef_sk/production/_ext/373060831/timers.o
 .comment       0x00000000       0x3d build/pic32mz_ef_sk/production/_ext/373060831/event_groups.o
 .comment       0x00000000       0x3d build/pic32mz_ef_sk/production/_ext/1360937237/websocket.o
 .comment       0x00000000       0x3d build/pic32mz_ef_sk/production/_ext/1360937237/websocket_thread.o
 .comment       0x00000000       0x3d build/pic32mz_ef_sk/production/_ext/1164207549/icmp.o
 .comment       0x00000000       0x3d c:/program files (x86)/microchip/xc32/v1.44/bin/bin/../../lib/gcc/pic32mx/4.8.3/fpu64\libgcc.a(_udivdi3.o)
 .comment       0x0000003c       0x18 c:/program files (x86)/microchip/xc32/v1.44/bin/bin/../../lib/gcc/pic32mx/4.8.3/../../../../pic32mx/lib/fpu64\libpic32.a(memcmp.o)
                                 0x19 (size before relaxing)
 .comment       0x00000054       0x18 c:/program files (x86)/microchip/xc32/v1.44/bin/bin/../../lib/gcc/pic32mx/4.8.3/../../../../pic32mx/lib/fpu64\libpic32.a(memset.o)
                                 0x19 (size before relaxing)
 .comment       0x0000006c       0x19 c:/program files (x86)/microchip/xc32/v1.44/bin/bin/../../lib/gcc/pic32mx/4.8.3/../../../../pic32mx/lib/fpu64\libpic32.a(strcmp.o)
                                 0x1a (size before relaxing)
 .comment       0x00000085       0x19 c:/program files (x86)/microchip/xc32/v1.44/bin/bin/../../lib/gcc/pic32mx/4.8.3/../../../../pic32mx/lib/fpu64\libpic32.a(strcpy.o)
                                 0x1a (size before relaxing)
 .comment       0x0000009e       0x19 c:/program files (x86)/microchip/xc32/v1.44/bin/bin/../../lib/gcc/pic32mx/4.8.3/../../../../pic32mx/lib/fpu64\libpic32.a(strlen.o)
                                 0x1a (size before relaxing)
 .comment       0x00000000       0x3d c:/program files (x86)/microchip/xc32/v1.44/bin/bin/../../lib/gcc/pic32mx/4.8.3/../../../../pic32mx/lib/fpu64\libpic32.a(default-bootstrap-exception-handler.o)
 .comment       0x00000000       0x3d c:/program files (x86)/microchip/xc32/v1.44/bin/bin/../../lib/gcc/pic32mx/4.8.3/../../../../pic32mx/lib/fpu64\libpic32.a(default-on-reset.o)
 .comment       0x00000000       0x3d c:/program files (x86)/microchip/xc32/v1.44/bin/bin/../../lib/gcc/pic32mx/4.8.3/../../../../pic32mx/lib/fpu64\libpic32.a(default-on-bootstrap.o)
 .comment       0x00000000       0x3d c:/program files (x86)/microchip/xc32/v1.44/bin/bin/../../lib/gcc/pic32mx/4.8.3/../../../../pic32mx/lib/fpu64\libpic32.a(defaultinterrupt.o)
 .comment       0x00000000       0x3d c:/program files (x86)/microchip/xc32/v1.44/bin/bin/../../lib/gcc/pic32mx/4.8.3/../../../../pic32mx/lib/fpu64\libpic32.a(default-cache-err-exception-handler.o)
 .comment       0x00000000       0x3d c:/program files (x86)/microchip/xc32/v1.44/bin/bin/../../lib/gcc/pic32mx/4.8.3/../../../../pic32mx/lib/fpu64\libpic32.a(default-simple-tlb-refill-exception-handler.o)
 .comment       0x00000000       0x3d c:/program files (x86)/microchip/xc32/v1.44/bin/bin/../../lib/gcc/pic32mx/4.8.3/../../../../pic32mx/lib/fpu64\libc.a(fassert.o)
 .comment       0x00000000       0x3d c:/program files (x86)/microchip/xc32/v1.44/bin/bin/../../lib/gcc/pic32mx/4.8.3/../../../../pic32mx/lib/fpu64\libc.a(atoi.o)
 .comment       0x00000000       0x3d c:/program files (x86)/microchip/xc32/v1.44/bin/bin/../../lib/gcc/pic32mx/4.8.3/../../../../pic32mx/lib/fpu64\libc.a(atol.o)
 .comment       0x00000000       0x3d c:/program files (x86)/microchip/xc32/v1.44/bin/bin/../../lib/gcc/pic32mx/4.8.3/../../../../pic32mx/lib/fpu64\libc.a(calloc.o)
 .comment       0x000000b7       0x4e c:/program files (x86)/microchip/xc32/v1.44/bin/bin/../../lib/gcc/pic32mx/4.8.3/../../../../pic32mx/lib/fpu64\libc.a(ctype.o)
                                 0x8b (size before relaxing)
 .comment       0x00000105       0x4f c:/program files (x86)/microchip/xc32/v1.44/bin/bin/../../lib/gcc/pic32mx/4.8.3/../../../../pic32mx/lib/fpu64\libc.a(ctypef.o)
                                 0x8c (size before relaxing)
 .comment       0x00000000       0x3d c:/program files (x86)/microchip/xc32/v1.44/bin/bin/../../lib/gcc/pic32mx/4.8.3/../../../../pic32mx/lib/fpu64\libc.a(malloc.o)
 .comment       0x00000000       0x3d c:/program files (x86)/microchip/xc32/v1.44/bin/bin/../../lib/gcc/pic32mx/4.8.3/../../../../pic32mx/lib/fpu64\libc.a(perror.o)
 .comment       0x00000000       0x3d c:/program files (x86)/microchip/xc32/v1.44/bin/bin/../../lib/gcc/pic32mx/4.8.3/../../../../pic32mx/lib/fpu64\libc.a(rand.o)
 .comment       0x00000000       0x3d c:/program files (x86)/microchip/xc32/v1.44/bin/bin/../../lib/gcc/pic32mx/4.8.3/../../../../pic32mx/lib/fpu64\libc.a(signal.o)
 .comment       0x00000000       0x3d c:/program files (x86)/microchip/xc32/v1.44/bin/bin/../../lib/gcc/pic32mx/4.8.3/../../../../pic32mx/lib/fpu64\libc.a(strcat.o)
 .comment       0x00000000       0x3d c:/program files (x86)/microchip/xc32/v1.44/bin/bin/../../lib/gcc/pic32mx/4.8.3/../../../../pic32mx/lib/fpu64\libc.a(strchr.o)
 .comment       0x00000000       0x3d c:/program files (x86)/microchip/xc32/v1.44/bin/bin/../../lib/gcc/pic32mx/4.8.3/../../../../pic32mx/lib/fpu64\libc.a(strncat.o)
 .comment       0x00000000       0x3d c:/program files (x86)/microchip/xc32/v1.44/bin/bin/../../lib/gcc/pic32mx/4.8.3/../../../../pic32mx/lib/fpu64\libc.a(strncmp.o)
 .comment       0x00000000       0x3d c:/program files (x86)/microchip/xc32/v1.44/bin/bin/../../lib/gcc/pic32mx/4.8.3/../../../../pic32mx/lib/fpu64\libc.a(strncpy.o)
 .comment       0x00000000       0x3d c:/program files (x86)/microchip/xc32/v1.44/bin/bin/../../lib/gcc/pic32mx/4.8.3/../../../../pic32mx/lib/fpu64\libc.a(strstr.o)
 .comment       0x00000000       0x3d c:/program files (x86)/microchip/xc32/v1.44/bin/bin/../../lib/gcc/pic32mx/4.8.3/../../../../pic32mx/lib/fpu64\libc.a(strtol.o)
 .comment       0x00000000       0x3d c:/program files (x86)/microchip/xc32/v1.44/bin/bin/../../lib/gcc/pic32mx/4.8.3/../../../../pic32mx/lib/fpu64\libc.a(sys_err.o)
 .comment       0x00000000       0x3d c:/program files (x86)/microchip/xc32/v1.44/bin/bin/../../lib/gcc/pic32mx/4.8.3/../../../../pic32mx/lib/fpu64\libc.a(exit.o)
 .comment       0x00000000       0x3d c:/program files (x86)/microchip/xc32/v1.44/bin/bin/../../lib/gcc/pic32mx/4.8.3/../../../../pic32mx/lib/fpu64\libc.a(stdclean_simple.o)
 .comment       0x00000000       0x3d c:/program files (x86)/microchip/xc32/v1.44/bin/bin/../../lib/gcc/pic32mx/4.8.3/../../../../pic32mx/lib/fpu64\libc.a(fprintf_cdnopsuxX.eo)
 .comment       0x00000000       0x3d c:/program files (x86)/microchip/xc32/v1.44/bin/bin/../../lib/gcc/pic32mx/4.8.3/../../../../pic32mx/lib/fpu64\libc.a(snprintf_cdnopsuxX.eo)
 .comment       0x00000000       0x3d c:/program files (x86)/microchip/xc32/v1.44/bin/bin/../../lib/gcc/pic32mx/4.8.3/../../../../pic32mx/lib/fpu64\libc.a(sprintf_cdnopsuxX.eo)
 .comment       0x00000000       0x3d c:/program files (x86)/microchip/xc32/v1.44/bin/bin/../../lib/gcc/pic32mx/4.8.3/../../../../pic32mx/lib/fpu64\libc.a(sscanf_s.eo)
 .comment       0x00000000       0x3d c:/program files (x86)/microchip/xc32/v1.44/bin/bin/../../lib/gcc/pic32mx/4.8.3/../../../../pic32mx/lib/fpu64\libc.a(vsnprintf_cdnopsuxX.eo)
 .comment       0x00000000       0x3d c:/program files (x86)/microchip/xc32/v1.44/bin/bin/../../lib/gcc/pic32mx/4.8.3/../../../../pic32mx/lib/fpu64\libc.a(vsnprintf.o)
 .comment       0x00000000       0x3d c:/program files (x86)/microchip/xc32/v1.44/bin/bin/../../lib/gcc/pic32mx/4.8.3/../../../../pic32mx/lib/fpu64\libc.a(_iob.o)
 .comment       0x00000000       0x3d c:/program files (x86)/microchip/xc32/v1.44/bin/bin/../../lib/gcc/pic32mx/4.8.3/../../../../pic32mx/lib/fpu64\libc.a(_fputc_simple.o)
 .comment       0x00000000       0x3d c:/program files (x86)/microchip/xc32/v1.44/bin/bin/../../lib/gcc/pic32mx/4.8.3/../../../../pic32mx/lib/fpu64\libc.a(errno.o)
 .comment       0x00000000       0x3d c:/program files (x86)/microchip/xc32/v1.44/bin/bin/../../lib/gcc/pic32mx/4.8.3/../../../../pic32mx/lib/fpu64\libc.a(doprnt_cdnopsuxX.eo)
 .comment       0x00000000       0x3d c:/program files (x86)/microchip/xc32/v1.44/bin/bin/../../lib/gcc/pic32mx/4.8.3/../../../../pic32mx/lib/fpu64\libc.a(doprnt.o)
 .comment       0x00000000       0x3d c:/program files (x86)/microchip/xc32/v1.44/bin/bin/../../lib/gcc/pic32mx/4.8.3/../../../../pic32mx/lib/fpu64\libc.a(doscan_s.eo)
 .comment       0x00000000       0x3d c:/program files (x86)/microchip/xc32/v1.44/bin/bin/../../lib/gcc/pic32mx/4.8.3/../../../../pic32mx/lib/fpu64\libc.a(_flsbuf_simple.o)
 .comment       0x00000000       0x3d c:/program files (x86)/microchip/xc32/v1.44/bin/bin/../../lib/gcc/pic32mx/4.8.3/../../../../pic32mx/lib/fpu64\libc.a(fgetc.o)
 .comment       0x00000000       0x3d c:/program files (x86)/microchip/xc32/v1.44/bin/bin/../../lib/gcc/pic32mx/4.8.3/../../../../pic32mx/lib/fpu64\libc.a(ldpowers.o)
 .comment       0x00000000       0x3d c:/program files (x86)/microchip/xc32/v1.44/bin/bin/../../lib/gcc/pic32mx/4.8.3/../../../../pic32mx/lib/fpu64\libc.a(ungetc.o)
 .comment       0x00000000       0x3d c:/program files (x86)/microchip/xc32/v1.44/bin/bin/../../lib/gcc/pic32mx/4.8.3/../../../../pic32mx/lib/fpu64\libc.a(filbuf.o)
 .comment       0x00000000       0x3d c:/program files (x86)/microchip/xc32/v1.44/bin/bin/../../lib/gcc/pic32mx/4.8.3/../../../../pic32mx/lib/fpu64\libc.a(fflush.o)
 .comment       0x00000000       0x3d c:/program files (x86)/microchip/xc32/v1.44/bin/bin/../../lib/gcc/pic32mx/4.8.3/../../../../pic32mx/lib/fpu64\libmfd.a(s_frexp.o)
 .comment       0x00000000       0x3d c:/program files (x86)/microchip/xc32/v1.44/bin/bin/../../lib/gcc/pic32mx/4.8.3/fpu64\libgcc.a(_cmpdi2.o)
 .comment       0x00000000       0x3d c:/program files (x86)/microchip/xc32/v1.44/bin/bin/../../lib/gcc/pic32mx/4.8.3/fpu64\libgcc.a(_umoddi3.o)
 .comment       0x00000154       0x4b c:/program files (x86)/microchip/xc32/v1.44/bin/bin/../../lib/gcc/pic32mx/4.8.3/../../../../pic32mx/lib/fpu64\libpic32.a(sbrk.o)
                                 0x88 (size before relaxing)
 .comment       0x00000000       0x3d c:/program files (x86)/microchip/xc32/v1.44/bin/bin/../../lib/gcc/pic32mx/4.8.3/../../../../pic32mx/lib/fpu64\libpic32.a(read.o)
 .comment       0x00000000       0x3d c:/program files (x86)/microchip/xc32/v1.44/bin/bin/../../lib/gcc/pic32mx/4.8.3/../../../../pic32mx/lib/fpu64\libpic32.a(write.o)
 .comment       0x00000000       0x3d c:/program files (x86)/microchip/xc32/v1.44/bin/bin/../../lib/gcc/pic32mx/4.8.3/../../../../pic32mx/lib/fpu64\libpic32.a(xc32_uart.o)
 .comment       0x00000000       0x3d c:/program files (x86)/microchip/xc32/v1.44/bin/bin/../../lib/gcc/pic32mx/4.8.3/../../../../pic32mx/lib/fpu64\libpic32.a(_mon_putc.o)

.debug
 *.elf(.debug)
 *(.debug)

.line
 *.elf(.line)
 *(.line)

.debug_srcinfo
 *.elf(.debug_srcinfo)
 *(.debug_srcinfo)

.debug_sfnames
 *.elf(.debug_sfnames)
 *(.debug_sfnames)

.debug_aranges  0x00000000     0x49c0
 *.elf(.debug_aranges)
 *(.debug_aranges)
 .debug_aranges
                0x00000000       0x18 build/pic32mz_ef_sk/production/_ext/29024758/misc.o
 .debug_aranges
                0x00000018       0x68 build/pic32mz_ef_sk/production/_ext/354129722/bsp.o
 .debug_aranges
                0x00000080       0x18 build/pic32mz_ef_sk/production/_ext/854288108/net_pres_enc_glue.o
 .debug_aranges
                0x00000098       0x50 build/pic32mz_ef_sk/production/_ext/571564127/sys_clk_pic32mz.o
 .debug_aranges
                0x000000e8       0x78 build/pic32mz_ef_sk/production/_ext/1868830280/sys_devcon.o
 .debug_aranges
                0x00000160       0xc8 build/pic32mz_ef_sk/production/_ext/1868830280/sys_devcon_pic32mz.o
 .debug_aranges
                0x00000228      0x148 build/pic32mz_ef_sk/production/_ext/1009894383/sys_ports_static.o
 .debug_aranges
                0x00000370       0x38 build/pic32mz_ef_sk/production/_ext/119080242/sys_reset.o
 .debug_aranges
                0x000003a8       0x28 build/pic32mz_ef_sk/production/_ext/849053718/system_init.o
 .debug_aranges
                0x000003d0       0x50 build/pic32mz_ef_sk/production/_ext/849053718/system_interrupt.o
 .debug_aranges
                0x00000420       0x20 build/pic32mz_ef_sk/production/_ext/849053718/system_exceptions.o
 .debug_aranges
                0x00000440       0x48 build/pic32mz_ef_sk/production/_ext/849053718/system_tasks.o
 .debug_aranges
                0x00000488       0x48 build/pic32mz_ef_sk/production/_ext/849053718/system_interrupt_a.o
 .debug_aranges
                0x000004d0       0x28 build/pic32mz_ef_sk/production/_ext/849053718/rtos_hooks.o
 .debug_aranges
                0x000004f8       0x28 build/pic32mz_ef_sk/production/_ext/1360937237/app.o
 .debug_aranges
                0x00000520       0x20 build/pic32mz_ef_sk/production/_ext/1360937237/main.o
 .debug_aranges
                0x00000540       0x28 build/pic32mz_ef_sk/production/_ext/1360937237/streamer.o
 .debug_aranges
                0x00000568       0x28 build/pic32mz_ef_sk/production/_ext/1360937237/ws_server.o
 .debug_aranges
                0x00000590       0x28 build/pic32mz_ef_sk/production/_ext/1360937237/http_print.o
 .debug_aranges
                0x000005b8      0x148 build/pic32mz_ef_sk/production/_ext/1360937237/custom_http_app.o
 .debug_aranges
                0x00000700       0x18 build/pic32mz_ef_sk/production/_ext/1360937237/mpfs_img2.o
 .debug_aranges
                0x00000718       0x38 build/pic32mz_ef_sk/production/_ext/2046866571/adler32.o
 .debug_aranges
                0x00000750       0x30 build/pic32mz_ef_sk/production/_ext/2046866571/compress.o
 .debug_aranges
                0x00000780       0x50 build/pic32mz_ef_sk/production/_ext/2046866571/crc32.o
 .debug_aranges
                0x000007d0       0xc0 build/pic32mz_ef_sk/production/_ext/2046866571/deflate.o
 .debug_aranges
                0x00000890       0x30 build/pic32mz_ef_sk/production/_ext/2046866571/infback.o
 .debug_aranges
                0x000008c0       0x20 build/pic32mz_ef_sk/production/_ext/2046866571/inffast.o
 .debug_aranges
                0x000008e0       0xa0 build/pic32mz_ef_sk/production/_ext/2046866571/inflate.o
 .debug_aranges
                0x00000980       0x20 build/pic32mz_ef_sk/production/_ext/2046866571/inftrees.o
 .debug_aranges
                0x000009a0       0x88 build/pic32mz_ef_sk/production/_ext/2046866571/trees.o
 .debug_aranges
                0x00000a28       0x20 build/pic32mz_ef_sk/production/_ext/2046866571/uncompr.o
 .debug_aranges
                0x00000a48       0x40 build/pic32mz_ef_sk/production/_ext/2046866571/zutil.o
 .debug_aranges
                0x00000a88       0x18 build/pic32mz_ef_sk/production/_ext/29024758/ecc.o
 .debug_aranges
                0x00000aa0       0x38 build/pic32mz_ef_sk/production/_ext/29024758/arc4.o
 .debug_aranges
                0x00000ad8      0x2e8 build/pic32mz_ef_sk/production/_ext/29024758/tfm.o
 .debug_aranges
                0x00000dc0       0x88 build/pic32mz_ef_sk/production/_ext/29024758/des3.o
 .debug_aranges
                0x00000e48       0x18 build/pic32mz_ef_sk/production/_ext/29024758/rsa.o
 .debug_aranges
                0x00000e60       0x18 build/pic32mz_ef_sk/production/_ext/29024758/aes.o
 .debug_aranges
                0x00000e78       0x58 build/pic32mz_ef_sk/production/_ext/29024758/md5.o
 .debug_aranges
                0x00000ed0       0x58 build/pic32mz_ef_sk/production/_ext/29024758/sha.o
 .debug_aranges
                0x00000f28       0x58 build/pic32mz_ef_sk/production/_ext/29024758/sha256.o
 .debug_aranges
                0x00000f80       0x58 build/pic32mz_ef_sk/production/_ext/29024758/hmac.o
 .debug_aranges
                0x00000fd8       0x60 build/pic32mz_ef_sk/production/_ext/29024758/hash.o
 .debug_aranges
                0x00001038       0xd0 build/pic32mz_ef_sk/production/_ext/29024758/crypto.o
 .debug_aranges
                0x00001108       0x48 build/pic32mz_ef_sk/production/_ext/29024758/coding.o
 .debug_aranges
                0x00001150       0x28 build/pic32mz_ef_sk/production/_ext/29024758/error.o
 .debug_aranges
                0x00001178       0x18 build/pic32mz_ef_sk/production/_ext/29024758/integer.o
 .debug_aranges
                0x00001190       0x30 build/pic32mz_ef_sk/production/_ext/29024758/logging.o
 .debug_aranges
                0x000011c0       0x40 build/pic32mz_ef_sk/production/_ext/29024758/memory.o
 .debug_aranges
                0x00001200       0x50 build/pic32mz_ef_sk/production/_ext/29024758/wc_port.o
 .debug_aranges
                0x00001250       0x30 build/pic32mz_ef_sk/production/_ext/29024758/wolfmath.o
 .debug_aranges
                0x00001280      0x180 build/pic32mz_ef_sk/production/_ext/1697634946/drv_ethmac.o
 .debug_aranges
                0x00001400       0xe8 build/pic32mz_ef_sk/production/_ext/1697634946/drv_ethmac_lib.o
 .debug_aranges
                0x000014e8      0x278 build/pic32mz_ef_sk/production/_ext/521481140/drv_ethphy.o
 .debug_aranges
                0x00001760       0x30 build/pic32mz_ef_sk/production/_ext/521481140/drv_extphy_smsc8740.o
 .debug_aranges
                0x00001790       0xe8 build/pic32mz_ef_sk/production/_ext/1470245908/drv_miim.o
 .debug_aranges
                0x00001878       0xb8 build/pic32mz_ef_sk/production/_ext/184581597/drv_nvm.o
 .debug_aranges
                0x00001930       0x20 build/pic32mz_ef_sk/production/_ext/184581597/drv_nvm_erasewrite.o
 .debug_aranges
                0x00001950      0x110 build/pic32mz_ef_sk/production/_ext/941160041/drv_tmr.o
 .debug_aranges
                0x00001a60       0xe8 build/pic32mz_ef_sk/production/_ext/821589181/drv_usart.o
 .debug_aranges
                0x00001b48       0x50 build/pic32mz_ef_sk/production/_ext/821589181/drv_usart_buffer_queue.o
 .debug_aranges
                0x00001b98       0x28 build/pic32mz_ef_sk/production/_ext/821589181/drv_usart_read_write.o
 .debug_aranges
                0x00001bc0      0x110 build/pic32mz_ef_sk/production/_ext/871719959/net_pres.o
 .debug_aranges
                0x00001cd0       0x88 build/pic32mz_ef_sk/production/_ext/308321468/osal_freertos.o
 .debug_aranges
                0x00001d58       0xd0 build/pic32mz_ef_sk/production/_ext/1891376032/sys_command.o
 .debug_aranges
                0x00001e28       0x50 build/pic32mz_ef_sk/production/_ext/598853952/sys_buffer.o
 .debug_aranges
                0x00001e78       0x38 build/pic32mz_ef_sk/production/_ext/598853952/sys_queue.o
 .debug_aranges
                0x00001eb0       0x60 build/pic32mz_ef_sk/production/_ext/1434663852/sys_console.o
 .debug_aranges
                0x00001f10       0x60 build/pic32mz_ef_sk/production/_ext/1434663852/sys_console_uart.o
 .debug_aranges
                0x00001f70       0x60 build/pic32mz_ef_sk/production/_ext/2137108136/sys_debug.o
 .debug_aranges
                0x00001fd0      0x188 build/pic32mz_ef_sk/production/_ext/1750042194/sys_fs.o
 .debug_aranges
                0x00002158       0x98 build/pic32mz_ef_sk/production/_ext/1750042194/sys_fs_media_manager.o
 .debug_aranges
                0x000021f0       0xa0 build/pic32mz_ef_sk/production/_ext/614935175/mpfs.o
 .debug_aranges
                0x00002290       0x48 build/pic32mz_ef_sk/production/_ext/1042686532/sys_int_pic32.o
 .debug_aranges
                0x000022d8       0x38 build/pic32mz_ef_sk/production/_ext/470001640/sys_random.o
 .debug_aranges
                0x00002310       0xd0 build/pic32mz_ef_sk/production/_ext/2110151058/sys_tmr.o
 .debug_aranges
                0x000023e0       0x40 build/pic32mz_ef_sk/production/_ext/1886247299/sys_fs_wrapper.o
 .debug_aranges
                0x00002420       0x40 build/pic32mz_ef_sk/production/_ext/1886247299/helpers.o
 .debug_aranges
                0x00002460       0xc0 build/pic32mz_ef_sk/production/_ext/1164207549/ipv4.o
 .debug_aranges
                0x00002520      0x118 build/pic32mz_ef_sk/production/_ext/1164207549/ndp.o
 .debug_aranges
                0x00002638      0x2a8 build/pic32mz_ef_sk/production/_ext/1164207549/ipv6.o
 .debug_aranges
                0x000028e0       0x90 build/pic32mz_ef_sk/production/_ext/1164207549/icmpv6.o
 .debug_aranges
                0x00002970      0x258 build/pic32mz_ef_sk/production/_ext/1164207549/tcp.o
 .debug_aranges
                0x00002bc8      0x208 build/pic32mz_ef_sk/production/_ext/1164207549/udp.o
 .debug_aranges
                0x00002dd0       0x48 build/pic32mz_ef_sk/production/_ext/1164207549/tcpip_heap_alloc.o
 .debug_aranges
                0x00002e18       0x60 build/pic32mz_ef_sk/production/_ext/1164207549/tcpip_heap_internal.o
 .debug_aranges
                0x00002e78      0x120 build/pic32mz_ef_sk/production/_ext/1164207549/arp.o
 .debug_aranges
                0x00002f98      0x188 build/pic32mz_ef_sk/production/_ext/1164207549/dhcp.o
 .debug_aranges
                0x00003120      0x140 build/pic32mz_ef_sk/production/_ext/1164207549/dns.o
 .debug_aranges
                0x00003260      0x140 build/pic32mz_ef_sk/production/_ext/1164207549/http.o
 .debug_aranges
                0x000033a0       0x40 build/pic32mz_ef_sk/production/_ext/1164207549/nbns.o
 .debug_aranges
                0x000033e0       0x90 build/pic32mz_ef_sk/production/_ext/1164207549/smtp.o
 .debug_aranges
                0x00003470       0x98 build/pic32mz_ef_sk/production/_ext/1164207549/sntp.o
 .debug_aranges
                0x00003508       0x20 build/pic32mz_ef_sk/production/_ext/1164207549/zero_conf_helper.o
 .debug_aranges
                0x00003528       0x78 build/pic32mz_ef_sk/production/_ext/1164207549/zero_conf_link_local.o
 .debug_aranges
                0x000035a0       0xb0 build/pic32mz_ef_sk/production/_ext/1164207549/tcpip_announce.o
 .debug_aranges
                0x00003650       0xd0 build/pic32mz_ef_sk/production/_ext/1164207549/tcpip_commands.o
 .debug_aranges
                0x00003720       0x28 build/pic32mz_ef_sk/production/_ext/1164207549/hash_fnv.o
 .debug_aranges
                0x00003748       0x50 build/pic32mz_ef_sk/production/_ext/1164207549/oahash.o
 .debug_aranges
                0x00003798      0x210 build/pic32mz_ef_sk/production/_ext/1164207549/tcpip_helpers.o
 .debug_aranges
                0x000039a8       0x20 build/pic32mz_ef_sk/production/_ext/1164207549/tcpip_helper_c32.o
 .debug_aranges
                0x000039c8      0x380 build/pic32mz_ef_sk/production/_ext/1164207549/tcpip_manager.o
 .debug_aranges
                0x00003d48       0x40 build/pic32mz_ef_sk/production/_ext/1164207549/tcpip_notify.o
 .debug_aranges
                0x00003d88       0x78 build/pic32mz_ef_sk/production/_ext/1164207549/tcpip_packet.o
 .debug_aranges
                0x00003e00       0x38 build/pic32mz_ef_sk/production/_ext/1107379230/heap_1.o
 .debug_aranges
                0x00003e38       0x58 build/pic32mz_ef_sk/production/_ext/1282498061/port.o
 .debug_aranges
                0x00003e90       0x30 build/pic32mz_ef_sk/production/_ext/1282498061/port_asm.o
 .debug_aranges
                0x00003ec0       0x18 build/pic32mz_ef_sk/production/_ext/373060831/croutine.o
 .debug_aranges
                0x00003ed8       0x40 build/pic32mz_ef_sk/production/_ext/373060831/list.o
 .debug_aranges
                0x00003f18       0xb0 build/pic32mz_ef_sk/production/_ext/373060831/queue.o
 .debug_aranges
                0x00003fc8      0x178 build/pic32mz_ef_sk/production/_ext/373060831/tasks.o
 .debug_aranges
                0x00004140       0x18 build/pic32mz_ef_sk/production/_ext/373060831/timers.o
 .debug_aranges
                0x00004158       0x60 build/pic32mz_ef_sk/production/_ext/373060831/event_groups.o
 .debug_aranges
                0x000041b8       0x70 build/pic32mz_ef_sk/production/_ext/1360937237/websocket.o
 .debug_aranges
                0x00004228       0x38 build/pic32mz_ef_sk/production/_ext/1360937237/websocket_thread.o
 .debug_aranges
                0x00004260       0x70 build/pic32mz_ef_sk/production/_ext/1164207549/icmp.o
 .debug_aranges
                0x000042d0       0x20 c:/program files (x86)/microchip/xc32/v1.44/bin/bin/../../lib/gcc/pic32mx/4.8.3/fpu64\libgcc.a(_udivdi3.o)
 .debug_aranges
                0x000042f0       0x20 c:/program files (x86)/microchip/xc32/v1.44/bin/bin/../../lib/gcc/pic32mx/4.8.3/../../../../pic32mx/lib/fpu64\libpic32.a(default-bootstrap-exception-handler.o)
 .debug_aranges
                0x00004310       0x20 c:/program files (x86)/microchip/xc32/v1.44/bin/bin/../../lib/gcc/pic32mx/4.8.3/../../../../pic32mx/lib/fpu64\libpic32.a(default-on-reset.o)
 .debug_aranges
                0x00004330       0x20 c:/program files (x86)/microchip/xc32/v1.44/bin/bin/../../lib/gcc/pic32mx/4.8.3/../../../../pic32mx/lib/fpu64\libpic32.a(default-on-bootstrap.o)
 .debug_aranges
                0x00004350       0x20 c:/program files (x86)/microchip/xc32/v1.44/bin/bin/../../lib/gcc/pic32mx/4.8.3/../../../../pic32mx/lib/fpu64\libpic32.a(defaultinterrupt.o)
 .debug_aranges
                0x00004370       0x20 c:/program files (x86)/microchip/xc32/v1.44/bin/bin/../../lib/gcc/pic32mx/4.8.3/../../../../pic32mx/lib/fpu64\libpic32.a(default-cache-err-exception-handler.o)
 .debug_aranges
                0x00004390       0x20 c:/program files (x86)/microchip/xc32/v1.44/bin/bin/../../lib/gcc/pic32mx/4.8.3/../../../../pic32mx/lib/fpu64\libpic32.a(default-simple-tlb-refill-exception-handler.o)
 .debug_aranges
                0x000043b0       0x20 c:/program files (x86)/microchip/xc32/v1.44/bin/bin/../../lib/gcc/pic32mx/4.8.3/../../../../pic32mx/lib/fpu64\libc.a(fassert.o)
 .debug_aranges
                0x000043d0       0x20 c:/program files (x86)/microchip/xc32/v1.44/bin/bin/../../lib/gcc/pic32mx/4.8.3/../../../../pic32mx/lib/fpu64\libc.a(atoi.o)
 .debug_aranges
                0x000043f0       0x20 c:/program files (x86)/microchip/xc32/v1.44/bin/bin/../../lib/gcc/pic32mx/4.8.3/../../../../pic32mx/lib/fpu64\libc.a(atol.o)
 .debug_aranges
                0x00004410       0x20 c:/program files (x86)/microchip/xc32/v1.44/bin/bin/../../lib/gcc/pic32mx/4.8.3/../../../../pic32mx/lib/fpu64\libc.a(calloc.o)
 .debug_aranges
                0x00004430       0xa0 c:/program files (x86)/microchip/xc32/v1.44/bin/bin/../../lib/gcc/pic32mx/4.8.3/../../../../pic32mx/lib/fpu64\libc.a(ctypef.o)
 .debug_aranges
                0x000044d0       0x30 c:/program files (x86)/microchip/xc32/v1.44/bin/bin/../../lib/gcc/pic32mx/4.8.3/../../../../pic32mx/lib/fpu64\libc.a(malloc.o)
 .debug_aranges
                0x00004500       0x20 c:/program files (x86)/microchip/xc32/v1.44/bin/bin/../../lib/gcc/pic32mx/4.8.3/../../../../pic32mx/lib/fpu64\libc.a(perror.o)
 .debug_aranges
                0x00004520       0x28 c:/program files (x86)/microchip/xc32/v1.44/bin/bin/../../lib/gcc/pic32mx/4.8.3/../../../../pic32mx/lib/fpu64\libc.a(rand.o)
 .debug_aranges
                0x00004548       0x30 c:/program files (x86)/microchip/xc32/v1.44/bin/bin/../../lib/gcc/pic32mx/4.8.3/../../../../pic32mx/lib/fpu64\libc.a(signal.o)
 .debug_aranges
                0x00004578       0x20 c:/program files (x86)/microchip/xc32/v1.44/bin/bin/../../lib/gcc/pic32mx/4.8.3/../../../../pic32mx/lib/fpu64\libc.a(strcat.o)
 .debug_aranges
                0x00004598       0x20 c:/program files (x86)/microchip/xc32/v1.44/bin/bin/../../lib/gcc/pic32mx/4.8.3/../../../../pic32mx/lib/fpu64\libc.a(strchr.o)
 .debug_aranges
                0x000045b8       0x20 c:/program files (x86)/microchip/xc32/v1.44/bin/bin/../../lib/gcc/pic32mx/4.8.3/../../../../pic32mx/lib/fpu64\libc.a(strncat.o)
 .debug_aranges
                0x000045d8       0x20 c:/program files (x86)/microchip/xc32/v1.44/bin/bin/../../lib/gcc/pic32mx/4.8.3/../../../../pic32mx/lib/fpu64\libc.a(strncmp.o)
 .debug_aranges
                0x000045f8       0x20 c:/program files (x86)/microchip/xc32/v1.44/bin/bin/../../lib/gcc/pic32mx/4.8.3/../../../../pic32mx/lib/fpu64\libc.a(strncpy.o)
 .debug_aranges
                0x00004618       0x20 c:/program files (x86)/microchip/xc32/v1.44/bin/bin/../../lib/gcc/pic32mx/4.8.3/../../../../pic32mx/lib/fpu64\libc.a(strstr.o)
 .debug_aranges
                0x00004638       0x28 c:/program files (x86)/microchip/xc32/v1.44/bin/bin/../../lib/gcc/pic32mx/4.8.3/../../../../pic32mx/lib/fpu64\libc.a(strtol.o)
 .debug_aranges
                0x00004660       0x20 c:/program files (x86)/microchip/xc32/v1.44/bin/bin/../../lib/gcc/pic32mx/4.8.3/../../../../pic32mx/lib/fpu64\libc.a(sys_err.o)
 .debug_aranges
                0x00004680       0x20 c:/program files (x86)/microchip/xc32/v1.44/bin/bin/../../lib/gcc/pic32mx/4.8.3/../../../../pic32mx/lib/fpu64\libc.a(exit.o)
 .debug_aranges
                0x000046a0       0x20 c:/program files (x86)/microchip/xc32/v1.44/bin/bin/../../lib/gcc/pic32mx/4.8.3/../../../../pic32mx/lib/fpu64\libc.a(stdclean_simple.o)
 .debug_aranges
                0x000046c0       0x20 c:/program files (x86)/microchip/xc32/v1.44/bin/bin/../../lib/gcc/pic32mx/4.8.3/../../../../pic32mx/lib/fpu64\libc.a(fprintf_cdnopsuxX.eo)
 .debug_aranges
                0x000046e0       0x20 c:/program files (x86)/microchip/xc32/v1.44/bin/bin/../../lib/gcc/pic32mx/4.8.3/../../../../pic32mx/lib/fpu64\libc.a(snprintf_cdnopsuxX.eo)
 .debug_aranges
                0x00004700       0x20 c:/program files (x86)/microchip/xc32/v1.44/bin/bin/../../lib/gcc/pic32mx/4.8.3/../../../../pic32mx/lib/fpu64\libc.a(sprintf_cdnopsuxX.eo)
 .debug_aranges
                0x00004720       0x20 c:/program files (x86)/microchip/xc32/v1.44/bin/bin/../../lib/gcc/pic32mx/4.8.3/../../../../pic32mx/lib/fpu64\libc.a(sscanf_s.eo)
 .debug_aranges
                0x00004740       0x20 c:/program files (x86)/microchip/xc32/v1.44/bin/bin/../../lib/gcc/pic32mx/4.8.3/../../../../pic32mx/lib/fpu64\libc.a(vsnprintf_cdnopsuxX.eo)
 .debug_aranges
                0x00004760       0x20 c:/program files (x86)/microchip/xc32/v1.44/bin/bin/../../lib/gcc/pic32mx/4.8.3/../../../../pic32mx/lib/fpu64\libc.a(vsnprintf.o)
 .debug_aranges
                0x00004780       0x20 c:/program files (x86)/microchip/xc32/v1.44/bin/bin/../../lib/gcc/pic32mx/4.8.3/../../../../pic32mx/lib/fpu64\libc.a(_fputc_simple.o)
 .debug_aranges
                0x000047a0       0x20 c:/program files (x86)/microchip/xc32/v1.44/bin/bin/../../lib/gcc/pic32mx/4.8.3/../../../../pic32mx/lib/fpu64\libc.a(doprnt_cdnopsuxX.eo)
 .debug_aranges
                0x000047c0       0x30 c:/program files (x86)/microchip/xc32/v1.44/bin/bin/../../lib/gcc/pic32mx/4.8.3/../../../../pic32mx/lib/fpu64\libc.a(doprnt.o)
 .debug_aranges
                0x000047f0       0x30 c:/program files (x86)/microchip/xc32/v1.44/bin/bin/../../lib/gcc/pic32mx/4.8.3/../../../../pic32mx/lib/fpu64\libc.a(doscan_s.eo)
 .debug_aranges
                0x00004820       0x20 c:/program files (x86)/microchip/xc32/v1.44/bin/bin/../../lib/gcc/pic32mx/4.8.3/../../../../pic32mx/lib/fpu64\libc.a(_flsbuf_simple.o)
 .debug_aranges
                0x00004840       0x20 c:/program files (x86)/microchip/xc32/v1.44/bin/bin/../../lib/gcc/pic32mx/4.8.3/../../../../pic32mx/lib/fpu64\libc.a(fgetc.o)
 .debug_aranges
                0x00004860       0x20 c:/program files (x86)/microchip/xc32/v1.44/bin/bin/../../lib/gcc/pic32mx/4.8.3/../../../../pic32mx/lib/fpu64\libc.a(ungetc.o)
 .debug_aranges
                0x00004880       0x20 c:/program files (x86)/microchip/xc32/v1.44/bin/bin/../../lib/gcc/pic32mx/4.8.3/../../../../pic32mx/lib/fpu64\libc.a(filbuf.o)
 .debug_aranges
                0x000048a0       0x20 c:/program files (x86)/microchip/xc32/v1.44/bin/bin/../../lib/gcc/pic32mx/4.8.3/../../../../pic32mx/lib/fpu64\libc.a(fflush.o)
 .debug_aranges
                0x000048c0       0x20 c:/program files (x86)/microchip/xc32/v1.44/bin/bin/../../lib/gcc/pic32mx/4.8.3/../../../../pic32mx/lib/fpu64\libmfd.a(s_frexp.o)
 .debug_aranges
                0x000048e0       0x20 c:/program files (x86)/microchip/xc32/v1.44/bin/bin/../../lib/gcc/pic32mx/4.8.3/fpu64\libgcc.a(_cmpdi2.o)
 .debug_aranges
                0x00004900       0x20 c:/program files (x86)/microchip/xc32/v1.44/bin/bin/../../lib/gcc/pic32mx/4.8.3/fpu64\libgcc.a(_umoddi3.o)
 .debug_aranges
                0x00004920       0x40 c:/program files (x86)/microchip/xc32/v1.44/bin/bin/../../lib/gcc/pic32mx/4.8.3/../../../../pic32mx/lib/fpu64\libpic32.a(sbrk.o)
 .debug_aranges
                0x00004960       0x20 c:/program files (x86)/microchip/xc32/v1.44/bin/bin/../../lib/gcc/pic32mx/4.8.3/../../../../pic32mx/lib/fpu64\libpic32.a(read.o)
 .debug_aranges
                0x00004980       0x20 c:/program files (x86)/microchip/xc32/v1.44/bin/bin/../../lib/gcc/pic32mx/4.8.3/../../../../pic32mx/lib/fpu64\libpic32.a(write.o)
 .debug_aranges
                0x000049a0       0x20 c:/program files (x86)/microchip/xc32/v1.44/bin/bin/../../lib/gcc/pic32mx/4.8.3/../../../../pic32mx/lib/fpu64\libpic32.a(_mon_putc.o)

.debug_pubnames
 *.elf(.debug_pubnames)
 *(.debug_pubnames)

.debug_info     0x00000000   0x14e9be
 *.elf(.debug_info .gnu.linkonce.wi.*)
 *(.debug_info .gnu.linkonce.wi.*)
 .debug_info    0x00000000      0x130 build/pic32mz_ef_sk/production/_ext/29024758/misc.o
 .debug_info    0x00000130     0x1622 build/pic32mz_ef_sk/production/_ext/354129722/bsp.o
 .debug_info    0x00001752      0x191 build/pic32mz_ef_sk/production/_ext/854288108/net_pres_enc_glue.o
 .debug_info    0x000018e3     0x258a build/pic32mz_ef_sk/production/_ext/571564127/sys_clk_pic32mz.o
 .debug_info    0x00003e6d     0x1778 build/pic32mz_ef_sk/production/_ext/1868830280/sys_devcon.o
 .debug_info    0x000055e5     0x127a build/pic32mz_ef_sk/production/_ext/1868830280/sys_devcon_pic32mz.o
 .debug_info    0x0000685f     0x6206 build/pic32mz_ef_sk/production/_ext/1009894383/sys_ports_static.o
 .debug_info    0x0000ca65      0xc5b build/pic32mz_ef_sk/production/_ext/119080242/sys_reset.o
 .debug_info    0x0000d6c0     0xbc38 build/pic32mz_ef_sk/production/_ext/849053718/system_init.o
 .debug_info    0x000192f8     0x2b1c build/pic32mz_ef_sk/production/_ext/849053718/system_interrupt.o
 .debug_info    0x0001be14     0x1237 build/pic32mz_ef_sk/production/_ext/849053718/system_exceptions.o
 .debug_info    0x0001d04b     0x1688 build/pic32mz_ef_sk/production/_ext/849053718/system_tasks.o
 .debug_info    0x0001e6d3       0xb1 build/pic32mz_ef_sk/production/_ext/849053718/system_interrupt_a.o
 .debug_info    0x0001e784      0x267 build/pic32mz_ef_sk/production/_ext/849053718/rtos_hooks.o
 .debug_info    0x0001e9eb     0x19a6 build/pic32mz_ef_sk/production/_ext/1360937237/app.o
 .debug_info    0x00020391      0x1b9 build/pic32mz_ef_sk/production/_ext/1360937237/main.o
 .debug_info    0x0002054a     0x166b build/pic32mz_ef_sk/production/_ext/1360937237/streamer.o
 .debug_info    0x00021bb5     0x192e build/pic32mz_ef_sk/production/_ext/1360937237/ws_server.o
 .debug_info    0x000234e3      0xc39 build/pic32mz_ef_sk/production/_ext/1360937237/http_print.o
 .debug_info    0x0002411c     0x67b9 build/pic32mz_ef_sk/production/_ext/1360937237/custom_http_app.o
 .debug_info    0x0002a8d5      0x231 build/pic32mz_ef_sk/production/_ext/1360937237/mpfs_img2.o
 .debug_info    0x0002ab06      0x3a9 build/pic32mz_ef_sk/production/_ext/2046866571/adler32.o
 .debug_info    0x0002aeaf      0x600 build/pic32mz_ef_sk/production/_ext/2046866571/compress.o
 .debug_info    0x0002b4af      0x633 build/pic32mz_ef_sk/production/_ext/2046866571/crc32.o
 .debug_info    0x0002bae2     0x244d build/pic32mz_ef_sk/production/_ext/2046866571/deflate.o
 .debug_info    0x0002df2f     0x17c7 build/pic32mz_ef_sk/production/_ext/2046866571/infback.o
 .debug_info    0x0002f6f6      0xa1e build/pic32mz_ef_sk/production/_ext/2046866571/inffast.o
 .debug_info    0x00030114     0x1f0f build/pic32mz_ef_sk/production/_ext/2046866571/inflate.o
 .debug_info    0x00032023      0x4b2 build/pic32mz_ef_sk/production/_ext/2046866571/inftrees.o
 .debug_info    0x000324d5     0x1f38 build/pic32mz_ef_sk/production/_ext/2046866571/trees.o
 .debug_info    0x0003440d      0x520 build/pic32mz_ef_sk/production/_ext/2046866571/uncompr.o
 .debug_info    0x0003492d      0x35e build/pic32mz_ef_sk/production/_ext/2046866571/zutil.o
 .debug_info    0x00034c8b      0x12f build/pic32mz_ef_sk/production/_ext/29024758/ecc.o
 .debug_info    0x00034dba      0xcf0 build/pic32mz_ef_sk/production/_ext/29024758/arc4.o
 .debug_info    0x00035aaa     0x4114 build/pic32mz_ef_sk/production/_ext/29024758/tfm.o
 .debug_info    0x00039bbe     0x1e53 build/pic32mz_ef_sk/production/_ext/29024758/des3.o
 .debug_info    0x0003ba11      0x12f build/pic32mz_ef_sk/production/_ext/29024758/rsa.o
 .debug_info    0x0003bb40      0x12f build/pic32mz_ef_sk/production/_ext/29024758/aes.o
 .debug_info    0x0003bc6f     0x192a build/pic32mz_ef_sk/production/_ext/29024758/md5.o
 .debug_info    0x0003d599     0x3286 build/pic32mz_ef_sk/production/_ext/29024758/sha.o
 .debug_info    0x0004081f     0x1bd2 build/pic32mz_ef_sk/production/_ext/29024758/sha256.o
 .debug_info    0x000423f1     0x168d build/pic32mz_ef_sk/production/_ext/29024758/hmac.o
 .debug_info    0x00043a7e     0x1589 build/pic32mz_ef_sk/production/_ext/29024758/hash.o
 .debug_info    0x00045007     0x1c2f build/pic32mz_ef_sk/production/_ext/29024758/crypto.o
 .debug_info    0x00046c36     0x12cd build/pic32mz_ef_sk/production/_ext/29024758/coding.o
 .debug_info    0x00047f03      0xaf0 build/pic32mz_ef_sk/production/_ext/29024758/error.o
 .debug_info    0x000489f3      0x133 build/pic32mz_ef_sk/production/_ext/29024758/integer.o
 .debug_info    0x00048b26      0xaac build/pic32mz_ef_sk/production/_ext/29024758/logging.o
 .debug_info    0x000495d2      0xd08 build/pic32mz_ef_sk/production/_ext/29024758/memory.o
 .debug_info    0x0004a2da      0xb39 build/pic32mz_ef_sk/production/_ext/29024758/wc_port.o
 .debug_info    0x0004ae13      0x443 build/pic32mz_ef_sk/production/_ext/29024758/wolfmath.o
 .debug_info    0x0004b256     0xe9bb build/pic32mz_ef_sk/production/_ext/1697634946/drv_ethmac.o
 .debug_info    0x00059c11     0xba9b build/pic32mz_ef_sk/production/_ext/1697634946/drv_ethmac_lib.o
 .debug_info    0x000656ac     0x6c06 build/pic32mz_ef_sk/production/_ext/521481140/drv_ethphy.o
 .debug_info    0x0006c2b2     0x1a31 build/pic32mz_ef_sk/production/_ext/521481140/drv_extphy_smsc8740.o
 .debug_info    0x0006dce3     0x7610 build/pic32mz_ef_sk/production/_ext/1470245908/drv_miim.o
 .debug_info    0x000752f3     0x49b9 build/pic32mz_ef_sk/production/_ext/184581597/drv_nvm.o
 .debug_info    0x00079cac     0x2982 build/pic32mz_ef_sk/production/_ext/184581597/drv_nvm_erasewrite.o
 .debug_info    0x0007c62e     0x679c build/pic32mz_ef_sk/production/_ext/941160041/drv_tmr.o
 .debug_info    0x00082dca     0x70cc build/pic32mz_ef_sk/production/_ext/821589181/drv_usart.o
 .debug_info    0x00089e96     0x4233 build/pic32mz_ef_sk/production/_ext/821589181/drv_usart_buffer_queue.o
 .debug_info    0x0008e0c9     0x3cad build/pic32mz_ef_sk/production/_ext/821589181/drv_usart_read_write.o
 .debug_info    0x00091d76     0x2bfa build/pic32mz_ef_sk/production/_ext/871719959/net_pres.o
 .debug_info    0x00094970      0xa57 build/pic32mz_ef_sk/production/_ext/308321468/osal_freertos.o
 .debug_info    0x000953c7     0x3307 build/pic32mz_ef_sk/production/_ext/1891376032/sys_command.o
 .debug_info    0x000986ce      0x54c build/pic32mz_ef_sk/production/_ext/598853952/sys_buffer.o
 .debug_info    0x00098c1a      0x3d4 build/pic32mz_ef_sk/production/_ext/598853952/sys_queue.o
 .debug_info    0x00098fee      0xc4e build/pic32mz_ef_sk/production/_ext/1434663852/sys_console.o
 .debug_info    0x00099c3c     0x186e build/pic32mz_ef_sk/production/_ext/1434663852/sys_console_uart.o
 .debug_info    0x0009b4aa      0x905 build/pic32mz_ef_sk/production/_ext/2137108136/sys_debug.o
 .debug_info    0x0009bdaf     0x399e build/pic32mz_ef_sk/production/_ext/1750042194/sys_fs.o
 .debug_info    0x0009f74d     0x2252 build/pic32mz_ef_sk/production/_ext/1750042194/sys_fs_media_manager.o
 .debug_info    0x000a199f     0x18f6 build/pic32mz_ef_sk/production/_ext/614935175/mpfs.o
 .debug_info    0x000a3295     0x2018 build/pic32mz_ef_sk/production/_ext/1042686532/sys_int_pic32.o
 .debug_info    0x000a52ad      0x5bf build/pic32mz_ef_sk/production/_ext/470001640/sys_random.o
 .debug_info    0x000a586c     0x256c build/pic32mz_ef_sk/production/_ext/2110151058/sys_tmr.o
 .debug_info    0x000a7dd8      0xa61 build/pic32mz_ef_sk/production/_ext/1886247299/sys_fs_wrapper.o
 .debug_info    0x000a8839      0x48f build/pic32mz_ef_sk/production/_ext/1886247299/helpers.o
 .debug_info    0x000a8cc8     0x692c build/pic32mz_ef_sk/production/_ext/1164207549/ipv4.o
 .debug_info    0x000af5f4     0x6d58 build/pic32mz_ef_sk/production/_ext/1164207549/ndp.o
 .debug_info    0x000b634c     0xc480 build/pic32mz_ef_sk/production/_ext/1164207549/ipv6.o
 .debug_info    0x000c27cc     0x7584 build/pic32mz_ef_sk/production/_ext/1164207549/icmpv6.o
 .debug_info    0x000c9d50     0xbd67 build/pic32mz_ef_sk/production/_ext/1164207549/tcp.o
 .debug_info    0x000d5ab7     0xa41c build/pic32mz_ef_sk/production/_ext/1164207549/udp.o
 .debug_info    0x000dfed3     0x1342 build/pic32mz_ef_sk/production/_ext/1164207549/tcpip_heap_alloc.o
 .debug_info    0x000e1215     0x1ad0 build/pic32mz_ef_sk/production/_ext/1164207549/tcpip_heap_internal.o
 .debug_info    0x000e2ce5     0x7141 build/pic32mz_ef_sk/production/_ext/1164207549/arp.o
 .debug_info    0x000e9e26     0x9a6a build/pic32mz_ef_sk/production/_ext/1164207549/dhcp.o
 .debug_info    0x000f3890     0x7a42 build/pic32mz_ef_sk/production/_ext/1164207549/dns.o
 .debug_info    0x000fb2d2     0x7551 build/pic32mz_ef_sk/production/_ext/1164207549/http.o
 .debug_info    0x00102823     0x3fb2 build/pic32mz_ef_sk/production/_ext/1164207549/nbns.o
 .debug_info    0x001067d5     0x53f3 build/pic32mz_ef_sk/production/_ext/1164207549/smtp.o
 .debug_info    0x0010bbc8     0x5149 build/pic32mz_ef_sk/production/_ext/1164207549/sntp.o
 .debug_info    0x00110d11      0x9d4 build/pic32mz_ef_sk/production/_ext/1164207549/zero_conf_helper.o
 .debug_info    0x001116e5     0x4b2e build/pic32mz_ef_sk/production/_ext/1164207549/zero_conf_link_local.o
 .debug_info    0x00116213     0x5c76 build/pic32mz_ef_sk/production/_ext/1164207549/tcpip_announce.o
 .debug_info    0x0011be89     0x9e51 build/pic32mz_ef_sk/production/_ext/1164207549/tcpip_commands.o
 .debug_info    0x00125cda      0x284 build/pic32mz_ef_sk/production/_ext/1164207549/hash_fnv.o
 .debug_info    0x00125f5e      0x89e build/pic32mz_ef_sk/production/_ext/1164207549/oahash.o
 .debug_info    0x001267fc     0x3e82 build/pic32mz_ef_sk/production/_ext/1164207549/tcpip_helpers.o
 .debug_info    0x0012a67e       0xb3 build/pic32mz_ef_sk/production/_ext/1164207549/tcpip_helper_c32.o
 .debug_info    0x0012a731     0xbc59 build/pic32mz_ef_sk/production/_ext/1164207549/tcpip_manager.o
 .debug_info    0x0013638a     0x1165 build/pic32mz_ef_sk/production/_ext/1164207549/tcpip_notify.o
 .debug_info    0x001374ef     0x37cc build/pic32mz_ef_sk/production/_ext/1164207549/tcpip_packet.o
 .debug_info    0x0013acbb      0x385 build/pic32mz_ef_sk/production/_ext/1107379230/heap_1.o
 .debug_info    0x0013b040      0xe75 build/pic32mz_ef_sk/production/_ext/1282498061/port.o
 .debug_info    0x0013beb5       0xcb build/pic32mz_ef_sk/production/_ext/1282498061/port_asm.o
 .debug_info    0x0013bf80      0x181 build/pic32mz_ef_sk/production/_ext/373060831/croutine.o
 .debug_info    0x0013c101      0x47d build/pic32mz_ef_sk/production/_ext/373060831/list.o
 .debug_info    0x0013c57e     0x1926 build/pic32mz_ef_sk/production/_ext/373060831/queue.o
 .debug_info    0x0013dea4     0x291f build/pic32mz_ef_sk/production/_ext/373060831/tasks.o
 .debug_info    0x001407c3      0x17f build/pic32mz_ef_sk/production/_ext/373060831/timers.o
 .debug_info    0x00140942      0xd54 build/pic32mz_ef_sk/production/_ext/373060831/event_groups.o
 .debug_info    0x00141696     0x282e build/pic32mz_ef_sk/production/_ext/1360937237/websocket.o
 .debug_info    0x00143ec4     0x21d2 build/pic32mz_ef_sk/production/_ext/1360937237/websocket_thread.o
 .debug_info    0x00146096     0x5035 build/pic32mz_ef_sk/production/_ext/1164207549/icmp.o
 .debug_info    0x0014b0cb      0x775 c:/program files (x86)/microchip/xc32/v1.44/bin/bin/../../lib/gcc/pic32mx/4.8.3/fpu64\libgcc.a(_udivdi3.o)
 .debug_info    0x0014b840       0xf5 c:/program files (x86)/microchip/xc32/v1.44/bin/bin/../../lib/gcc/pic32mx/4.8.3/../../../../pic32mx/lib/fpu64\libpic32.a(default-bootstrap-exception-handler.o)
 .debug_info    0x0014b935       0xce c:/program files (x86)/microchip/xc32/v1.44/bin/bin/../../lib/gcc/pic32mx/4.8.3/../../../../pic32mx/lib/fpu64\libpic32.a(default-on-reset.o)
 .debug_info    0x0014ba03       0xd6 c:/program files (x86)/microchip/xc32/v1.44/bin/bin/../../lib/gcc/pic32mx/4.8.3/../../../../pic32mx/lib/fpu64\libpic32.a(default-on-bootstrap.o)
 .debug_info    0x0014bad9       0xe8 c:/program files (x86)/microchip/xc32/v1.44/bin/bin/../../lib/gcc/pic32mx/4.8.3/../../../../pic32mx/lib/fpu64\libpic32.a(defaultinterrupt.o)
 .debug_info    0x0014bbc1       0xf5 c:/program files (x86)/microchip/xc32/v1.44/bin/bin/../../lib/gcc/pic32mx/4.8.3/../../../../pic32mx/lib/fpu64\libpic32.a(default-cache-err-exception-handler.o)
 .debug_info    0x0014bcb6      0x105 c:/program files (x86)/microchip/xc32/v1.44/bin/bin/../../lib/gcc/pic32mx/4.8.3/../../../../pic32mx/lib/fpu64\libpic32.a(default-simple-tlb-refill-exception-handler.o)
 .debug_info    0x0014bdbb       0xc9 c:/program files (x86)/microchip/xc32/v1.44/bin/bin/../../lib/gcc/pic32mx/4.8.3/../../../../pic32mx/lib/fpu64\libc.a(fassert.o)
 .debug_info    0x0014be84       0xc2 c:/program files (x86)/microchip/xc32/v1.44/bin/bin/../../lib/gcc/pic32mx/4.8.3/../../../../pic32mx/lib/fpu64\libc.a(atoi.o)
 .debug_info    0x0014bf46       0xc2 c:/program files (x86)/microchip/xc32/v1.44/bin/bin/../../lib/gcc/pic32mx/4.8.3/../../../../pic32mx/lib/fpu64\libc.a(atol.o)
 .debug_info    0x0014c008       0xc6 c:/program files (x86)/microchip/xc32/v1.44/bin/bin/../../lib/gcc/pic32mx/4.8.3/../../../../pic32mx/lib/fpu64\libc.a(calloc.o)
 .debug_info    0x0014c0ce      0x23a c:/program files (x86)/microchip/xc32/v1.44/bin/bin/../../lib/gcc/pic32mx/4.8.3/../../../../pic32mx/lib/fpu64\libc.a(ctypef.o)
 .debug_info    0x0014c308       0xf7 c:/program files (x86)/microchip/xc32/v1.44/bin/bin/../../lib/gcc/pic32mx/4.8.3/../../../../pic32mx/lib/fpu64\libc.a(malloc.o)
 .debug_info    0x0014c3ff       0xcd c:/program files (x86)/microchip/xc32/v1.44/bin/bin/../../lib/gcc/pic32mx/4.8.3/../../../../pic32mx/lib/fpu64\libc.a(perror.o)
 .debug_info    0x0014c4cc       0xdd c:/program files (x86)/microchip/xc32/v1.44/bin/bin/../../lib/gcc/pic32mx/4.8.3/../../../../pic32mx/lib/fpu64\libc.a(rand.o)
 .debug_info    0x0014c5a9       0xf0 c:/program files (x86)/microchip/xc32/v1.44/bin/bin/../../lib/gcc/pic32mx/4.8.3/../../../../pic32mx/lib/fpu64\libc.a(signal.o)
 .debug_info    0x0014c699       0xc6 c:/program files (x86)/microchip/xc32/v1.44/bin/bin/../../lib/gcc/pic32mx/4.8.3/../../../../pic32mx/lib/fpu64\libc.a(strcat.o)
 .debug_info    0x0014c75f       0xc6 c:/program files (x86)/microchip/xc32/v1.44/bin/bin/../../lib/gcc/pic32mx/4.8.3/../../../../pic32mx/lib/fpu64\libc.a(strchr.o)
 .debug_info    0x0014c825       0xc8 c:/program files (x86)/microchip/xc32/v1.44/bin/bin/../../lib/gcc/pic32mx/4.8.3/../../../../pic32mx/lib/fpu64\libc.a(strncat.o)
 .debug_info    0x0014c8ed       0xc8 c:/program files (x86)/microchip/xc32/v1.44/bin/bin/../../lib/gcc/pic32mx/4.8.3/../../../../pic32mx/lib/fpu64\libc.a(strncmp.o)
 .debug_info    0x0014c9b5       0xc8 c:/program files (x86)/microchip/xc32/v1.44/bin/bin/../../lib/gcc/pic32mx/4.8.3/../../../../pic32mx/lib/fpu64\libc.a(strncpy.o)
 .debug_info    0x0014ca7d       0xc6 c:/program files (x86)/microchip/xc32/v1.44/bin/bin/../../lib/gcc/pic32mx/4.8.3/../../../../pic32mx/lib/fpu64\libc.a(strstr.o)
 .debug_info    0x0014cb43       0xdd c:/program files (x86)/microchip/xc32/v1.44/bin/bin/../../lib/gcc/pic32mx/4.8.3/../../../../pic32mx/lib/fpu64\libc.a(strtol.o)
 .debug_info    0x0014cc20       0xc9 c:/program files (x86)/microchip/xc32/v1.44/bin/bin/../../lib/gcc/pic32mx/4.8.3/../../../../pic32mx/lib/fpu64\libc.a(sys_err.o)
 .debug_info    0x0014cce9       0xc2 c:/program files (x86)/microchip/xc32/v1.44/bin/bin/../../lib/gcc/pic32mx/4.8.3/../../../../pic32mx/lib/fpu64\libc.a(exit.o)
 .debug_info    0x0014cdab       0xca c:/program files (x86)/microchip/xc32/v1.44/bin/bin/../../lib/gcc/pic32mx/4.8.3/../../../../pic32mx/lib/fpu64\libc.a(stdclean_simple.o)
 .debug_info    0x0014ce75       0xd3 c:/program files (x86)/microchip/xc32/v1.44/bin/bin/../../lib/gcc/pic32mx/4.8.3/../../../../pic32mx/lib/fpu64\libc.a(fprintf_cdnopsuxX.eo)
 .debug_info    0x0014cf48       0xd5 c:/program files (x86)/microchip/xc32/v1.44/bin/bin/../../lib/gcc/pic32mx/4.8.3/../../../../pic32mx/lib/fpu64\libc.a(snprintf_cdnopsuxX.eo)
 .debug_info    0x0014d01d       0xd3 c:/program files (x86)/microchip/xc32/v1.44/bin/bin/../../lib/gcc/pic32mx/4.8.3/../../../../pic32mx/lib/fpu64\libc.a(sprintf_cdnopsuxX.eo)
 .debug_info    0x0014d0f0       0xc9 c:/program files (x86)/microchip/xc32/v1.44/bin/bin/../../lib/gcc/pic32mx/4.8.3/../../../../pic32mx/lib/fpu64\libc.a(sscanf_s.eo)
 .debug_info    0x0014d1b9       0xd7 c:/program files (x86)/microchip/xc32/v1.44/bin/bin/../../lib/gcc/pic32mx/4.8.3/../../../../pic32mx/lib/fpu64\libc.a(vsnprintf_cdnopsuxX.eo)
 .debug_info    0x0014d290       0xcc c:/program files (x86)/microchip/xc32/v1.44/bin/bin/../../lib/gcc/pic32mx/4.8.3/../../../../pic32mx/lib/fpu64\libc.a(vsnprintf.o)
 .debug_info    0x0014d35c       0xc4 c:/program files (x86)/microchip/xc32/v1.44/bin/bin/../../lib/gcc/pic32mx/4.8.3/../../../../pic32mx/lib/fpu64\libc.a(_fputc_simple.o)
 .debug_info    0x0014d420       0xd4 c:/program files (x86)/microchip/xc32/v1.44/bin/bin/../../lib/gcc/pic32mx/4.8.3/../../../../pic32mx/lib/fpu64\libc.a(doprnt_cdnopsuxX.eo)
 .debug_info    0x0014d4f4      0x10a c:/program files (x86)/microchip/xc32/v1.44/bin/bin/../../lib/gcc/pic32mx/4.8.3/../../../../pic32mx/lib/fpu64\libc.a(doprnt.o)
 .debug_info    0x0014d5fe       0xf3 c:/program files (x86)/microchip/xc32/v1.44/bin/bin/../../lib/gcc/pic32mx/4.8.3/../../../../pic32mx/lib/fpu64\libc.a(doscan_s.eo)
 .debug_info    0x0014d6f1       0xc7 c:/program files (x86)/microchip/xc32/v1.44/bin/bin/../../lib/gcc/pic32mx/4.8.3/../../../../pic32mx/lib/fpu64\libc.a(_flsbuf_simple.o)
 .debug_info    0x0014d7b8       0xc4 c:/program files (x86)/microchip/xc32/v1.44/bin/bin/../../lib/gcc/pic32mx/4.8.3/../../../../pic32mx/lib/fpu64\libc.a(fgetc.o)
 .debug_info    0x0014d87c       0xc6 c:/program files (x86)/microchip/xc32/v1.44/bin/bin/../../lib/gcc/pic32mx/4.8.3/../../../../pic32mx/lib/fpu64\libc.a(ungetc.o)
 .debug_info    0x0014d942       0xc7 c:/program files (x86)/microchip/xc32/v1.44/bin/bin/../../lib/gcc/pic32mx/4.8.3/../../../../pic32mx/lib/fpu64\libc.a(filbuf.o)
 .debug_info    0x0014da09       0xc6 c:/program files (x86)/microchip/xc32/v1.44/bin/bin/../../lib/gcc/pic32mx/4.8.3/../../../../pic32mx/lib/fpu64\libc.a(fflush.o)
 .debug_info    0x0014dacf       0xc2 c:/program files (x86)/microchip/xc32/v1.44/bin/bin/../../lib/gcc/pic32mx/4.8.3/../../../../pic32mx/lib/fpu64\libmfd.a(s_frexp.o)
 .debug_info    0x0014db91      0x303 c:/program files (x86)/microchip/xc32/v1.44/bin/bin/../../lib/gcc/pic32mx/4.8.3/fpu64\libgcc.a(_cmpdi2.o)
 .debug_info    0x0014de94      0x7b2 c:/program files (x86)/microchip/xc32/v1.44/bin/bin/../../lib/gcc/pic32mx/4.8.3/fpu64\libgcc.a(_umoddi3.o)
 .debug_info    0x0014e646      0x132 c:/program files (x86)/microchip/xc32/v1.44/bin/bin/../../lib/gcc/pic32mx/4.8.3/../../../../pic32mx/lib/fpu64\libpic32.a(sbrk.o)
 .debug_info    0x0014e778       0xbe c:/program files (x86)/microchip/xc32/v1.44/bin/bin/../../lib/gcc/pic32mx/4.8.3/../../../../pic32mx/lib/fpu64\libpic32.a(read.o)
 .debug_info    0x0014e836       0xc0 c:/program files (x86)/microchip/xc32/v1.44/bin/bin/../../lib/gcc/pic32mx/4.8.3/../../../../pic32mx/lib/fpu64\libpic32.a(write.o)
 .debug_info    0x0014e8f6       0xc8 c:/program files (x86)/microchip/xc32/v1.44/bin/bin/../../lib/gcc/pic32mx/4.8.3/../../../../pic32mx/lib/fpu64\libpic32.a(_mon_putc.o)

.debug_abbrev   0x00000000    0x141c7
 *.elf(.debug_abbrev)
 *(.debug_abbrev)
 .debug_abbrev  0x00000000       0x1b build/pic32mz_ef_sk/production/_ext/29024758/misc.o
 .debug_abbrev  0x0000001b      0x268 build/pic32mz_ef_sk/production/_ext/354129722/bsp.o
 .debug_abbrev  0x00000283       0x1b build/pic32mz_ef_sk/production/_ext/854288108/net_pres_enc_glue.o
 .debug_abbrev  0x0000029e      0x299 build/pic32mz_ef_sk/production/_ext/571564127/sys_clk_pic32mz.o
 .debug_abbrev  0x00000537      0x2cf build/pic32mz_ef_sk/production/_ext/1868830280/sys_devcon.o
 .debug_abbrev  0x00000806      0x290 build/pic32mz_ef_sk/production/_ext/1868830280/sys_devcon_pic32mz.o
 .debug_abbrev  0x00000a96      0x2dd build/pic32mz_ef_sk/production/_ext/1009894383/sys_ports_static.o
 .debug_abbrev  0x00000d73      0x1d8 build/pic32mz_ef_sk/production/_ext/119080242/sys_reset.o
 .debug_abbrev  0x00000f4b      0x40c build/pic32mz_ef_sk/production/_ext/849053718/system_init.o
 .debug_abbrev  0x00001357      0x229 build/pic32mz_ef_sk/production/_ext/849053718/system_interrupt.o
 .debug_abbrev  0x00001580      0x150 build/pic32mz_ef_sk/production/_ext/849053718/system_exceptions.o
 .debug_abbrev  0x000016d0      0x1ce build/pic32mz_ef_sk/production/_ext/849053718/system_tasks.o
 .debug_abbrev  0x0000189e       0x12 build/pic32mz_ef_sk/production/_ext/849053718/system_interrupt_a.o
 .debug_abbrev  0x000018b0       0x97 build/pic32mz_ef_sk/production/_ext/849053718/rtos_hooks.o
 .debug_abbrev  0x00001947      0x209 build/pic32mz_ef_sk/production/_ext/1360937237/app.o
 .debug_abbrev  0x00001b50       0x93 build/pic32mz_ef_sk/production/_ext/1360937237/main.o
 .debug_abbrev  0x00001be3      0x217 build/pic32mz_ef_sk/production/_ext/1360937237/streamer.o
 .debug_abbrev  0x00001dfa      0x1fb build/pic32mz_ef_sk/production/_ext/1360937237/ws_server.o
 .debug_abbrev  0x00001ff5      0x10e build/pic32mz_ef_sk/production/_ext/1360937237/http_print.o
 .debug_abbrev  0x00002103      0x42d build/pic32mz_ef_sk/production/_ext/1360937237/custom_http_app.o
 .debug_abbrev  0x00002530       0x8a build/pic32mz_ef_sk/production/_ext/1360937237/mpfs_img2.o
 .debug_abbrev  0x000025ba       0xd2 build/pic32mz_ef_sk/production/_ext/2046866571/adler32.o
 .debug_abbrev  0x0000268c      0x162 build/pic32mz_ef_sk/production/_ext/2046866571/compress.o
 .debug_abbrev  0x000027ee      0x1b6 build/pic32mz_ef_sk/production/_ext/2046866571/crc32.o
 .debug_abbrev  0x000029a4      0x3b8 build/pic32mz_ef_sk/production/_ext/2046866571/deflate.o
 .debug_abbrev  0x00002d5c      0x289 build/pic32mz_ef_sk/production/_ext/2046866571/infback.o
 .debug_abbrev  0x00002fe5      0x13b build/pic32mz_ef_sk/production/_ext/2046866571/inffast.o
 .debug_abbrev  0x00003120      0x346 build/pic32mz_ef_sk/production/_ext/2046866571/inflate.o
 .debug_abbrev  0x00003466       0xeb build/pic32mz_ef_sk/production/_ext/2046866571/inftrees.o
 .debug_abbrev  0x00003551      0x2e6 build/pic32mz_ef_sk/production/_ext/2046866571/trees.o
 .debug_abbrev  0x00003837      0x13e build/pic32mz_ef_sk/production/_ext/2046866571/uncompr.o
 .debug_abbrev  0x00003975      0x152 build/pic32mz_ef_sk/production/_ext/2046866571/zutil.o
 .debug_abbrev  0x00003ac7       0x1b build/pic32mz_ef_sk/production/_ext/29024758/ecc.o
 .debug_abbrev  0x00003ae2      0x152 build/pic32mz_ef_sk/production/_ext/29024758/arc4.o
 .debug_abbrev  0x00003c34      0x36b build/pic32mz_ef_sk/production/_ext/29024758/tfm.o
 .debug_abbrev  0x00003f9f      0x27e build/pic32mz_ef_sk/production/_ext/29024758/des3.o
 .debug_abbrev  0x0000421d       0x1b build/pic32mz_ef_sk/production/_ext/29024758/rsa.o
 .debug_abbrev  0x00004238       0x1b build/pic32mz_ef_sk/production/_ext/29024758/aes.o
 .debug_abbrev  0x00004253      0x24b build/pic32mz_ef_sk/production/_ext/29024758/md5.o
 .debug_abbrev  0x0000449e      0x27c build/pic32mz_ef_sk/production/_ext/29024758/sha.o
 .debug_abbrev  0x0000471a      0x2a4 build/pic32mz_ef_sk/production/_ext/29024758/sha256.o
 .debug_abbrev  0x000049be      0x27f build/pic32mz_ef_sk/production/_ext/29024758/hmac.o
 .debug_abbrev  0x00004c3d      0x1d1 build/pic32mz_ef_sk/production/_ext/29024758/hash.o
 .debug_abbrev  0x00004e0e      0x20e build/pic32mz_ef_sk/production/_ext/29024758/crypto.o
 .debug_abbrev  0x0000501c      0x1cb build/pic32mz_ef_sk/production/_ext/29024758/coding.o
 .debug_abbrev  0x000051e7       0xf3 build/pic32mz_ef_sk/production/_ext/29024758/error.o
 .debug_abbrev  0x000052da       0x1b build/pic32mz_ef_sk/production/_ext/29024758/integer.o
 .debug_abbrev  0x000052f5       0xc1 build/pic32mz_ef_sk/production/_ext/29024758/logging.o
 .debug_abbrev  0x000053b6      0x13e build/pic32mz_ef_sk/production/_ext/29024758/memory.o
 .debug_abbrev  0x000054f4      0x13d build/pic32mz_ef_sk/production/_ext/29024758/wc_port.o
 .debug_abbrev  0x00005631      0x13d build/pic32mz_ef_sk/production/_ext/29024758/wolfmath.o
 .debug_abbrev  0x0000576e      0x60f build/pic32mz_ef_sk/production/_ext/1697634946/drv_ethmac.o
 .debug_abbrev  0x00005d7d      0x575 build/pic32mz_ef_sk/production/_ext/1697634946/drv_ethmac_lib.o
 .debug_abbrev  0x000062f2      0x4a6 build/pic32mz_ef_sk/production/_ext/521481140/drv_ethphy.o
 .debug_abbrev  0x00006798      0x1fd build/pic32mz_ef_sk/production/_ext/521481140/drv_extphy_smsc8740.o
 .debug_abbrev  0x00006995      0x5fa build/pic32mz_ef_sk/production/_ext/1470245908/drv_miim.o
 .debug_abbrev  0x00006f8f      0x42f build/pic32mz_ef_sk/production/_ext/184581597/drv_nvm.o
 .debug_abbrev  0x000073be      0x28d build/pic32mz_ef_sk/production/_ext/184581597/drv_nvm_erasewrite.o
 .debug_abbrev  0x0000764b      0x4b5 build/pic32mz_ef_sk/production/_ext/941160041/drv_tmr.o
 .debug_abbrev  0x00007b00      0x49e build/pic32mz_ef_sk/production/_ext/821589181/drv_usart.o
 .debug_abbrev  0x00007f9e      0x3f2 build/pic32mz_ef_sk/production/_ext/821589181/drv_usart_buffer_queue.o
 .debug_abbrev  0x00008390      0x3be build/pic32mz_ef_sk/production/_ext/821589181/drv_usart_read_write.o
 .debug_abbrev  0x0000874e      0x3c3 build/pic32mz_ef_sk/production/_ext/871719959/net_pres.o
 .debug_abbrev  0x00008b11      0x1fe build/pic32mz_ef_sk/production/_ext/308321468/osal_freertos.o
 .debug_abbrev  0x00008d0f      0x464 build/pic32mz_ef_sk/production/_ext/1891376032/sys_command.o
 .debug_abbrev  0x00009173      0x124 build/pic32mz_ef_sk/production/_ext/598853952/sys_buffer.o
 .debug_abbrev  0x00009297      0x102 build/pic32mz_ef_sk/production/_ext/598853952/sys_queue.o
 .debug_abbrev  0x00009399      0x23e build/pic32mz_ef_sk/production/_ext/1434663852/sys_console.o
 .debug_abbrev  0x000095d7      0x32b build/pic32mz_ef_sk/production/_ext/1434663852/sys_console_uart.o
 .debug_abbrev  0x00009902      0x284 build/pic32mz_ef_sk/production/_ext/2137108136/sys_debug.o
 .debug_abbrev  0x00009b86      0x3df build/pic32mz_ef_sk/production/_ext/1750042194/sys_fs.o
 .debug_abbrev  0x00009f65      0x453 build/pic32mz_ef_sk/production/_ext/1750042194/sys_fs_media_manager.o
 .debug_abbrev  0x0000a3b8      0x2e4 build/pic32mz_ef_sk/production/_ext/614935175/mpfs.o
 .debug_abbrev  0x0000a69c      0x223 build/pic32mz_ef_sk/production/_ext/1042686532/sys_int_pic32.o
 .debug_abbrev  0x0000a8bf      0x1de build/pic32mz_ef_sk/production/_ext/470001640/sys_random.o
 .debug_abbrev  0x0000aa9d      0x4ce build/pic32mz_ef_sk/production/_ext/2110151058/sys_tmr.o
 .debug_abbrev  0x0000af6b      0x1ed build/pic32mz_ef_sk/production/_ext/1886247299/sys_fs_wrapper.o
 .debug_abbrev  0x0000b158      0x12e build/pic32mz_ef_sk/production/_ext/1886247299/helpers.o
 .debug_abbrev  0x0000b286      0x52d build/pic32mz_ef_sk/production/_ext/1164207549/ipv4.o
 .debug_abbrev  0x0000b7b3      0x51d build/pic32mz_ef_sk/production/_ext/1164207549/ndp.o
 .debug_abbrev  0x0000bcd0      0x5db build/pic32mz_ef_sk/production/_ext/1164207549/ipv6.o
 .debug_abbrev  0x0000c2ab      0x4e0 build/pic32mz_ef_sk/production/_ext/1164207549/icmpv6.o
 .debug_abbrev  0x0000c78b      0x592 build/pic32mz_ef_sk/production/_ext/1164207549/tcp.o
 .debug_abbrev  0x0000cd1d      0x62e build/pic32mz_ef_sk/production/_ext/1164207549/udp.o
 .debug_abbrev  0x0000d34b      0x1cc build/pic32mz_ef_sk/production/_ext/1164207549/tcpip_heap_alloc.o
 .debug_abbrev  0x0000d517      0x341 build/pic32mz_ef_sk/production/_ext/1164207549/tcpip_heap_internal.o
 .debug_abbrev  0x0000d858      0x50d build/pic32mz_ef_sk/production/_ext/1164207549/arp.o
 .debug_abbrev  0x0000dd65      0x56c build/pic32mz_ef_sk/production/_ext/1164207549/dhcp.o
 .debug_abbrev  0x0000e2d1      0x5d0 build/pic32mz_ef_sk/production/_ext/1164207549/dns.o
 .debug_abbrev  0x0000e8a1      0x516 build/pic32mz_ef_sk/production/_ext/1164207549/http.o
 .debug_abbrev  0x0000edb7      0x416 build/pic32mz_ef_sk/production/_ext/1164207549/nbns.o
 .debug_abbrev  0x0000f1cd      0x496 build/pic32mz_ef_sk/production/_ext/1164207549/smtp.o
 .debug_abbrev  0x0000f663      0x422 build/pic32mz_ef_sk/production/_ext/1164207549/sntp.o
 .debug_abbrev  0x0000fa85      0x116 build/pic32mz_ef_sk/production/_ext/1164207549/zero_conf_helper.o
 .debug_abbrev  0x0000fb9b      0x4b5 build/pic32mz_ef_sk/production/_ext/1164207549/zero_conf_link_local.o
 .debug_abbrev  0x00010050      0x43f build/pic32mz_ef_sk/production/_ext/1164207549/tcpip_announce.o
 .debug_abbrev  0x0001048f      0x4e3 build/pic32mz_ef_sk/production/_ext/1164207549/tcpip_commands.o
 .debug_abbrev  0x00010972       0xb5 build/pic32mz_ef_sk/production/_ext/1164207549/hash_fnv.o
 .debug_abbrev  0x00010a27      0x277 build/pic32mz_ef_sk/production/_ext/1164207549/oahash.o
 .debug_abbrev  0x00010c9e      0x424 build/pic32mz_ef_sk/production/_ext/1164207549/tcpip_helpers.o
 .debug_abbrev  0x000110c2       0x14 build/pic32mz_ef_sk/production/_ext/1164207549/tcpip_helper_c32.o
 .debug_abbrev  0x000110d6      0x605 build/pic32mz_ef_sk/production/_ext/1164207549/tcpip_manager.o
 .debug_abbrev  0x000116db      0x234 build/pic32mz_ef_sk/production/_ext/1164207549/tcpip_notify.o
 .debug_abbrev  0x0001190f      0x3d9 build/pic32mz_ef_sk/production/_ext/1164207549/tcpip_packet.o
 .debug_abbrev  0x00011ce8      0x13f build/pic32mz_ef_sk/production/_ext/1107379230/heap_1.o
 .debug_abbrev  0x00011e27      0x261 build/pic32mz_ef_sk/production/_ext/1282498061/port.o
 .debug_abbrev  0x00012088       0x12 build/pic32mz_ef_sk/production/_ext/1282498061/port_asm.o
 .debug_abbrev  0x0001209a       0x1b build/pic32mz_ef_sk/production/_ext/373060831/croutine.o
 .debug_abbrev  0x000120b5       0xf1 build/pic32mz_ef_sk/production/_ext/373060831/list.o
 .debug_abbrev  0x000121a6      0x2f4 build/pic32mz_ef_sk/production/_ext/373060831/queue.o
 .debug_abbrev  0x0001249a      0x381 build/pic32mz_ef_sk/production/_ext/373060831/tasks.o
 .debug_abbrev  0x0001281b       0x1b build/pic32mz_ef_sk/production/_ext/373060831/timers.o
 .debug_abbrev  0x00012836      0x29a build/pic32mz_ef_sk/production/_ext/373060831/event_groups.o
 .debug_abbrev  0x00012ad0      0x3d6 build/pic32mz_ef_sk/production/_ext/1360937237/websocket.o
 .debug_abbrev  0x00012ea6      0x2f1 build/pic32mz_ef_sk/production/_ext/1360937237/websocket_thread.o
 .debug_abbrev  0x00013197      0x51f build/pic32mz_ef_sk/production/_ext/1164207549/icmp.o
 .debug_abbrev  0x000136b6      0x138 c:/program files (x86)/microchip/xc32/v1.44/bin/bin/../../lib/gcc/pic32mx/4.8.3/fpu64\libgcc.a(_udivdi3.o)
 .debug_abbrev  0x000137ee       0x28 c:/program files (x86)/microchip/xc32/v1.44/bin/bin/../../lib/gcc/pic32mx/4.8.3/../../../../pic32mx/lib/fpu64\libpic32.a(default-bootstrap-exception-handler.o)
 .debug_abbrev  0x00013816       0x28 c:/program files (x86)/microchip/xc32/v1.44/bin/bin/../../lib/gcc/pic32mx/4.8.3/../../../../pic32mx/lib/fpu64\libpic32.a(default-on-reset.o)
 .debug_abbrev  0x0001383e       0x28 c:/program files (x86)/microchip/xc32/v1.44/bin/bin/../../lib/gcc/pic32mx/4.8.3/../../../../pic32mx/lib/fpu64\libpic32.a(default-on-bootstrap.o)
 .debug_abbrev  0x00013866       0x28 c:/program files (x86)/microchip/xc32/v1.44/bin/bin/../../lib/gcc/pic32mx/4.8.3/../../../../pic32mx/lib/fpu64\libpic32.a(defaultinterrupt.o)
 .debug_abbrev  0x0001388e       0x28 c:/program files (x86)/microchip/xc32/v1.44/bin/bin/../../lib/gcc/pic32mx/4.8.3/../../../../pic32mx/lib/fpu64\libpic32.a(default-cache-err-exception-handler.o)
 .debug_abbrev  0x000138b6       0x28 c:/program files (x86)/microchip/xc32/v1.44/bin/bin/../../lib/gcc/pic32mx/4.8.3/../../../../pic32mx/lib/fpu64\libpic32.a(default-simple-tlb-refill-exception-handler.o)
 .debug_abbrev  0x000138de       0x28 c:/program files (x86)/microchip/xc32/v1.44/bin/bin/../../lib/gcc/pic32mx/4.8.3/../../../../pic32mx/lib/fpu64\libc.a(fassert.o)
 .debug_abbrev  0x00013906       0x28 c:/program files (x86)/microchip/xc32/v1.44/bin/bin/../../lib/gcc/pic32mx/4.8.3/../../../../pic32mx/lib/fpu64\libc.a(atoi.o)
 .debug_abbrev  0x0001392e       0x28 c:/program files (x86)/microchip/xc32/v1.44/bin/bin/../../lib/gcc/pic32mx/4.8.3/../../../../pic32mx/lib/fpu64\libc.a(atol.o)
 .debug_abbrev  0x00013956       0x28 c:/program files (x86)/microchip/xc32/v1.44/bin/bin/../../lib/gcc/pic32mx/4.8.3/../../../../pic32mx/lib/fpu64\libc.a(calloc.o)
 .debug_abbrev  0x0001397e       0x28 c:/program files (x86)/microchip/xc32/v1.44/bin/bin/../../lib/gcc/pic32mx/4.8.3/../../../../pic32mx/lib/fpu64\libc.a(ctypef.o)
 .debug_abbrev  0x000139a6       0x47 c:/program files (x86)/microchip/xc32/v1.44/bin/bin/../../lib/gcc/pic32mx/4.8.3/../../../../pic32mx/lib/fpu64\libc.a(malloc.o)
 .debug_abbrev  0x000139ed       0x35 c:/program files (x86)/microchip/xc32/v1.44/bin/bin/../../lib/gcc/pic32mx/4.8.3/../../../../pic32mx/lib/fpu64\libc.a(perror.o)
 .debug_abbrev  0x00013a22       0x47 c:/program files (x86)/microchip/xc32/v1.44/bin/bin/../../lib/gcc/pic32mx/4.8.3/../../../../pic32mx/lib/fpu64\libc.a(rand.o)
 .debug_abbrev  0x00013a69       0x3e c:/program files (x86)/microchip/xc32/v1.44/bin/bin/../../lib/gcc/pic32mx/4.8.3/../../../../pic32mx/lib/fpu64\libc.a(signal.o)
 .debug_abbrev  0x00013aa7       0x28 c:/program files (x86)/microchip/xc32/v1.44/bin/bin/../../lib/gcc/pic32mx/4.8.3/../../../../pic32mx/lib/fpu64\libc.a(strcat.o)
 .debug_abbrev  0x00013acf       0x28 c:/program files (x86)/microchip/xc32/v1.44/bin/bin/../../lib/gcc/pic32mx/4.8.3/../../../../pic32mx/lib/fpu64\libc.a(strchr.o)
 .debug_abbrev  0x00013af7       0x28 c:/program files (x86)/microchip/xc32/v1.44/bin/bin/../../lib/gcc/pic32mx/4.8.3/../../../../pic32mx/lib/fpu64\libc.a(strncat.o)
 .debug_abbrev  0x00013b1f       0x28 c:/program files (x86)/microchip/xc32/v1.44/bin/bin/../../lib/gcc/pic32mx/4.8.3/../../../../pic32mx/lib/fpu64\libc.a(strncmp.o)
 .debug_abbrev  0x00013b47       0x28 c:/program files (x86)/microchip/xc32/v1.44/bin/bin/../../lib/gcc/pic32mx/4.8.3/../../../../pic32mx/lib/fpu64\libc.a(strncpy.o)
 .debug_abbrev  0x00013b6f       0x28 c:/program files (x86)/microchip/xc32/v1.44/bin/bin/../../lib/gcc/pic32mx/4.8.3/../../../../pic32mx/lib/fpu64\libc.a(strstr.o)
 .debug_abbrev  0x00013b97       0x28 c:/program files (x86)/microchip/xc32/v1.44/bin/bin/../../lib/gcc/pic32mx/4.8.3/../../../../pic32mx/lib/fpu64\libc.a(strtol.o)
 .debug_abbrev  0x00013bbf       0x28 c:/program files (x86)/microchip/xc32/v1.44/bin/bin/../../lib/gcc/pic32mx/4.8.3/../../../../pic32mx/lib/fpu64\libc.a(sys_err.o)
 .debug_abbrev  0x00013be7       0x28 c:/program files (x86)/microchip/xc32/v1.44/bin/bin/../../lib/gcc/pic32mx/4.8.3/../../../../pic32mx/lib/fpu64\libc.a(exit.o)
 .debug_abbrev  0x00013c0f       0x28 c:/program files (x86)/microchip/xc32/v1.44/bin/bin/../../lib/gcc/pic32mx/4.8.3/../../../../pic32mx/lib/fpu64\libc.a(stdclean_simple.o)
 .debug_abbrev  0x00013c37       0x28 c:/program files (x86)/microchip/xc32/v1.44/bin/bin/../../lib/gcc/pic32mx/4.8.3/../../../../pic32mx/lib/fpu64\libc.a(fprintf_cdnopsuxX.eo)
 .debug_abbrev  0x00013c5f       0x28 c:/program files (x86)/microchip/xc32/v1.44/bin/bin/../../lib/gcc/pic32mx/4.8.3/../../../../pic32mx/lib/fpu64\libc.a(snprintf_cdnopsuxX.eo)
 .debug_abbrev  0x00013c87       0x28 c:/program files (x86)/microchip/xc32/v1.44/bin/bin/../../lib/gcc/pic32mx/4.8.3/../../../../pic32mx/lib/fpu64\libc.a(sprintf_cdnopsuxX.eo)
 .debug_abbrev  0x00013caf       0x28 c:/program files (x86)/microchip/xc32/v1.44/bin/bin/../../lib/gcc/pic32mx/4.8.3/../../../../pic32mx/lib/fpu64\libc.a(sscanf_s.eo)
 .debug_abbrev  0x00013cd7       0x28 c:/program files (x86)/microchip/xc32/v1.44/bin/bin/../../lib/gcc/pic32mx/4.8.3/../../../../pic32mx/lib/fpu64\libc.a(vsnprintf_cdnopsuxX.eo)
 .debug_abbrev  0x00013cff       0x28 c:/program files (x86)/microchip/xc32/v1.44/bin/bin/../../lib/gcc/pic32mx/4.8.3/../../../../pic32mx/lib/fpu64\libc.a(vsnprintf.o)
 .debug_abbrev  0x00013d27       0x28 c:/program files (x86)/microchip/xc32/v1.44/bin/bin/../../lib/gcc/pic32mx/4.8.3/../../../../pic32mx/lib/fpu64\libc.a(_fputc_simple.o)
 .debug_abbrev  0x00013d4f       0x28 c:/program files (x86)/microchip/xc32/v1.44/bin/bin/../../lib/gcc/pic32mx/4.8.3/../../../../pic32mx/lib/fpu64\libc.a(doprnt_cdnopsuxX.eo)
 .debug_abbrev  0x00013d77       0x52 c:/program files (x86)/microchip/xc32/v1.44/bin/bin/../../lib/gcc/pic32mx/4.8.3/../../../../pic32mx/lib/fpu64\libc.a(doprnt.o)
 .debug_abbrev  0x00013dc9       0x3c c:/program files (x86)/microchip/xc32/v1.44/bin/bin/../../lib/gcc/pic32mx/4.8.3/../../../../pic32mx/lib/fpu64\libc.a(doscan_s.eo)
 .debug_abbrev  0x00013e05       0x28 c:/program files (x86)/microchip/xc32/v1.44/bin/bin/../../lib/gcc/pic32mx/4.8.3/../../../../pic32mx/lib/fpu64\libc.a(_flsbuf_simple.o)
 .debug_abbrev  0x00013e2d       0x28 c:/program files (x86)/microchip/xc32/v1.44/bin/bin/../../lib/gcc/pic32mx/4.8.3/../../../../pic32mx/lib/fpu64\libc.a(fgetc.o)
 .debug_abbrev  0x00013e55       0x28 c:/program files (x86)/microchip/xc32/v1.44/bin/bin/../../lib/gcc/pic32mx/4.8.3/../../../../pic32mx/lib/fpu64\libc.a(ungetc.o)
 .debug_abbrev  0x00013e7d       0x28 c:/program files (x86)/microchip/xc32/v1.44/bin/bin/../../lib/gcc/pic32mx/4.8.3/../../../../pic32mx/lib/fpu64\libc.a(filbuf.o)
 .debug_abbrev  0x00013ea5       0x28 c:/program files (x86)/microchip/xc32/v1.44/bin/bin/../../lib/gcc/pic32mx/4.8.3/../../../../pic32mx/lib/fpu64\libc.a(fflush.o)
 .debug_abbrev  0x00013ecd       0x28 c:/program files (x86)/microchip/xc32/v1.44/bin/bin/../../lib/gcc/pic32mx/4.8.3/../../../../pic32mx/lib/fpu64\libmfd.a(s_frexp.o)
 .debug_abbrev  0x00013ef5       0xbf c:/program files (x86)/microchip/xc32/v1.44/bin/bin/../../lib/gcc/pic32mx/4.8.3/fpu64\libgcc.a(_cmpdi2.o)
 .debug_abbrev  0x00013fb4      0x147 c:/program files (x86)/microchip/xc32/v1.44/bin/bin/../../lib/gcc/pic32mx/4.8.3/fpu64\libgcc.a(_umoddi3.o)
 .debug_abbrev  0x000140fb       0x54 c:/program files (x86)/microchip/xc32/v1.44/bin/bin/../../lib/gcc/pic32mx/4.8.3/../../../../pic32mx/lib/fpu64\libpic32.a(sbrk.o)
 .debug_abbrev  0x0001414f       0x28 c:/program files (x86)/microchip/xc32/v1.44/bin/bin/../../lib/gcc/pic32mx/4.8.3/../../../../pic32mx/lib/fpu64\libpic32.a(read.o)
 .debug_abbrev  0x00014177       0x28 c:/program files (x86)/microchip/xc32/v1.44/bin/bin/../../lib/gcc/pic32mx/4.8.3/../../../../pic32mx/lib/fpu64\libpic32.a(write.o)
 .debug_abbrev  0x0001419f       0x28 c:/program files (x86)/microchip/xc32/v1.44/bin/bin/../../lib/gcc/pic32mx/4.8.3/../../../../pic32mx/lib/fpu64\libpic32.a(_mon_putc.o)

.debug_line     0x00000000    0x2712b
 *.elf(.debug_line)
 *(.debug_line)
 .debug_line    0x00000000       0x1d build/pic32mz_ef_sk/production/_ext/29024758/misc.o
 .debug_line    0x0000001d      0x384 build/pic32mz_ef_sk/production/_ext/354129722/bsp.o
 .debug_line    0x000003a1       0x1d build/pic32mz_ef_sk/production/_ext/854288108/net_pres_enc_glue.o
 .debug_line    0x000003be      0x57f build/pic32mz_ef_sk/production/_ext/571564127/sys_clk_pic32mz.o
 .debug_line    0x0000093d      0x687 build/pic32mz_ef_sk/production/_ext/1868830280/sys_devcon.o
 .debug_line    0x00000fc4      0x5d2 build/pic32mz_ef_sk/production/_ext/1868830280/sys_devcon_pic32mz.o
 .debug_line    0x00001596      0xa1e build/pic32mz_ef_sk/production/_ext/1009894383/sys_ports_static.o
 .debug_line    0x00001fb4      0x372 build/pic32mz_ef_sk/production/_ext/119080242/sys_reset.o
 .debug_line    0x00002326      0xd38 build/pic32mz_ef_sk/production/_ext/849053718/system_init.o
 .debug_line    0x0000305e      0x41e build/pic32mz_ef_sk/production/_ext/849053718/system_interrupt.o
 .debug_line    0x0000347c      0x1d2 build/pic32mz_ef_sk/production/_ext/849053718/system_exceptions.o
 .debug_line    0x0000364e      0x500 build/pic32mz_ef_sk/production/_ext/849053718/system_tasks.o
 .debug_line    0x00003b4e      0x1f8 build/pic32mz_ef_sk/production/_ext/849053718/system_interrupt_a.o
 .debug_line    0x00003d46      0x14e build/pic32mz_ef_sk/production/_ext/849053718/rtos_hooks.o
 .debug_line    0x00003e94      0x3ad build/pic32mz_ef_sk/production/_ext/1360937237/app.o
 .debug_line    0x00004241       0xbd build/pic32mz_ef_sk/production/_ext/1360937237/main.o
 .debug_line    0x000042fe      0x419 build/pic32mz_ef_sk/production/_ext/1360937237/streamer.o
 .debug_line    0x00004717      0x24a build/pic32mz_ef_sk/production/_ext/1360937237/ws_server.o
 .debug_line    0x00004961      0x18e build/pic32mz_ef_sk/production/_ext/1360937237/http_print.o
 .debug_line    0x00004aef      0x92f build/pic32mz_ef_sk/production/_ext/1360937237/custom_http_app.o
 .debug_line    0x0000541e       0xc0 build/pic32mz_ef_sk/production/_ext/1360937237/mpfs_img2.o
 .debug_line    0x000054de      0x119 build/pic32mz_ef_sk/production/_ext/2046866571/adler32.o
 .debug_line    0x000055f7       0xc2 build/pic32mz_ef_sk/production/_ext/2046866571/compress.o
 .debug_line    0x000056b9      0x182 build/pic32mz_ef_sk/production/_ext/2046866571/crc32.o
 .debug_line    0x0000583b      0x65e build/pic32mz_ef_sk/production/_ext/2046866571/deflate.o
 .debug_line    0x00005e99      0x2b7 build/pic32mz_ef_sk/production/_ext/2046866571/infback.o
 .debug_line    0x00006150      0x17d build/pic32mz_ef_sk/production/_ext/2046866571/inffast.o
 .debug_line    0x000062cd      0x64d build/pic32mz_ef_sk/production/_ext/2046866571/inflate.o
 .debug_line    0x0000691a      0x135 build/pic32mz_ef_sk/production/_ext/2046866571/inftrees.o
 .debug_line    0x00006a4f      0x3a8 build/pic32mz_ef_sk/production/_ext/2046866571/trees.o
 .debug_line    0x00006df7       0xa0 build/pic32mz_ef_sk/production/_ext/2046866571/uncompr.o
 .debug_line    0x00006e97      0x11b build/pic32mz_ef_sk/production/_ext/2046866571/zutil.o
 .debug_line    0x00006fb2       0x1d build/pic32mz_ef_sk/production/_ext/29024758/ecc.o
 .debug_line    0x00006fcf       0xf4 build/pic32mz_ef_sk/production/_ext/29024758/arc4.o
 .debug_line    0x000070c3        0x0 build/pic32mz_ef_sk/production/_ext/29024758/pwdbased.o
 .debug_line    0x000070c3      0xb17 build/pic32mz_ef_sk/production/_ext/29024758/tfm.o
 .debug_line    0x00007bda        0x0 build/pic32mz_ef_sk/production/_ext/29024758/asn.o
 .debug_line    0x00007bda      0x476 build/pic32mz_ef_sk/production/_ext/29024758/des3.o
 .debug_line    0x00008050       0x1d build/pic32mz_ef_sk/production/_ext/29024758/rsa.o
 .debug_line    0x0000806d       0x1d build/pic32mz_ef_sk/production/_ext/29024758/aes.o
 .debug_line    0x0000808a      0x528 build/pic32mz_ef_sk/production/_ext/29024758/md5.o
 .debug_line    0x000085b2      0xce4 build/pic32mz_ef_sk/production/_ext/29024758/sha.o
 .debug_line    0x00009296      0x3ff build/pic32mz_ef_sk/production/_ext/29024758/sha256.o
 .debug_line    0x00009695        0x0 build/pic32mz_ef_sk/production/_ext/29024758/sha512.o
 .debug_line    0x00009695      0x201 build/pic32mz_ef_sk/production/_ext/29024758/hmac.o
 .debug_line    0x00009896      0x1bc build/pic32mz_ef_sk/production/_ext/29024758/hash.o
 .debug_line    0x00009a52        0x0 build/pic32mz_ef_sk/production/_ext/29024758/compress.o
 .debug_line    0x00009a52      0x2db build/pic32mz_ef_sk/production/_ext/29024758/crypto.o
 .debug_line    0x00009d2d      0x1ed build/pic32mz_ef_sk/production/_ext/29024758/coding.o
 .debug_line    0x00009f1a      0x176 build/pic32mz_ef_sk/production/_ext/29024758/error.o
 .debug_line    0x0000a090       0x1d build/pic32mz_ef_sk/production/_ext/29024758/integer.o
 .debug_line    0x0000a0ad       0xac build/pic32mz_ef_sk/production/_ext/29024758/logging.o
 .debug_line    0x0000a159      0x131 build/pic32mz_ef_sk/production/_ext/29024758/memory.o
 .debug_line    0x0000a28a      0x148 build/pic32mz_ef_sk/production/_ext/29024758/wc_port.o
 .debug_line    0x0000a3d2       0xc2 build/pic32mz_ef_sk/production/_ext/29024758/wolfmath.o
 .debug_line    0x0000a494     0x105b build/pic32mz_ef_sk/production/_ext/1697634946/drv_ethmac.o
 .debug_line    0x0000b4ef      0xc7b build/pic32mz_ef_sk/production/_ext/1697634946/drv_ethmac_lib.o
 .debug_line    0x0000c16a      0xdea build/pic32mz_ef_sk/production/_ext/521481140/drv_ethphy.o
 .debug_line    0x0000cf54      0x27c build/pic32mz_ef_sk/production/_ext/521481140/drv_extphy_smsc8740.o
 .debug_line    0x0000d1d0      0xa39 build/pic32mz_ef_sk/production/_ext/1470245908/drv_miim.o
 .debug_line    0x0000dc09      0x91d build/pic32mz_ef_sk/production/_ext/184581597/drv_nvm.o
 .debug_line    0x0000e526      0x41f build/pic32mz_ef_sk/production/_ext/184581597/drv_nvm_erasewrite.o
 .debug_line    0x0000e945      0xc5f build/pic32mz_ef_sk/production/_ext/941160041/drv_tmr.o
 .debug_line    0x0000f5a4      0xdfa build/pic32mz_ef_sk/production/_ext/821589181/drv_usart.o
 .debug_line    0x0001039e      0x81b build/pic32mz_ef_sk/production/_ext/821589181/drv_usart_buffer_queue.o
 .debug_line    0x00010bb9      0x726 build/pic32mz_ef_sk/production/_ext/821589181/drv_usart_read_write.o
 .debug_line    0x000112df      0x789 build/pic32mz_ef_sk/production/_ext/871719959/net_pres.o
 .debug_line    0x00011a68      0x2e4 build/pic32mz_ef_sk/production/_ext/308321468/osal_freertos.o
 .debug_line    0x00011d4c      0x7ce build/pic32mz_ef_sk/production/_ext/1891376032/sys_command.o
 .debug_line    0x0001251a      0x1cc build/pic32mz_ef_sk/production/_ext/598853952/sys_buffer.o
 .debug_line    0x000126e6      0x15e build/pic32mz_ef_sk/production/_ext/598853952/sys_queue.o
 .debug_line    0x00012844      0x314 build/pic32mz_ef_sk/production/_ext/1434663852/sys_console.o
 .debug_line    0x00012b58      0x489 build/pic32mz_ef_sk/production/_ext/1434663852/sys_console_uart.o
 .debug_line    0x00012fe1      0x302 build/pic32mz_ef_sk/production/_ext/2137108136/sys_debug.o
 .debug_line    0x000132e3      0x9f7 build/pic32mz_ef_sk/production/_ext/1750042194/sys_fs.o
 .debug_line    0x00013cda      0x5ec build/pic32mz_ef_sk/production/_ext/1750042194/sys_fs_media_manager.o
 .debug_line    0x000142c6      0x3ec build/pic32mz_ef_sk/production/_ext/614935175/mpfs.o
 .debug_line    0x000146b2      0x2d5 build/pic32mz_ef_sk/production/_ext/1042686532/sys_int_pic32.o
 .debug_line    0x00014987      0x22f build/pic32mz_ef_sk/production/_ext/470001640/sys_random.o
 .debug_line    0x00014bb6      0x650 build/pic32mz_ef_sk/production/_ext/2110151058/sys_tmr.o
 .debug_line    0x00015206      0x20c build/pic32mz_ef_sk/production/_ext/1886247299/sys_fs_wrapper.o
 .debug_line    0x00015412      0x1a1 build/pic32mz_ef_sk/production/_ext/1886247299/helpers.o
 .debug_line    0x000155b3      0x8d3 build/pic32mz_ef_sk/production/_ext/1164207549/ipv4.o
 .debug_line    0x00015e86      0x956 build/pic32mz_ef_sk/production/_ext/1164207549/ndp.o
 .debug_line    0x000167dc     0x1342 build/pic32mz_ef_sk/production/_ext/1164207549/ipv6.o
 .debug_line    0x00017b1e      0x8da build/pic32mz_ef_sk/production/_ext/1164207549/icmpv6.o
 .debug_line    0x000183f8     0x1575 build/pic32mz_ef_sk/production/_ext/1164207549/tcp.o
 .debug_line    0x0001996d     0x10ad build/pic32mz_ef_sk/production/_ext/1164207549/udp.o
 .debug_line    0x0001aa1a      0x227 build/pic32mz_ef_sk/production/_ext/1164207549/tcpip_heap_alloc.o
 .debug_line    0x0001ac41      0x3b8 build/pic32mz_ef_sk/production/_ext/1164207549/tcpip_heap_internal.o
 .debug_line    0x0001aff9      0xa4f build/pic32mz_ef_sk/production/_ext/1164207549/arp.o
 .debug_line    0x0001ba48      0xd61 build/pic32mz_ef_sk/production/_ext/1164207549/dhcp.o
 .debug_line    0x0001c7a9      0xa06 build/pic32mz_ef_sk/production/_ext/1164207549/dns.o
 .debug_line    0x0001d1af      0xae3 build/pic32mz_ef_sk/production/_ext/1164207549/http.o
 .debug_line    0x0001dc92      0x3a0 build/pic32mz_ef_sk/production/_ext/1164207549/nbns.o
 .debug_line    0x0001e032      0x6bb build/pic32mz_ef_sk/production/_ext/1164207549/smtp.o
 .debug_line    0x0001e6ed      0x5ba build/pic32mz_ef_sk/production/_ext/1164207549/sntp.o
 .debug_line    0x0001eca7      0x1a2 build/pic32mz_ef_sk/production/_ext/1164207549/zero_conf_helper.o
 .debug_line    0x0001ee49      0x622 build/pic32mz_ef_sk/production/_ext/1164207549/zero_conf_link_local.o
 .debug_line    0x0001f46b      0x627 build/pic32mz_ef_sk/production/_ext/1164207549/tcpip_announce.o
 .debug_line    0x0001fa92      0xba5 build/pic32mz_ef_sk/production/_ext/1164207549/tcpip_commands.o
 .debug_line    0x00020637      0x131 build/pic32mz_ef_sk/production/_ext/1164207549/hash_fnv.o
 .debug_line    0x00020768      0x1e0 build/pic32mz_ef_sk/production/_ext/1164207549/oahash.o
 .debug_line    0x00020948      0xa80 build/pic32mz_ef_sk/production/_ext/1164207549/tcpip_helpers.o
 .debug_line    0x000213c8       0xfd build/pic32mz_ef_sk/production/_ext/1164207549/tcpip_helper_c32.o
 .debug_line    0x000214c5     0x14e1 build/pic32mz_ef_sk/production/_ext/1164207549/tcpip_manager.o
 .debug_line    0x000229a6      0x275 build/pic32mz_ef_sk/production/_ext/1164207549/tcpip_notify.o
 .debug_line    0x00022c1b      0x47a build/pic32mz_ef_sk/production/_ext/1164207549/tcpip_packet.o
 .debug_line    0x00023095      0x215 build/pic32mz_ef_sk/production/_ext/1107379230/heap_1.o
 .debug_line    0x000232aa      0x23e build/pic32mz_ef_sk/production/_ext/1282498061/port.o
 .debug_line    0x000234e8      0x176 build/pic32mz_ef_sk/production/_ext/1282498061/port_asm.o
 .debug_line    0x0002365e       0x1d build/pic32mz_ef_sk/production/_ext/373060831/croutine.o
 .debug_line    0x0002367b      0x1dc build/pic32mz_ef_sk/production/_ext/373060831/list.o
 .debug_line    0x00023857      0x496 build/pic32mz_ef_sk/production/_ext/373060831/queue.o
 .debug_line    0x00023ced      0x7b2 build/pic32mz_ef_sk/production/_ext/373060831/tasks.o
 .debug_line    0x0002449f       0x1d build/pic32mz_ef_sk/production/_ext/373060831/timers.o
 .debug_line    0x000244bc      0x325 build/pic32mz_ef_sk/production/_ext/373060831/event_groups.o
 .debug_line    0x000247e1      0x50a build/pic32mz_ef_sk/production/_ext/1360937237/websocket.o
 .debug_line    0x00024ceb      0x4ca build/pic32mz_ef_sk/production/_ext/1360937237/websocket_thread.o
 .debug_line    0x000251b5      0x54b build/pic32mz_ef_sk/production/_ext/1164207549/icmp.o
 .debug_line    0x00025700       0xfd c:/program files (x86)/microchip/xc32/v1.44/bin/bin/../../lib/gcc/pic32mx/4.8.3/fpu64\libgcc.a(_udivdi3.o)
 .debug_line    0x000257fd       0xa7 c:/program files (x86)/microchip/xc32/v1.44/bin/bin/../../lib/gcc/pic32mx/4.8.3/../../../../pic32mx/lib/fpu64\libpic32.a(default-bootstrap-exception-handler.o)
 .debug_line    0x000258a4       0x94 c:/program files (x86)/microchip/xc32/v1.44/bin/bin/../../lib/gcc/pic32mx/4.8.3/../../../../pic32mx/lib/fpu64\libpic32.a(default-on-reset.o)
 .debug_line    0x00025938       0x98 c:/program files (x86)/microchip/xc32/v1.44/bin/bin/../../lib/gcc/pic32mx/4.8.3/../../../../pic32mx/lib/fpu64\libpic32.a(default-on-bootstrap.o)
 .debug_line    0x000259d0       0xa6 c:/program files (x86)/microchip/xc32/v1.44/bin/bin/../../lib/gcc/pic32mx/4.8.3/../../../../pic32mx/lib/fpu64\libpic32.a(defaultinterrupt.o)
 .debug_line    0x00025a76       0xa7 c:/program files (x86)/microchip/xc32/v1.44/bin/bin/../../lib/gcc/pic32mx/4.8.3/../../../../pic32mx/lib/fpu64\libpic32.a(default-cache-err-exception-handler.o)
 .debug_line    0x00025b1d       0xaf c:/program files (x86)/microchip/xc32/v1.44/bin/bin/../../lib/gcc/pic32mx/4.8.3/../../../../pic32mx/lib/fpu64\libpic32.a(default-simple-tlb-refill-exception-handler.o)
 .debug_line    0x00025bcc       0x81 c:/program files (x86)/microchip/xc32/v1.44/bin/bin/../../lib/gcc/pic32mx/4.8.3/../../../../pic32mx/lib/fpu64\libc.a(fassert.o)
 .debug_line    0x00025c4d       0x7e c:/program files (x86)/microchip/xc32/v1.44/bin/bin/../../lib/gcc/pic32mx/4.8.3/../../../../pic32mx/lib/fpu64\libc.a(atoi.o)
 .debug_line    0x00025ccb       0x7e c:/program files (x86)/microchip/xc32/v1.44/bin/bin/../../lib/gcc/pic32mx/4.8.3/../../../../pic32mx/lib/fpu64\libc.a(atol.o)
 .debug_line    0x00025d49       0x80 c:/program files (x86)/microchip/xc32/v1.44/bin/bin/../../lib/gcc/pic32mx/4.8.3/../../../../pic32mx/lib/fpu64\libc.a(calloc.o)
 .debug_line    0x00025dc9        0x0 c:/program files (x86)/microchip/xc32/v1.44/bin/bin/../../lib/gcc/pic32mx/4.8.3/../../../../pic32mx/lib/fpu64\libc.a(ctype.o)
 .debug_line    0x00025dc9       0x80 c:/program files (x86)/microchip/xc32/v1.44/bin/bin/../../lib/gcc/pic32mx/4.8.3/../../../../pic32mx/lib/fpu64\libc.a(ctypef.o)
 .debug_line    0x00025e49       0x80 c:/program files (x86)/microchip/xc32/v1.44/bin/bin/../../lib/gcc/pic32mx/4.8.3/../../../../pic32mx/lib/fpu64\libc.a(malloc.o)
 .debug_line    0x00025ec9       0x80 c:/program files (x86)/microchip/xc32/v1.44/bin/bin/../../lib/gcc/pic32mx/4.8.3/../../../../pic32mx/lib/fpu64\libc.a(perror.o)
 .debug_line    0x00025f49       0x7e c:/program files (x86)/microchip/xc32/v1.44/bin/bin/../../lib/gcc/pic32mx/4.8.3/../../../../pic32mx/lib/fpu64\libc.a(rand.o)
 .debug_line    0x00025fc7       0x80 c:/program files (x86)/microchip/xc32/v1.44/bin/bin/../../lib/gcc/pic32mx/4.8.3/../../../../pic32mx/lib/fpu64\libc.a(signal.o)
 .debug_line    0x00026047       0x80 c:/program files (x86)/microchip/xc32/v1.44/bin/bin/../../lib/gcc/pic32mx/4.8.3/../../../../pic32mx/lib/fpu64\libc.a(strcat.o)
 .debug_line    0x000260c7       0x80 c:/program files (x86)/microchip/xc32/v1.44/bin/bin/../../lib/gcc/pic32mx/4.8.3/../../../../pic32mx/lib/fpu64\libc.a(strchr.o)
 .debug_line    0x00026147       0x81 c:/program files (x86)/microchip/xc32/v1.44/bin/bin/../../lib/gcc/pic32mx/4.8.3/../../../../pic32mx/lib/fpu64\libc.a(strncat.o)
 .debug_line    0x000261c8       0x81 c:/program files (x86)/microchip/xc32/v1.44/bin/bin/../../lib/gcc/pic32mx/4.8.3/../../../../pic32mx/lib/fpu64\libc.a(strncmp.o)
 .debug_line    0x00026249       0x81 c:/program files (x86)/microchip/xc32/v1.44/bin/bin/../../lib/gcc/pic32mx/4.8.3/../../../../pic32mx/lib/fpu64\libc.a(strncpy.o)
 .debug_line    0x000262ca       0x80 c:/program files (x86)/microchip/xc32/v1.44/bin/bin/../../lib/gcc/pic32mx/4.8.3/../../../../pic32mx/lib/fpu64\libc.a(strstr.o)
 .debug_line    0x0002634a       0x80 c:/program files (x86)/microchip/xc32/v1.44/bin/bin/../../lib/gcc/pic32mx/4.8.3/../../../../pic32mx/lib/fpu64\libc.a(strtol.o)
 .debug_line    0x000263ca       0x81 c:/program files (x86)/microchip/xc32/v1.44/bin/bin/../../lib/gcc/pic32mx/4.8.3/../../../../pic32mx/lib/fpu64\libc.a(sys_err.o)
 .debug_line    0x0002644b       0x7e c:/program files (x86)/microchip/xc32/v1.44/bin/bin/../../lib/gcc/pic32mx/4.8.3/../../../../pic32mx/lib/fpu64\libc.a(exit.o)
 .debug_line    0x000264c9       0x82 c:/program files (x86)/microchip/xc32/v1.44/bin/bin/../../lib/gcc/pic32mx/4.8.3/../../../../pic32mx/lib/fpu64\libc.a(stdclean_simple.o)
 .debug_line    0x0002654b       0x81 c:/program files (x86)/microchip/xc32/v1.44/bin/bin/../../lib/gcc/pic32mx/4.8.3/../../../../pic32mx/lib/fpu64\libc.a(fprintf_cdnopsuxX.eo)
 .debug_line    0x000265cc       0x82 c:/program files (x86)/microchip/xc32/v1.44/bin/bin/../../lib/gcc/pic32mx/4.8.3/../../../../pic32mx/lib/fpu64\libc.a(snprintf_cdnopsuxX.eo)
 .debug_line    0x0002664e       0x81 c:/program files (x86)/microchip/xc32/v1.44/bin/bin/../../lib/gcc/pic32mx/4.8.3/../../../../pic32mx/lib/fpu64\libc.a(sprintf_cdnopsuxX.eo)
 .debug_line    0x000266cf       0x80 c:/program files (x86)/microchip/xc32/v1.44/bin/bin/../../lib/gcc/pic32mx/4.8.3/../../../../pic32mx/lib/fpu64\libc.a(sscanf_s.eo)
 .debug_line    0x0002674f       0x83 c:/program files (x86)/microchip/xc32/v1.44/bin/bin/../../lib/gcc/pic32mx/4.8.3/../../../../pic32mx/lib/fpu64\libc.a(vsnprintf_cdnopsuxX.eo)
 .debug_line    0x000267d2       0x83 c:/program files (x86)/microchip/xc32/v1.44/bin/bin/../../lib/gcc/pic32mx/4.8.3/../../../../pic32mx/lib/fpu64\libc.a(vsnprintf.o)
 .debug_line    0x00026855        0x0 c:/program files (x86)/microchip/xc32/v1.44/bin/bin/../../lib/gcc/pic32mx/4.8.3/../../../../pic32mx/lib/fpu64\libc.a(_iob.o)
 .debug_line    0x00026855       0x7f c:/program files (x86)/microchip/xc32/v1.44/bin/bin/../../lib/gcc/pic32mx/4.8.3/../../../../pic32mx/lib/fpu64\libc.a(_fputc_simple.o)
 .debug_line    0x000268d4        0x0 c:/program files (x86)/microchip/xc32/v1.44/bin/bin/../../lib/gcc/pic32mx/4.8.3/../../../../pic32mx/lib/fpu64\libc.a(errno.o)
 .debug_line    0x000268d4       0x80 c:/program files (x86)/microchip/xc32/v1.44/bin/bin/../../lib/gcc/pic32mx/4.8.3/../../../../pic32mx/lib/fpu64\libc.a(doprnt_cdnopsuxX.eo)
 .debug_line    0x00026954       0x80 c:/program files (x86)/microchip/xc32/v1.44/bin/bin/../../lib/gcc/pic32mx/4.8.3/../../../../pic32mx/lib/fpu64\libc.a(doprnt.o)
 .debug_line    0x000269d4       0x80 c:/program files (x86)/microchip/xc32/v1.44/bin/bin/../../lib/gcc/pic32mx/4.8.3/../../../../pic32mx/lib/fpu64\libc.a(doscan_s.eo)
 .debug_line    0x00026a54       0x80 c:/program files (x86)/microchip/xc32/v1.44/bin/bin/../../lib/gcc/pic32mx/4.8.3/../../../../pic32mx/lib/fpu64\libc.a(_flsbuf_simple.o)
 .debug_line    0x00026ad4       0x7f c:/program files (x86)/microchip/xc32/v1.44/bin/bin/../../lib/gcc/pic32mx/4.8.3/../../../../pic32mx/lib/fpu64\libc.a(fgetc.o)
 .debug_line    0x00026b53        0x0 c:/program files (x86)/microchip/xc32/v1.44/bin/bin/../../lib/gcc/pic32mx/4.8.3/../../../../pic32mx/lib/fpu64\libc.a(ldpowers.o)
 .debug_line    0x00026b53       0x80 c:/program files (x86)/microchip/xc32/v1.44/bin/bin/../../lib/gcc/pic32mx/4.8.3/../../../../pic32mx/lib/fpu64\libc.a(ungetc.o)
 .debug_line    0x00026bd3       0x80 c:/program files (x86)/microchip/xc32/v1.44/bin/bin/../../lib/gcc/pic32mx/4.8.3/../../../../pic32mx/lib/fpu64\libc.a(filbuf.o)
 .debug_line    0x00026c53       0x80 c:/program files (x86)/microchip/xc32/v1.44/bin/bin/../../lib/gcc/pic32mx/4.8.3/../../../../pic32mx/lib/fpu64\libc.a(fflush.o)
 .debug_line    0x00026cd3       0x7c c:/program files (x86)/microchip/xc32/v1.44/bin/bin/../../lib/gcc/pic32mx/4.8.3/../../../../pic32mx/lib/fpu64\libmfd.a(s_frexp.o)
 .debug_line    0x00026d4f       0xa7 c:/program files (x86)/microchip/xc32/v1.44/bin/bin/../../lib/gcc/pic32mx/4.8.3/fpu64\libgcc.a(_cmpdi2.o)
 .debug_line    0x00026df6      0x10f c:/program files (x86)/microchip/xc32/v1.44/bin/bin/../../lib/gcc/pic32mx/4.8.3/fpu64\libgcc.a(_umoddi3.o)
 .debug_line    0x00026f05       0x88 c:/program files (x86)/microchip/xc32/v1.44/bin/bin/../../lib/gcc/pic32mx/4.8.3/../../../../pic32mx/lib/fpu64\libpic32.a(sbrk.o)
 .debug_line    0x00026f8d       0x88 c:/program files (x86)/microchip/xc32/v1.44/bin/bin/../../lib/gcc/pic32mx/4.8.3/../../../../pic32mx/lib/fpu64\libpic32.a(read.o)
 .debug_line    0x00027015       0x89 c:/program files (x86)/microchip/xc32/v1.44/bin/bin/../../lib/gcc/pic32mx/4.8.3/../../../../pic32mx/lib/fpu64\libpic32.a(write.o)
 .debug_line    0x0002709e        0x0 c:/program files (x86)/microchip/xc32/v1.44/bin/bin/../../lib/gcc/pic32mx/4.8.3/../../../../pic32mx/lib/fpu64\libpic32.a(xc32_uart.o)
 .debug_line    0x0002709e       0x8d c:/program files (x86)/microchip/xc32/v1.44/bin/bin/../../lib/gcc/pic32mx/4.8.3/../../../../pic32mx/lib/fpu64\libpic32.a(_mon_putc.o)

.debug_frame    0x00000000     0xc0fc
 *.elf(.debug_frame)
 *(.debug_frame)
 .debug_frame   0x00000000       0xb8 build/pic32mz_ef_sk/production/_ext/354129722/bsp.o
 .debug_frame   0x000000b8       0xa0 build/pic32mz_ef_sk/production/_ext/571564127/sys_clk_pic32mz.o
 .debug_frame   0x00000158       0xe8 build/pic32mz_ef_sk/production/_ext/1868830280/sys_devcon.o
 .debug_frame   0x00000240      0x220 build/pic32mz_ef_sk/production/_ext/1868830280/sys_devcon_pic32mz.o
 .debug_frame   0x00000460      0x278 build/pic32mz_ef_sk/production/_ext/1009894383/sys_ports_static.o
 .debug_frame   0x000006d8       0x50 build/pic32mz_ef_sk/production/_ext/119080242/sys_reset.o
 .debug_frame   0x00000728       0x44 build/pic32mz_ef_sk/production/_ext/849053718/system_init.o
 .debug_frame   0x0000076c       0xb0 build/pic32mz_ef_sk/production/_ext/849053718/system_interrupt.o
 .debug_frame   0x0000081c       0x28 build/pic32mz_ef_sk/production/_ext/849053718/system_exceptions.o
 .debug_frame   0x00000844       0xa4 build/pic32mz_ef_sk/production/_ext/849053718/system_tasks.o
 .debug_frame   0x000008e8       0x40 build/pic32mz_ef_sk/production/_ext/849053718/rtos_hooks.o
 .debug_frame   0x00000928       0x44 build/pic32mz_ef_sk/production/_ext/1360937237/app.o
 .debug_frame   0x0000096c       0x28 build/pic32mz_ef_sk/production/_ext/1360937237/main.o
 .debug_frame   0x00000994       0x3c build/pic32mz_ef_sk/production/_ext/1360937237/streamer.o
 .debug_frame   0x000009d0       0x38 build/pic32mz_ef_sk/production/_ext/1360937237/ws_server.o
 .debug_frame   0x00000a08       0x40 build/pic32mz_ef_sk/production/_ext/1360937237/http_print.o
 .debug_frame   0x00000a48      0x3cc build/pic32mz_ef_sk/production/_ext/1360937237/custom_http_app.o
 .debug_frame   0x00000e14       0x70 build/pic32mz_ef_sk/production/_ext/2046866571/adler32.o
 .debug_frame   0x00000e84       0x54 build/pic32mz_ef_sk/production/_ext/2046866571/compress.o
 .debug_frame   0x00000ed8       0xb0 build/pic32mz_ef_sk/production/_ext/2046866571/crc32.o
 .debug_frame   0x00000f88      0x294 build/pic32mz_ef_sk/production/_ext/2046866571/deflate.o
 .debug_frame   0x0000121c       0x80 build/pic32mz_ef_sk/production/_ext/2046866571/infback.o
 .debug_frame   0x0000129c       0x38 build/pic32mz_ef_sk/production/_ext/2046866571/inffast.o
 .debug_frame   0x000012d4      0x1cc build/pic32mz_ef_sk/production/_ext/2046866571/inflate.o
 .debug_frame   0x000014a0       0x38 build/pic32mz_ef_sk/production/_ext/2046866571/inftrees.o
 .debug_frame   0x000014d8      0x154 build/pic32mz_ef_sk/production/_ext/2046866571/trees.o
 .debug_frame   0x0000162c       0x2c build/pic32mz_ef_sk/production/_ext/2046866571/uncompr.o
 .debug_frame   0x00001658       0x70 build/pic32mz_ef_sk/production/_ext/2046866571/zutil.o
 .debug_frame   0x000016c8       0x50 build/pic32mz_ef_sk/production/_ext/29024758/arc4.o
 .debug_frame   0x00001718      0x8a8 build/pic32mz_ef_sk/production/_ext/29024758/tfm.o
 .debug_frame   0x00001fc0      0x1a4 build/pic32mz_ef_sk/production/_ext/29024758/des3.o
 .debug_frame   0x00002164       0xf0 build/pic32mz_ef_sk/production/_ext/29024758/md5.o
 .debug_frame   0x00002254       0xf0 build/pic32mz_ef_sk/production/_ext/29024758/sha.o
 .debug_frame   0x00002344       0xec build/pic32mz_ef_sk/production/_ext/29024758/sha256.o
 .debug_frame   0x00002430       0xcc build/pic32mz_ef_sk/production/_ext/29024758/hmac.o
 .debug_frame   0x000024fc       0xf8 build/pic32mz_ef_sk/production/_ext/29024758/hash.o
 .debug_frame   0x000025f4      0x2b8 build/pic32mz_ef_sk/production/_ext/29024758/crypto.o
 .debug_frame   0x000028ac       0xdc build/pic32mz_ef_sk/production/_ext/29024758/coding.o
 .debug_frame   0x00002988       0x38 build/pic32mz_ef_sk/production/_ext/29024758/error.o
 .debug_frame   0x000029c0       0x40 build/pic32mz_ef_sk/production/_ext/29024758/logging.o
 .debug_frame   0x00002a00       0x78 build/pic32mz_ef_sk/production/_ext/29024758/memory.o
 .debug_frame   0x00002a78       0x88 build/pic32mz_ef_sk/production/_ext/29024758/wc_port.o
 .debug_frame   0x00002b00       0x48 build/pic32mz_ef_sk/production/_ext/29024758/wolfmath.o
 .debug_frame   0x00002b48      0x458 build/pic32mz_ef_sk/production/_ext/1697634946/drv_ethmac.o
 .debug_frame   0x00002fa0      0x274 build/pic32mz_ef_sk/production/_ext/1697634946/drv_ethmac_lib.o
 .debug_frame   0x00003214      0x6e0 build/pic32mz_ef_sk/production/_ext/521481140/drv_ethphy.o
 .debug_frame   0x000038f4       0x60 build/pic32mz_ef_sk/production/_ext/521481140/drv_extphy_smsc8740.o
 .debug_frame   0x00003954      0x2b0 build/pic32mz_ef_sk/production/_ext/1470245908/drv_miim.o
 .debug_frame   0x00003c04      0x210 build/pic32mz_ef_sk/production/_ext/184581597/drv_nvm.o
 .debug_frame   0x00003e14       0x34 build/pic32mz_ef_sk/production/_ext/184581597/drv_nvm_erasewrite.o
 .debug_frame   0x00003e48      0x2ac build/pic32mz_ef_sk/production/_ext/941160041/drv_tmr.o
 .debug_frame   0x000040f4      0x2c4 build/pic32mz_ef_sk/production/_ext/821589181/drv_usart.o
 .debug_frame   0x000043b8       0xd0 build/pic32mz_ef_sk/production/_ext/821589181/drv_usart_buffer_queue.o
 .debug_frame   0x00004488       0x58 build/pic32mz_ef_sk/production/_ext/821589181/drv_usart_read_write.o
 .debug_frame   0x000044e0      0x344 build/pic32mz_ef_sk/production/_ext/871719959/net_pres.o
 .debug_frame   0x00004824      0x150 build/pic32mz_ef_sk/production/_ext/308321468/osal_freertos.o
 .debug_frame   0x00004974      0x2d0 build/pic32mz_ef_sk/production/_ext/1891376032/sys_command.o
 .debug_frame   0x00004c44       0x80 build/pic32mz_ef_sk/production/_ext/598853952/sys_buffer.o
 .debug_frame   0x00004cc4       0x50 build/pic32mz_ef_sk/production/_ext/598853952/sys_queue.o
 .debug_frame   0x00004d14      0x108 build/pic32mz_ef_sk/production/_ext/1434663852/sys_console.o
 .debug_frame   0x00004e1c       0xcc build/pic32mz_ef_sk/production/_ext/1434663852/sys_console_uart.o
 .debug_frame   0x00004ee8       0xb4 build/pic32mz_ef_sk/production/_ext/2137108136/sys_debug.o
 .debug_frame   0x00004f9c      0x4e4 build/pic32mz_ef_sk/production/_ext/1750042194/sys_fs.o
 .debug_frame   0x00005480      0x1c4 build/pic32mz_ef_sk/production/_ext/1750042194/sys_fs_media_manager.o
 .debug_frame   0x00005644      0x1d8 build/pic32mz_ef_sk/production/_ext/614935175/mpfs.o
 .debug_frame   0x0000581c       0x90 build/pic32mz_ef_sk/production/_ext/1042686532/sys_int_pic32.o
 .debug_frame   0x000058ac       0x68 build/pic32mz_ef_sk/production/_ext/470001640/sys_random.o
 .debug_frame   0x00005914      0x258 build/pic32mz_ef_sk/production/_ext/2110151058/sys_tmr.o
 .debug_frame   0x00005b6c       0x90 build/pic32mz_ef_sk/production/_ext/1886247299/sys_fs_wrapper.o
 .debug_frame   0x00005bfc       0x74 build/pic32mz_ef_sk/production/_ext/1886247299/helpers.o
 .debug_frame   0x00005c70      0x260 build/pic32mz_ef_sk/production/_ext/1164207549/ipv4.o
 .debug_frame   0x00005ed0      0x3e8 build/pic32mz_ef_sk/production/_ext/1164207549/ndp.o
 .debug_frame   0x000062b8      0x90c build/pic32mz_ef_sk/production/_ext/1164207549/ipv6.o
 .debug_frame   0x00006bc4      0x1d8 build/pic32mz_ef_sk/production/_ext/1164207549/icmpv6.o
 .debug_frame   0x00006d9c      0x7c4 build/pic32mz_ef_sk/production/_ext/1164207549/tcp.o
 .debug_frame   0x00007560      0x6cc build/pic32mz_ef_sk/production/_ext/1164207549/udp.o
 .debug_frame   0x00007c2c       0x98 build/pic32mz_ef_sk/production/_ext/1164207549/tcpip_heap_alloc.o
 .debug_frame   0x00007cc4       0xf0 build/pic32mz_ef_sk/production/_ext/1164207549/tcpip_heap_internal.o
 .debug_frame   0x00007db4      0x3e8 build/pic32mz_ef_sk/production/_ext/1164207549/arp.o
 .debug_frame   0x0000819c      0x510 build/pic32mz_ef_sk/production/_ext/1164207549/dhcp.o
 .debug_frame   0x000086ac      0x404 build/pic32mz_ef_sk/production/_ext/1164207549/dns.o
 .debug_frame   0x00008ab0      0x330 build/pic32mz_ef_sk/production/_ext/1164207549/http.o
 .debug_frame   0x00008de0       0xa4 build/pic32mz_ef_sk/production/_ext/1164207549/nbns.o
 .debug_frame   0x00008e84      0x17c build/pic32mz_ef_sk/production/_ext/1164207549/smtp.o
 .debug_frame   0x00009000      0x198 build/pic32mz_ef_sk/production/_ext/1164207549/sntp.o
 .debug_frame   0x00009198       0x2c build/pic32mz_ef_sk/production/_ext/1164207549/zero_conf_helper.o
 .debug_frame   0x000091c4      0x148 build/pic32mz_ef_sk/production/_ext/1164207549/zero_conf_link_local.o
 .debug_frame   0x0000930c      0x20c build/pic32mz_ef_sk/production/_ext/1164207549/tcpip_announce.o
 .debug_frame   0x00009518      0x314 build/pic32mz_ef_sk/production/_ext/1164207549/tcpip_commands.o
 .debug_frame   0x0000982c       0x30 build/pic32mz_ef_sk/production/_ext/1164207549/hash_fnv.o
 .debug_frame   0x0000985c       0xb4 build/pic32mz_ef_sk/production/_ext/1164207549/oahash.o
 .debug_frame   0x00009910      0x63c build/pic32mz_ef_sk/production/_ext/1164207549/tcpip_helpers.o
 .debug_frame   0x00009f4c      0xa18 build/pic32mz_ef_sk/production/_ext/1164207549/tcpip_manager.o
 .debug_frame   0x0000a964       0x94 build/pic32mz_ef_sk/production/_ext/1164207549/tcpip_notify.o
 .debug_frame   0x0000a9f8      0x144 build/pic32mz_ef_sk/production/_ext/1164207549/tcpip_packet.o
 .debug_frame   0x0000ab3c       0x5c build/pic32mz_ef_sk/production/_ext/1107379230/heap_1.o
 .debug_frame   0x0000ab98       0xc0 build/pic32mz_ef_sk/production/_ext/1282498061/port.o
 .debug_frame   0x0000ac58       0x60 build/pic32mz_ef_sk/production/_ext/373060831/list.o
 .debug_frame   0x0000acb8      0x218 build/pic32mz_ef_sk/production/_ext/373060831/queue.o
 .debug_frame   0x0000aed0      0x458 build/pic32mz_ef_sk/production/_ext/373060831/tasks.o
 .debug_frame   0x0000b328      0x108 build/pic32mz_ef_sk/production/_ext/373060831/event_groups.o
 .debug_frame   0x0000b430      0x13c build/pic32mz_ef_sk/production/_ext/1360937237/websocket.o
 .debug_frame   0x0000b56c       0x90 build/pic32mz_ef_sk/production/_ext/1360937237/websocket_thread.o
 .debug_frame   0x0000b5fc      0x140 build/pic32mz_ef_sk/production/_ext/1164207549/icmp.o
 .debug_frame   0x0000b73c       0x20 c:/program files (x86)/microchip/xc32/v1.44/bin/bin/../../lib/gcc/pic32mx/4.8.3/fpu64\libgcc.a(_udivdi3.o)
 .debug_frame   0x0000b75c       0x2c c:/program files (x86)/microchip/xc32/v1.44/bin/bin/../../lib/gcc/pic32mx/4.8.3/../../../../pic32mx/lib/fpu64\libpic32.a(default-bootstrap-exception-handler.o)
 .debug_frame   0x0000b788       0x20 c:/program files (x86)/microchip/xc32/v1.44/bin/bin/../../lib/gcc/pic32mx/4.8.3/../../../../pic32mx/lib/fpu64\libpic32.a(default-on-reset.o)
 .debug_frame   0x0000b7a8       0x20 c:/program files (x86)/microchip/xc32/v1.44/bin/bin/../../lib/gcc/pic32mx/4.8.3/../../../../pic32mx/lib/fpu64\libpic32.a(default-on-bootstrap.o)
 .debug_frame   0x0000b7c8       0x20 c:/program files (x86)/microchip/xc32/v1.44/bin/bin/../../lib/gcc/pic32mx/4.8.3/../../../../pic32mx/lib/fpu64\libpic32.a(defaultinterrupt.o)
 .debug_frame   0x0000b7e8       0x2c c:/program files (x86)/microchip/xc32/v1.44/bin/bin/../../lib/gcc/pic32mx/4.8.3/../../../../pic32mx/lib/fpu64\libpic32.a(default-cache-err-exception-handler.o)
 .debug_frame   0x0000b814       0x2c c:/program files (x86)/microchip/xc32/v1.44/bin/bin/../../lib/gcc/pic32mx/4.8.3/../../../../pic32mx/lib/fpu64\libpic32.a(default-simple-tlb-refill-exception-handler.o)
 .debug_frame   0x0000b840       0x28 c:/program files (x86)/microchip/xc32/v1.44/bin/bin/../../lib/gcc/pic32mx/4.8.3/../../../../pic32mx/lib/fpu64\libc.a(fassert.o)
 .debug_frame   0x0000b868       0x20 c:/program files (x86)/microchip/xc32/v1.44/bin/bin/../../lib/gcc/pic32mx/4.8.3/../../../../pic32mx/lib/fpu64\libc.a(atoi.o)
 .debug_frame   0x0000b888       0x20 c:/program files (x86)/microchip/xc32/v1.44/bin/bin/../../lib/gcc/pic32mx/4.8.3/../../../../pic32mx/lib/fpu64\libc.a(atol.o)
 .debug_frame   0x0000b8a8       0x28 c:/program files (x86)/microchip/xc32/v1.44/bin/bin/../../lib/gcc/pic32mx/4.8.3/../../../../pic32mx/lib/fpu64\libc.a(calloc.o)
 .debug_frame   0x0000b8d0      0x120 c:/program files (x86)/microchip/xc32/v1.44/bin/bin/../../lib/gcc/pic32mx/4.8.3/../../../../pic32mx/lib/fpu64\libc.a(ctypef.o)
 .debug_frame   0x0000b9f0       0x68 c:/program files (x86)/microchip/xc32/v1.44/bin/bin/../../lib/gcc/pic32mx/4.8.3/../../../../pic32mx/lib/fpu64\libc.a(malloc.o)
 .debug_frame   0x0000ba58       0x2c c:/program files (x86)/microchip/xc32/v1.44/bin/bin/../../lib/gcc/pic32mx/4.8.3/../../../../pic32mx/lib/fpu64\libc.a(perror.o)
 .debug_frame   0x0000ba84       0x30 c:/program files (x86)/microchip/xc32/v1.44/bin/bin/../../lib/gcc/pic32mx/4.8.3/../../../../pic32mx/lib/fpu64\libc.a(rand.o)
 .debug_frame   0x0000bab4       0x50 c:/program files (x86)/microchip/xc32/v1.44/bin/bin/../../lib/gcc/pic32mx/4.8.3/../../../../pic32mx/lib/fpu64\libc.a(signal.o)
 .debug_frame   0x0000bb04       0x20 c:/program files (x86)/microchip/xc32/v1.44/bin/bin/../../lib/gcc/pic32mx/4.8.3/../../../../pic32mx/lib/fpu64\libc.a(strcat.o)
 .debug_frame   0x0000bb24       0x20 c:/program files (x86)/microchip/xc32/v1.44/bin/bin/../../lib/gcc/pic32mx/4.8.3/../../../../pic32mx/lib/fpu64\libc.a(strchr.o)
 .debug_frame   0x0000bb44       0x20 c:/program files (x86)/microchip/xc32/v1.44/bin/bin/../../lib/gcc/pic32mx/4.8.3/../../../../pic32mx/lib/fpu64\libc.a(strncat.o)
 .debug_frame   0x0000bb64       0x20 c:/program files (x86)/microchip/xc32/v1.44/bin/bin/../../lib/gcc/pic32mx/4.8.3/../../../../pic32mx/lib/fpu64\libc.a(strncmp.o)
 .debug_frame   0x0000bb84       0x20 c:/program files (x86)/microchip/xc32/v1.44/bin/bin/../../lib/gcc/pic32mx/4.8.3/../../../../pic32mx/lib/fpu64\libc.a(strncpy.o)
 .debug_frame   0x0000bba4       0x2c c:/program files (x86)/microchip/xc32/v1.44/bin/bin/../../lib/gcc/pic32mx/4.8.3/../../../../pic32mx/lib/fpu64\libc.a(strstr.o)
 .debug_frame   0x0000bbd0       0x58 c:/program files (x86)/microchip/xc32/v1.44/bin/bin/../../lib/gcc/pic32mx/4.8.3/../../../../pic32mx/lib/fpu64\libc.a(strtol.o)
 .debug_frame   0x0000bc28       0x20 c:/program files (x86)/microchip/xc32/v1.44/bin/bin/../../lib/gcc/pic32mx/4.8.3/../../../../pic32mx/lib/fpu64\libc.a(sys_err.o)
 .debug_frame   0x0000bc48       0x28 c:/program files (x86)/microchip/xc32/v1.44/bin/bin/../../lib/gcc/pic32mx/4.8.3/../../../../pic32mx/lib/fpu64\libc.a(exit.o)
 .debug_frame   0x0000bc70       0x20 c:/program files (x86)/microchip/xc32/v1.44/bin/bin/../../lib/gcc/pic32mx/4.8.3/../../../../pic32mx/lib/fpu64\libc.a(stdclean_simple.o)
 .debug_frame   0x0000bc90       0x28 c:/program files (x86)/microchip/xc32/v1.44/bin/bin/../../lib/gcc/pic32mx/4.8.3/../../../../pic32mx/lib/fpu64\libc.a(fprintf_cdnopsuxX.eo)
 .debug_frame   0x0000bcb8       0x28 c:/program files (x86)/microchip/xc32/v1.44/bin/bin/../../lib/gcc/pic32mx/4.8.3/../../../../pic32mx/lib/fpu64\libc.a(snprintf_cdnopsuxX.eo)
 .debug_frame   0x0000bce0       0x28 c:/program files (x86)/microchip/xc32/v1.44/bin/bin/../../lib/gcc/pic32mx/4.8.3/../../../../pic32mx/lib/fpu64\libc.a(sprintf_cdnopsuxX.eo)
 .debug_frame   0x0000bd08       0x28 c:/program files (x86)/microchip/xc32/v1.44/bin/bin/../../lib/gcc/pic32mx/4.8.3/../../../../pic32mx/lib/fpu64\libc.a(sscanf_s.eo)
 .debug_frame   0x0000bd30       0x2c c:/program files (x86)/microchip/xc32/v1.44/bin/bin/../../lib/gcc/pic32mx/4.8.3/../../../../pic32mx/lib/fpu64\libc.a(vsnprintf_cdnopsuxX.eo)
 .debug_frame   0x0000bd5c       0x2c c:/program files (x86)/microchip/xc32/v1.44/bin/bin/../../lib/gcc/pic32mx/4.8.3/../../../../pic32mx/lib/fpu64\libc.a(vsnprintf.o)
 .debug_frame   0x0000bd88       0x2c c:/program files (x86)/microchip/xc32/v1.44/bin/bin/../../lib/gcc/pic32mx/4.8.3/../../../../pic32mx/lib/fpu64\libc.a(_fputc_simple.o)
 .debug_frame   0x0000bdb4       0x38 c:/program files (x86)/microchip/xc32/v1.44/bin/bin/../../lib/gcc/pic32mx/4.8.3/../../../../pic32mx/lib/fpu64\libc.a(doprnt_cdnopsuxX.eo)
 .debug_frame   0x0000bdec       0x68 c:/program files (x86)/microchip/xc32/v1.44/bin/bin/../../lib/gcc/pic32mx/4.8.3/../../../../pic32mx/lib/fpu64\libc.a(doprnt.o)
 .debug_frame   0x0000be54       0x6c c:/program files (x86)/microchip/xc32/v1.44/bin/bin/../../lib/gcc/pic32mx/4.8.3/../../../../pic32mx/lib/fpu64\libc.a(doscan_s.eo)
 .debug_frame   0x0000bec0       0x28 c:/program files (x86)/microchip/xc32/v1.44/bin/bin/../../lib/gcc/pic32mx/4.8.3/../../../../pic32mx/lib/fpu64\libc.a(_flsbuf_simple.o)
 .debug_frame   0x0000bee8       0x2c c:/program files (x86)/microchip/xc32/v1.44/bin/bin/../../lib/gcc/pic32mx/4.8.3/../../../../pic32mx/lib/fpu64\libc.a(fgetc.o)
 .debug_frame   0x0000bf14       0x20 c:/program files (x86)/microchip/xc32/v1.44/bin/bin/../../lib/gcc/pic32mx/4.8.3/../../../../pic32mx/lib/fpu64\libc.a(ungetc.o)
 .debug_frame   0x0000bf34       0x30 c:/program files (x86)/microchip/xc32/v1.44/bin/bin/../../lib/gcc/pic32mx/4.8.3/../../../../pic32mx/lib/fpu64\libc.a(filbuf.o)
 .debug_frame   0x0000bf64       0x28 c:/program files (x86)/microchip/xc32/v1.44/bin/bin/../../lib/gcc/pic32mx/4.8.3/../../../../pic32mx/lib/fpu64\libc.a(fflush.o)
 .debug_frame   0x0000bf8c       0x20 c:/program files (x86)/microchip/xc32/v1.44/bin/bin/../../lib/gcc/pic32mx/4.8.3/../../../../pic32mx/lib/fpu64\libmfd.a(s_frexp.o)
 .debug_frame   0x0000bfac       0x20 c:/program files (x86)/microchip/xc32/v1.44/bin/bin/../../lib/gcc/pic32mx/4.8.3/fpu64\libgcc.a(_cmpdi2.o)
 .debug_frame   0x0000bfcc       0x20 c:/program files (x86)/microchip/xc32/v1.44/bin/bin/../../lib/gcc/pic32mx/4.8.3/fpu64\libgcc.a(_umoddi3.o)
 .debug_frame   0x0000bfec       0x84 c:/program files (x86)/microchip/xc32/v1.44/bin/bin/../../lib/gcc/pic32mx/4.8.3/../../../../pic32mx/lib/fpu64\libpic32.a(sbrk.o)
 .debug_frame   0x0000c070       0x2c c:/program files (x86)/microchip/xc32/v1.44/bin/bin/../../lib/gcc/pic32mx/4.8.3/../../../../pic32mx/lib/fpu64\libpic32.a(read.o)
 .debug_frame   0x0000c09c       0x38 c:/program files (x86)/microchip/xc32/v1.44/bin/bin/../../lib/gcc/pic32mx/4.8.3/../../../../pic32mx/lib/fpu64\libpic32.a(write.o)
 .debug_frame   0x0000c0d4       0x28 c:/program files (x86)/microchip/xc32/v1.44/bin/bin/../../lib/gcc/pic32mx/4.8.3/../../../../pic32mx/lib/fpu64\libpic32.a(_mon_putc.o)

.debug_str      0x00000000     0x30eb
 *.elf(.debug_str)
 *(.debug_str)
 .debug_str     0x00000000        0x0 build/pic32mz_ef_sk/production/_ext/29024758/misc.o
 .debug_str     0x00000000       0x15 build/pic32mz_ef_sk/production/_ext/354129722/bsp.o
 .debug_str     0x00000015        0x0 build/pic32mz_ef_sk/production/_ext/854288108/net_pres_enc_glue.o
 .debug_str     0x00000015       0x46 build/pic32mz_ef_sk/production/_ext/571564127/sys_clk_pic32mz.o
 .debug_str     0x0000005b       0x16 build/pic32mz_ef_sk/production/_ext/1868830280/sys_devcon.o
 .debug_str     0x00000071       0x1a build/pic32mz_ef_sk/production/_ext/1868830280/sys_devcon_pic32mz.o
 .debug_str     0x0000008b       0xa1 build/pic32mz_ef_sk/production/_ext/1009894383/sys_ports_static.o
 .debug_str     0x0000012c       0x17 build/pic32mz_ef_sk/production/_ext/119080242/sys_reset.o
 .debug_str     0x00000143      0x10f build/pic32mz_ef_sk/production/_ext/849053718/system_init.o
 .debug_str     0x00000252        0x0 build/pic32mz_ef_sk/production/_ext/849053718/system_interrupt.o
 .debug_str     0x00000252        0x0 build/pic32mz_ef_sk/production/_ext/849053718/system_exceptions.o
 .debug_str     0x00000252        0x0 build/pic32mz_ef_sk/production/_ext/849053718/system_tasks.o
 .debug_str     0x00000252        0x9 build/pic32mz_ef_sk/production/_ext/849053718/rtos_hooks.o
 .debug_str     0x0000025b        0x0 build/pic32mz_ef_sk/production/_ext/1360937237/app.o
 .debug_str     0x0000025b        0x0 build/pic32mz_ef_sk/production/_ext/1360937237/main.o
 .debug_str     0x0000025b        0x0 build/pic32mz_ef_sk/production/_ext/1360937237/streamer.o
 .debug_str     0x0000025b        0x0 build/pic32mz_ef_sk/production/_ext/1360937237/ws_server.o
 .debug_str     0x0000025b        0xb build/pic32mz_ef_sk/production/_ext/1360937237/http_print.o
 .debug_str     0x00000266       0x54 build/pic32mz_ef_sk/production/_ext/1360937237/custom_http_app.o
 .debug_str     0x000002ba        0x0 build/pic32mz_ef_sk/production/_ext/1360937237/mpfs_img2.o
 .debug_str     0x000002ba        0xe build/pic32mz_ef_sk/production/_ext/2046866571/adler32.o
 .debug_str     0x000002c8        0xa build/pic32mz_ef_sk/production/_ext/2046866571/compress.o
 .debug_str     0x000002d2        0x0 build/pic32mz_ef_sk/production/_ext/2046866571/crc32.o
 .debug_str     0x000002d2       0x6d build/pic32mz_ef_sk/production/_ext/2046866571/deflate.o
 .debug_str     0x0000033f        0x6 build/pic32mz_ef_sk/production/_ext/2046866571/infback.o
 .debug_str     0x00000345        0x0 build/pic32mz_ef_sk/production/_ext/2046866571/inffast.o
 .debug_str     0x00000345       0x22 build/pic32mz_ef_sk/production/_ext/2046866571/inflate.o
 .debug_str     0x00000367        0x0 build/pic32mz_ef_sk/production/_ext/2046866571/inftrees.o
 .debug_str     0x00000367       0x4d build/pic32mz_ef_sk/production/_ext/2046866571/trees.o
 .debug_str     0x000003b4        0x0 build/pic32mz_ef_sk/production/_ext/2046866571/uncompr.o
 .debug_str     0x000003b4        0x0 build/pic32mz_ef_sk/production/_ext/2046866571/zutil.o
 .debug_str     0x000003b4        0x0 build/pic32mz_ef_sk/production/_ext/29024758/ecc.o
 .debug_str     0x000003b4        0x0 build/pic32mz_ef_sk/production/_ext/29024758/arc4.o
 .debug_str     0x000003b4        0x0 build/pic32mz_ef_sk/production/_ext/29024758/pwdbased.o
 .debug_str     0x000003b4        0x8 build/pic32mz_ef_sk/production/_ext/29024758/tfm.o
 .debug_str     0x000003bc        0x0 build/pic32mz_ef_sk/production/_ext/29024758/asn.o
 .debug_str     0x000003bc        0x7 build/pic32mz_ef_sk/production/_ext/29024758/des3.o
 .debug_str     0x000003c3        0x0 build/pic32mz_ef_sk/production/_ext/29024758/rsa.o
 .debug_str     0x000003c3        0x0 build/pic32mz_ef_sk/production/_ext/29024758/aes.o
 .debug_str     0x000003c3        0x0 build/pic32mz_ef_sk/production/_ext/29024758/md5.o
 .debug_str     0x000003c3        0x0 build/pic32mz_ef_sk/production/_ext/29024758/sha.o
 .debug_str     0x000003c3        0x7 build/pic32mz_ef_sk/production/_ext/29024758/sha256.o
 .debug_str     0x000003ca        0x0 build/pic32mz_ef_sk/production/_ext/29024758/sha512.o
 .debug_str     0x000003ca       0x20 build/pic32mz_ef_sk/production/_ext/29024758/hmac.o
 .debug_str     0x000003ea       0x2e build/pic32mz_ef_sk/production/_ext/29024758/hash.o
 .debug_str     0x00000418        0x0 build/pic32mz_ef_sk/production/_ext/29024758/compress.o
 .debug_str     0x00000418       0x88 build/pic32mz_ef_sk/production/_ext/29024758/crypto.o
 .debug_str     0x000004a0       0x17 build/pic32mz_ef_sk/production/_ext/29024758/coding.o
 .debug_str     0x000004b7        0x0 build/pic32mz_ef_sk/production/_ext/29024758/error.o
 .debug_str     0x000004b7        0x0 build/pic32mz_ef_sk/production/_ext/29024758/integer.o
 .debug_str     0x000004b7        0x0 build/pic32mz_ef_sk/production/_ext/29024758/logging.o
 .debug_str     0x000004b7        0x0 build/pic32mz_ef_sk/production/_ext/29024758/memory.o
 .debug_str     0x000004b7        0x0 build/pic32mz_ef_sk/production/_ext/29024758/wc_port.o
 .debug_str     0x000004b7        0x0 build/pic32mz_ef_sk/production/_ext/29024758/wolfmath.o
 .debug_str     0x000004b7      0x205 build/pic32mz_ef_sk/production/_ext/1697634946/drv_ethmac.o
 .debug_str     0x000006bc      0x19a build/pic32mz_ef_sk/production/_ext/1697634946/drv_ethmac_lib.o
 .debug_str     0x00000856      0x4e8 build/pic32mz_ef_sk/production/_ext/521481140/drv_ethphy.o
 .debug_str     0x00000d3e       0x2a build/pic32mz_ef_sk/production/_ext/521481140/drv_extphy_smsc8740.o
 .debug_str     0x00000d68      0x292 build/pic32mz_ef_sk/production/_ext/1470245908/drv_miim.o
 .debug_str     0x00000ffa       0xd8 build/pic32mz_ef_sk/production/_ext/184581597/drv_nvm.o
 .debug_str     0x000010d2       0x18 build/pic32mz_ef_sk/production/_ext/184581597/drv_nvm_erasewrite.o
 .debug_str     0x000010ea       0xc6 build/pic32mz_ef_sk/production/_ext/941160041/drv_tmr.o
 .debug_str     0x000011b0      0x19b build/pic32mz_ef_sk/production/_ext/821589181/drv_usart.o
 .debug_str     0x0000134b       0x74 build/pic32mz_ef_sk/production/_ext/821589181/drv_usart_buffer_queue.o
 .debug_str     0x000013bf       0x4c build/pic32mz_ef_sk/production/_ext/821589181/drv_usart_read_write.o
 .debug_str     0x0000140b       0x8d build/pic32mz_ef_sk/production/_ext/871719959/net_pres.o
 .debug_str     0x00001498       0x40 build/pic32mz_ef_sk/production/_ext/308321468/osal_freertos.o
 .debug_str     0x000014d8       0x46 build/pic32mz_ef_sk/production/_ext/1891376032/sys_command.o
 .debug_str     0x0000151e       0x34 build/pic32mz_ef_sk/production/_ext/598853952/sys_buffer.o
 .debug_str     0x00001552       0x14 build/pic32mz_ef_sk/production/_ext/598853952/sys_queue.o
 .debug_str     0x00001566        0xd build/pic32mz_ef_sk/production/_ext/1434663852/sys_console.o
 .debug_str     0x00001573       0x18 build/pic32mz_ef_sk/production/_ext/1434663852/sys_console_uart.o
 .debug_str     0x0000158b       0x12 build/pic32mz_ef_sk/production/_ext/2137108136/sys_debug.o
 .debug_str     0x0000159d       0x92 build/pic32mz_ef_sk/production/_ext/1750042194/sys_fs.o
 .debug_str     0x0000162f       0xd2 build/pic32mz_ef_sk/production/_ext/1750042194/sys_fs_media_manager.o
 .debug_str     0x00001701       0x48 build/pic32mz_ef_sk/production/_ext/614935175/mpfs.o
 .debug_str     0x00001749       0x1d build/pic32mz_ef_sk/production/_ext/1042686532/sys_int_pic32.o
 .debug_str     0x00001766       0x1d build/pic32mz_ef_sk/production/_ext/470001640/sys_random.o
 .debug_str     0x00001783       0x6b build/pic32mz_ef_sk/production/_ext/2110151058/sys_tmr.o
 .debug_str     0x000017ee       0x1d build/pic32mz_ef_sk/production/_ext/1886247299/sys_fs_wrapper.o
 .debug_str     0x0000180b        0x0 build/pic32mz_ef_sk/production/_ext/1886247299/helpers.o
 .debug_str     0x0000180b       0xe8 build/pic32mz_ef_sk/production/_ext/1164207549/ipv4.o
 .debug_str     0x000018f3      0x17d build/pic32mz_ef_sk/production/_ext/1164207549/ndp.o
 .debug_str     0x00001a70      0x285 build/pic32mz_ef_sk/production/_ext/1164207549/ipv6.o
 .debug_str     0x00001cf5      0x135 build/pic32mz_ef_sk/production/_ext/1164207549/icmpv6.o
 .debug_str     0x00001e2a      0x213 build/pic32mz_ef_sk/production/_ext/1164207549/tcp.o
 .debug_str     0x0000203d      0x18d build/pic32mz_ef_sk/production/_ext/1164207549/udp.o
 .debug_str     0x000021ca       0x3c build/pic32mz_ef_sk/production/_ext/1164207549/tcpip_heap_alloc.o
 .debug_str     0x00002206       0x38 build/pic32mz_ef_sk/production/_ext/1164207549/tcpip_heap_internal.o
 .debug_str     0x0000223e       0xd0 build/pic32mz_ef_sk/production/_ext/1164207549/arp.o
 .debug_str     0x0000230e       0xce build/pic32mz_ef_sk/production/_ext/1164207549/dhcp.o
 .debug_str     0x000023dc      0x138 build/pic32mz_ef_sk/production/_ext/1164207549/dns.o
 .debug_str     0x00002514       0x6d build/pic32mz_ef_sk/production/_ext/1164207549/http.o
 .debug_str     0x00002581       0x24 build/pic32mz_ef_sk/production/_ext/1164207549/nbns.o
 .debug_str     0x000025a5       0x30 build/pic32mz_ef_sk/production/_ext/1164207549/smtp.o
 .debug_str     0x000025d5       0x2d build/pic32mz_ef_sk/production/_ext/1164207549/sntp.o
 .debug_str     0x00002602        0x0 build/pic32mz_ef_sk/production/_ext/1164207549/zero_conf_helper.o
 .debug_str     0x00002602       0x4b build/pic32mz_ef_sk/production/_ext/1164207549/zero_conf_link_local.o
 .debug_str     0x0000264d       0x8c build/pic32mz_ef_sk/production/_ext/1164207549/tcpip_announce.o
 .debug_str     0x000026d9      0x18a build/pic32mz_ef_sk/production/_ext/1164207549/tcpip_commands.o
 .debug_str     0x00002863        0x0 build/pic32mz_ef_sk/production/_ext/1164207549/hash_fnv.o
 .debug_str     0x00002863        0xa build/pic32mz_ef_sk/production/_ext/1164207549/oahash.o
 .debug_str     0x0000286d       0x85 build/pic32mz_ef_sk/production/_ext/1164207549/tcpip_helpers.o
 .debug_str     0x000028f2      0x291 build/pic32mz_ef_sk/production/_ext/1164207549/tcpip_manager.o
 .debug_str     0x00002b83       0x11 build/pic32mz_ef_sk/production/_ext/1164207549/tcpip_notify.o
 .debug_str     0x00002b94       0x13 build/pic32mz_ef_sk/production/_ext/1164207549/tcpip_packet.o
 .debug_str     0x00002ba7       0x1d build/pic32mz_ef_sk/production/_ext/1107379230/heap_1.o
 .debug_str     0x00002bc4       0x37 build/pic32mz_ef_sk/production/_ext/1282498061/port.o
 .debug_str     0x00002bfb        0x0 build/pic32mz_ef_sk/production/_ext/373060831/croutine.o
 .debug_str     0x00002bfb       0x2b build/pic32mz_ef_sk/production/_ext/373060831/list.o
 .debug_str     0x00002c26      0x131 build/pic32mz_ef_sk/production/_ext/373060831/queue.o
 .debug_str     0x00002d57      0x186 build/pic32mz_ef_sk/production/_ext/373060831/tasks.o
 .debug_str     0x00002edd        0x0 build/pic32mz_ef_sk/production/_ext/373060831/timers.o
 .debug_str     0x00002edd       0xe6 build/pic32mz_ef_sk/production/_ext/373060831/event_groups.o
 .debug_str     0x00002fc3       0x9b build/pic32mz_ef_sk/production/_ext/1360937237/websocket.o
 .debug_str     0x0000305e       0x17 build/pic32mz_ef_sk/production/_ext/1360937237/websocket_thread.o
 .debug_str     0x00003075       0x76 build/pic32mz_ef_sk/production/_ext/1164207549/icmp.o
 .debug_str     0x000030eb        0x0 c:/program files (x86)/microchip/xc32/v1.44/bin/bin/../../lib/gcc/pic32mx/4.8.3/fpu64\libgcc.a(_udivdi3.o)
 .debug_str     0x000030eb        0x0 c:/program files (x86)/microchip/xc32/v1.44/bin/bin/../../lib/gcc/pic32mx/4.8.3/../../../../pic32mx/lib/fpu64\libpic32.a(default-bootstrap-exception-handler.o)
 .debug_str     0x000030eb        0x0 c:/program files (x86)/microchip/xc32/v1.44/bin/bin/../../lib/gcc/pic32mx/4.8.3/../../../../pic32mx/lib/fpu64\libpic32.a(default-on-reset.o)
 .debug_str     0x000030eb        0x0 c:/program files (x86)/microchip/xc32/v1.44/bin/bin/../../lib/gcc/pic32mx/4.8.3/../../../../pic32mx/lib/fpu64\libpic32.a(default-on-bootstrap.o)
 .debug_str     0x000030eb        0x0 c:/program files (x86)/microchip/xc32/v1.44/bin/bin/../../lib/gcc/pic32mx/4.8.3/../../../../pic32mx/lib/fpu64\libpic32.a(defaultinterrupt.o)
 .debug_str     0x000030eb        0x0 c:/program files (x86)/microchip/xc32/v1.44/bin/bin/../../lib/gcc/pic32mx/4.8.3/../../../../pic32mx/lib/fpu64\libpic32.a(default-cache-err-exception-handler.o)
 .debug_str     0x000030eb        0x0 c:/program files (x86)/microchip/xc32/v1.44/bin/bin/../../lib/gcc/pic32mx/4.8.3/../../../../pic32mx/lib/fpu64\libpic32.a(default-simple-tlb-refill-exception-handler.o)
 .debug_str     0x000030eb        0x0 c:/program files (x86)/microchip/xc32/v1.44/bin/bin/../../lib/gcc/pic32mx/4.8.3/../../../../pic32mx/lib/fpu64\libc.a(fassert.o)
 .debug_str     0x000030eb        0x0 c:/program files (x86)/microchip/xc32/v1.44/bin/bin/../../lib/gcc/pic32mx/4.8.3/../../../../pic32mx/lib/fpu64\libc.a(atoi.o)
 .debug_str     0x000030eb        0x0 c:/program files (x86)/microchip/xc32/v1.44/bin/bin/../../lib/gcc/pic32mx/4.8.3/../../../../pic32mx/lib/fpu64\libc.a(atol.o)
 .debug_str     0x000030eb        0x0 c:/program files (x86)/microchip/xc32/v1.44/bin/bin/../../lib/gcc/pic32mx/4.8.3/../../../../pic32mx/lib/fpu64\libc.a(calloc.o)
 .debug_str     0x000030eb        0x0 c:/program files (x86)/microchip/xc32/v1.44/bin/bin/../../lib/gcc/pic32mx/4.8.3/../../../../pic32mx/lib/fpu64\libc.a(ctype.o)
 .debug_str     0x000030eb        0x0 c:/program files (x86)/microchip/xc32/v1.44/bin/bin/../../lib/gcc/pic32mx/4.8.3/../../../../pic32mx/lib/fpu64\libc.a(ctypef.o)
 .debug_str     0x000030eb        0x0 c:/program files (x86)/microchip/xc32/v1.44/bin/bin/../../lib/gcc/pic32mx/4.8.3/../../../../pic32mx/lib/fpu64\libc.a(malloc.o)
 .debug_str     0x000030eb        0x0 c:/program files (x86)/microchip/xc32/v1.44/bin/bin/../../lib/gcc/pic32mx/4.8.3/../../../../pic32mx/lib/fpu64\libc.a(perror.o)
 .debug_str     0x000030eb        0x0 c:/program files (x86)/microchip/xc32/v1.44/bin/bin/../../lib/gcc/pic32mx/4.8.3/../../../../pic32mx/lib/fpu64\libc.a(rand.o)
 .debug_str     0x000030eb        0x0 c:/program files (x86)/microchip/xc32/v1.44/bin/bin/../../lib/gcc/pic32mx/4.8.3/../../../../pic32mx/lib/fpu64\libc.a(signal.o)
 .debug_str     0x000030eb        0x0 c:/program files (x86)/microchip/xc32/v1.44/bin/bin/../../lib/gcc/pic32mx/4.8.3/../../../../pic32mx/lib/fpu64\libc.a(strcat.o)
 .debug_str     0x000030eb        0x0 c:/program files (x86)/microchip/xc32/v1.44/bin/bin/../../lib/gcc/pic32mx/4.8.3/../../../../pic32mx/lib/fpu64\libc.a(strchr.o)
 .debug_str     0x000030eb        0x0 c:/program files (x86)/microchip/xc32/v1.44/bin/bin/../../lib/gcc/pic32mx/4.8.3/../../../../pic32mx/lib/fpu64\libc.a(strncat.o)
 .debug_str     0x000030eb        0x0 c:/program files (x86)/microchip/xc32/v1.44/bin/bin/../../lib/gcc/pic32mx/4.8.3/../../../../pic32mx/lib/fpu64\libc.a(strncmp.o)
 .debug_str     0x000030eb        0x0 c:/program files (x86)/microchip/xc32/v1.44/bin/bin/../../lib/gcc/pic32mx/4.8.3/../../../../pic32mx/lib/fpu64\libc.a(strncpy.o)
 .debug_str     0x000030eb        0x0 c:/program files (x86)/microchip/xc32/v1.44/bin/bin/../../lib/gcc/pic32mx/4.8.3/../../../../pic32mx/lib/fpu64\libc.a(strstr.o)
 .debug_str     0x000030eb        0x0 c:/program files (x86)/microchip/xc32/v1.44/bin/bin/../../lib/gcc/pic32mx/4.8.3/../../../../pic32mx/lib/fpu64\libc.a(strtol.o)
 .debug_str     0x000030eb        0x0 c:/program files (x86)/microchip/xc32/v1.44/bin/bin/../../lib/gcc/pic32mx/4.8.3/../../../../pic32mx/lib/fpu64\libc.a(sys_err.o)
 .debug_str     0x000030eb        0x0 c:/program files (x86)/microchip/xc32/v1.44/bin/bin/../../lib/gcc/pic32mx/4.8.3/../../../../pic32mx/lib/fpu64\libc.a(exit.o)
 .debug_str     0x000030eb        0x0 c:/program files (x86)/microchip/xc32/v1.44/bin/bin/../../lib/gcc/pic32mx/4.8.3/../../../../pic32mx/lib/fpu64\libc.a(stdclean_simple.o)
 .debug_str     0x000030eb        0x0 c:/program files (x86)/microchip/xc32/v1.44/bin/bin/../../lib/gcc/pic32mx/4.8.3/../../../../pic32mx/lib/fpu64\libc.a(fprintf_cdnopsuxX.eo)
 .debug_str     0x000030eb        0x0 c:/program files (x86)/microchip/xc32/v1.44/bin/bin/../../lib/gcc/pic32mx/4.8.3/../../../../pic32mx/lib/fpu64\libc.a(snprintf_cdnopsuxX.eo)
 .debug_str     0x000030eb        0x0 c:/program files (x86)/microchip/xc32/v1.44/bin/bin/../../lib/gcc/pic32mx/4.8.3/../../../../pic32mx/lib/fpu64\libc.a(sprintf_cdnopsuxX.eo)
 .debug_str     0x000030eb        0x0 c:/program files (x86)/microchip/xc32/v1.44/bin/bin/../../lib/gcc/pic32mx/4.8.3/../../../../pic32mx/lib/fpu64\libc.a(sscanf_s.eo)
 .debug_str     0x000030eb        0x0 c:/program files (x86)/microchip/xc32/v1.44/bin/bin/../../lib/gcc/pic32mx/4.8.3/../../../../pic32mx/lib/fpu64\libc.a(vsnprintf_cdnopsuxX.eo)
 .debug_str     0x000030eb        0x0 c:/program files (x86)/microchip/xc32/v1.44/bin/bin/../../lib/gcc/pic32mx/4.8.3/../../../../pic32mx/lib/fpu64\libc.a(vsnprintf.o)
 .debug_str     0x000030eb        0x0 c:/program files (x86)/microchip/xc32/v1.44/bin/bin/../../lib/gcc/pic32mx/4.8.3/../../../../pic32mx/lib/fpu64\libc.a(_iob.o)
 .debug_str     0x000030eb        0x0 c:/program files (x86)/microchip/xc32/v1.44/bin/bin/../../lib/gcc/pic32mx/4.8.3/../../../../pic32mx/lib/fpu64\libc.a(_fputc_simple.o)
 .debug_str     0x000030eb        0x0 c:/program files (x86)/microchip/xc32/v1.44/bin/bin/../../lib/gcc/pic32mx/4.8.3/../../../../pic32mx/lib/fpu64\libc.a(errno.o)
 .debug_str     0x000030eb        0x0 c:/program files (x86)/microchip/xc32/v1.44/bin/bin/../../lib/gcc/pic32mx/4.8.3/../../../../pic32mx/lib/fpu64\libc.a(doprnt_cdnopsuxX.eo)
 .debug_str     0x000030eb        0x0 c:/program files (x86)/microchip/xc32/v1.44/bin/bin/../../lib/gcc/pic32mx/4.8.3/../../../../pic32mx/lib/fpu64\libc.a(doprnt.o)
 .debug_str     0x000030eb        0x0 c:/program files (x86)/microchip/xc32/v1.44/bin/bin/../../lib/gcc/pic32mx/4.8.3/../../../../pic32mx/lib/fpu64\libc.a(doscan_s.eo)
 .debug_str     0x000030eb        0x0 c:/program files (x86)/microchip/xc32/v1.44/bin/bin/../../lib/gcc/pic32mx/4.8.3/../../../../pic32mx/lib/fpu64\libc.a(_flsbuf_simple.o)
 .debug_str     0x000030eb        0x0 c:/program files (x86)/microchip/xc32/v1.44/bin/bin/../../lib/gcc/pic32mx/4.8.3/../../../../pic32mx/lib/fpu64\libc.a(fgetc.o)
 .debug_str     0x000030eb        0x0 c:/program files (x86)/microchip/xc32/v1.44/bin/bin/../../lib/gcc/pic32mx/4.8.3/../../../../pic32mx/lib/fpu64\libc.a(ldpowers.o)
 .debug_str     0x000030eb        0x0 c:/program files (x86)/microchip/xc32/v1.44/bin/bin/../../lib/gcc/pic32mx/4.8.3/../../../../pic32mx/lib/fpu64\libc.a(ungetc.o)
 .debug_str     0x000030eb        0x0 c:/program files (x86)/microchip/xc32/v1.44/bin/bin/../../lib/gcc/pic32mx/4.8.3/../../../../pic32mx/lib/fpu64\libc.a(filbuf.o)
 .debug_str     0x000030eb        0x0 c:/program files (x86)/microchip/xc32/v1.44/bin/bin/../../lib/gcc/pic32mx/4.8.3/../../../../pic32mx/lib/fpu64\libc.a(fflush.o)
 .debug_str     0x000030eb        0x0 c:/program files (x86)/microchip/xc32/v1.44/bin/bin/../../lib/gcc/pic32mx/4.8.3/../../../../pic32mx/lib/fpu64\libmfd.a(s_frexp.o)
 .debug_str     0x000030eb        0x0 c:/program files (x86)/microchip/xc32/v1.44/bin/bin/../../lib/gcc/pic32mx/4.8.3/fpu64\libgcc.a(_cmpdi2.o)
 .debug_str     0x000030eb        0x0 c:/program files (x86)/microchip/xc32/v1.44/bin/bin/../../lib/gcc/pic32mx/4.8.3/fpu64\libgcc.a(_umoddi3.o)
 .debug_str     0x000030eb        0x0 c:/program files (x86)/microchip/xc32/v1.44/bin/bin/../../lib/gcc/pic32mx/4.8.3/../../../../pic32mx/lib/fpu64\libpic32.a(sbrk.o)
 .debug_str     0x000030eb        0x0 c:/program files (x86)/microchip/xc32/v1.44/bin/bin/../../lib/gcc/pic32mx/4.8.3/../../../../pic32mx/lib/fpu64\libpic32.a(read.o)
 .debug_str     0x000030eb        0x0 c:/program files (x86)/microchip/xc32/v1.44/bin/bin/../../lib/gcc/pic32mx/4.8.3/../../../../pic32mx/lib/fpu64\libpic32.a(write.o)
 .debug_str     0x000030eb        0x0 c:/program files (x86)/microchip/xc32/v1.44/bin/bin/../../lib/gcc/pic32mx/4.8.3/../../../../pic32mx/lib/fpu64\libpic32.a(xc32_uart.o)
 .debug_str     0x000030eb        0x0 c:/program files (x86)/microchip/xc32/v1.44/bin/bin/../../lib/gcc/pic32mx/4.8.3/../../../../pic32mx/lib/fpu64\libpic32.a(_mon_putc.o)

.debug_loc      0x00000000    0x8b7ee
 *.elf(.debug_loc)
 *(.debug_loc)
 .debug_loc     0x00000000      0x413 build/pic32mz_ef_sk/production/_ext/354129722/bsp.o
 .debug_loc     0x00000413       0xd7 build/pic32mz_ef_sk/production/_ext/571564127/sys_clk_pic32mz.o
 .debug_loc     0x000004ea       0xf0 build/pic32mz_ef_sk/production/_ext/1868830280/sys_devcon.o
 .debug_loc     0x000005da      0x3fd build/pic32mz_ef_sk/production/_ext/1868830280/sys_devcon_pic32mz.o
 .debug_loc     0x000009d7      0x7ce build/pic32mz_ef_sk/production/_ext/1009894383/sys_ports_static.o
 .debug_loc     0x000011a5       0x42 build/pic32mz_ef_sk/production/_ext/119080242/sys_reset.o
 .debug_loc     0x000011e7       0x21 build/pic32mz_ef_sk/production/_ext/849053718/system_init.o
 .debug_loc     0x00001208       0x7e build/pic32mz_ef_sk/production/_ext/849053718/system_interrupt.o
 .debug_loc     0x00001286       0x4a build/pic32mz_ef_sk/production/_ext/849053718/rtos_hooks.o
 .debug_loc     0x000012d0       0xed build/pic32mz_ef_sk/production/_ext/1360937237/app.o
 .debug_loc     0x000013bd       0x73 build/pic32mz_ef_sk/production/_ext/1360937237/streamer.o
 .debug_loc     0x00001430      0x584 build/pic32mz_ef_sk/production/_ext/1360937237/http_print.o
 .debug_loc     0x000019b4      0xe5d build/pic32mz_ef_sk/production/_ext/1360937237/custom_http_app.o
 .debug_loc     0x00002811      0x799 build/pic32mz_ef_sk/production/_ext/2046866571/adler32.o
 .debug_loc     0x00002faa      0x1a2 build/pic32mz_ef_sk/production/_ext/2046866571/compress.o
 .debug_loc     0x0000314c      0x875 build/pic32mz_ef_sk/production/_ext/2046866571/crc32.o
 .debug_loc     0x000039c1     0x1693 build/pic32mz_ef_sk/production/_ext/2046866571/deflate.o
 .debug_loc     0x00005054      0xf2e build/pic32mz_ef_sk/production/_ext/2046866571/infback.o
 .debug_loc     0x00005f82      0x705 build/pic32mz_ef_sk/production/_ext/2046866571/inffast.o
 .debug_loc     0x00006687     0x15ca build/pic32mz_ef_sk/production/_ext/2046866571/inflate.o
 .debug_loc     0x00007c51      0x726 build/pic32mz_ef_sk/production/_ext/2046866571/inftrees.o
 .debug_loc     0x00008377     0x14ed build/pic32mz_ef_sk/production/_ext/2046866571/trees.o
 .debug_loc     0x00009864       0xdb build/pic32mz_ef_sk/production/_ext/2046866571/uncompr.o
 .debug_loc     0x0000993f       0xc6 build/pic32mz_ef_sk/production/_ext/2046866571/zutil.o
 .debug_loc     0x00009a05      0x1f0 build/pic32mz_ef_sk/production/_ext/29024758/arc4.o
 .debug_loc     0x00009bf5     0x45d4 build/pic32mz_ef_sk/production/_ext/29024758/tfm.o
 .debug_loc     0x0000e1c9     0x44f2 build/pic32mz_ef_sk/production/_ext/29024758/des3.o
 .debug_loc     0x000126bb     0x21a4 build/pic32mz_ef_sk/production/_ext/29024758/md5.o
 .debug_loc     0x0001485f    0x2f96c build/pic32mz_ef_sk/production/_ext/29024758/sha.o
 .debug_loc     0x000441cb      0xf90 build/pic32mz_ef_sk/production/_ext/29024758/sha256.o
 .debug_loc     0x0004515b      0x801 build/pic32mz_ef_sk/production/_ext/29024758/hmac.o
 .debug_loc     0x0004595c      0x8c3 build/pic32mz_ef_sk/production/_ext/29024758/hash.o
 .debug_loc     0x0004621f      0xb1a build/pic32mz_ef_sk/production/_ext/29024758/crypto.o
 .debug_loc     0x00046d39     0x1070 build/pic32mz_ef_sk/production/_ext/29024758/coding.o
 .debug_loc     0x00047da9       0x7c build/pic32mz_ef_sk/production/_ext/29024758/error.o
 .debug_loc     0x00047e25      0x173 build/pic32mz_ef_sk/production/_ext/29024758/memory.o
 .debug_loc     0x00047f98       0x42 build/pic32mz_ef_sk/production/_ext/29024758/wolfmath.o
 .debug_loc     0x00047fda     0x313f build/pic32mz_ef_sk/production/_ext/1697634946/drv_ethmac.o
 .debug_loc     0x0004b119     0x1cb2 build/pic32mz_ef_sk/production/_ext/1697634946/drv_ethmac_lib.o
 .debug_loc     0x0004cdcb     0x290e build/pic32mz_ef_sk/production/_ext/521481140/drv_ethphy.o
 .debug_loc     0x0004f6d9      0x268 build/pic32mz_ef_sk/production/_ext/521481140/drv_extphy_smsc8740.o
 .debug_loc     0x0004f941     0x2175 build/pic32mz_ef_sk/production/_ext/1470245908/drv_miim.o
 .debug_loc     0x00051ab6     0x10bb build/pic32mz_ef_sk/production/_ext/184581597/drv_nvm.o
 .debug_loc     0x00052b71      0x282 build/pic32mz_ef_sk/production/_ext/184581597/drv_nvm_erasewrite.o
 .debug_loc     0x00052df3     0x18f0 build/pic32mz_ef_sk/production/_ext/941160041/drv_tmr.o
 .debug_loc     0x000546e3     0x1cac build/pic32mz_ef_sk/production/_ext/821589181/drv_usart.o
 .debug_loc     0x0005638f      0xc4b build/pic32mz_ef_sk/production/_ext/821589181/drv_usart_buffer_queue.o
 .debug_loc     0x00056fda      0x54f build/pic32mz_ef_sk/production/_ext/821589181/drv_usart_read_write.o
 .debug_loc     0x00057529     0x14b6 build/pic32mz_ef_sk/production/_ext/871719959/net_pres.o
 .debug_loc     0x000589df      0x3e6 build/pic32mz_ef_sk/production/_ext/308321468/osal_freertos.o
 .debug_loc     0x00058dc5     0x107a build/pic32mz_ef_sk/production/_ext/1891376032/sys_command.o
 .debug_loc     0x00059e3f      0x118 build/pic32mz_ef_sk/production/_ext/598853952/sys_buffer.o
 .debug_loc     0x00059f57      0x149 build/pic32mz_ef_sk/production/_ext/598853952/sys_queue.o
 .debug_loc     0x0005a0a0      0x390 build/pic32mz_ef_sk/production/_ext/1434663852/sys_console.o
 .debug_loc     0x0005a430      0x29d build/pic32mz_ef_sk/production/_ext/1434663852/sys_console_uart.o
 .debug_loc     0x0005a6cd       0xe3 build/pic32mz_ef_sk/production/_ext/2137108136/sys_debug.o
 .debug_loc     0x0005a7b0     0x1ef9 build/pic32mz_ef_sk/production/_ext/1750042194/sys_fs.o
 .debug_loc     0x0005c6a9      0xcf1 build/pic32mz_ef_sk/production/_ext/1750042194/sys_fs_media_manager.o
 .debug_loc     0x0005d39a      0xc5d build/pic32mz_ef_sk/production/_ext/614935175/mpfs.o
 .debug_loc     0x0005dff7       0x7c build/pic32mz_ef_sk/production/_ext/1042686532/sys_int_pic32.o
 .debug_loc     0x0005e073       0x90 build/pic32mz_ef_sk/production/_ext/470001640/sys_random.o
 .debug_loc     0x0005e103      0xa4f build/pic32mz_ef_sk/production/_ext/2110151058/sys_tmr.o
 .debug_loc     0x0005eb52      0x1e3 build/pic32mz_ef_sk/production/_ext/1886247299/sys_fs_wrapper.o
 .debug_loc     0x0005ed35      0x2ff build/pic32mz_ef_sk/production/_ext/1886247299/helpers.o
 .debug_loc     0x0005f034     0x1915 build/pic32mz_ef_sk/production/_ext/1164207549/ipv4.o
 .debug_loc     0x00060949     0x1993 build/pic32mz_ef_sk/production/_ext/1164207549/ndp.o
 .debug_loc     0x000622dc     0x4c27 build/pic32mz_ef_sk/production/_ext/1164207549/ipv6.o
 .debug_loc     0x00066f03     0x13fe build/pic32mz_ef_sk/production/_ext/1164207549/icmpv6.o
 .debug_loc     0x00068301     0x5796 build/pic32mz_ef_sk/production/_ext/1164207549/tcp.o
 .debug_loc     0x0006da97     0x3dfb build/pic32mz_ef_sk/production/_ext/1164207549/udp.o
 .debug_loc     0x00071892      0x29e build/pic32mz_ef_sk/production/_ext/1164207549/tcpip_heap_alloc.o
 .debug_loc     0x00071b30      0x763 build/pic32mz_ef_sk/production/_ext/1164207549/tcpip_heap_internal.o
 .debug_loc     0x00072293     0x1f61 build/pic32mz_ef_sk/production/_ext/1164207549/arp.o
 .debug_loc     0x000741f4     0x250b build/pic32mz_ef_sk/production/_ext/1164207549/dhcp.o
 .debug_loc     0x000766ff     0x2295 build/pic32mz_ef_sk/production/_ext/1164207549/dns.o
 .debug_loc     0x00078994     0x1743 build/pic32mz_ef_sk/production/_ext/1164207549/http.o
 .debug_loc     0x0007a0d7      0x440 build/pic32mz_ef_sk/production/_ext/1164207549/nbns.o
 .debug_loc     0x0007a517      0x6f6 build/pic32mz_ef_sk/production/_ext/1164207549/smtp.o
 .debug_loc     0x0007ac0d      0x752 build/pic32mz_ef_sk/production/_ext/1164207549/sntp.o
 .debug_loc     0x0007b35f       0xc9 build/pic32mz_ef_sk/production/_ext/1164207549/zero_conf_helper.o
 .debug_loc     0x0007b428      0x850 build/pic32mz_ef_sk/production/_ext/1164207549/zero_conf_link_local.o
 .debug_loc     0x0007bc78      0x9ae build/pic32mz_ef_sk/production/_ext/1164207549/tcpip_announce.o
 .debug_loc     0x0007c626     0x2470 build/pic32mz_ef_sk/production/_ext/1164207549/tcpip_commands.o
 .debug_loc     0x0007ea96      0x137 build/pic32mz_ef_sk/production/_ext/1164207549/hash_fnv.o
 .debug_loc     0x0007ebcd      0x2b1 build/pic32mz_ef_sk/production/_ext/1164207549/oahash.o
 .debug_loc     0x0007ee7e     0x22b0 build/pic32mz_ef_sk/production/_ext/1164207549/tcpip_helpers.o
 .debug_loc     0x0008112e     0x3ab4 build/pic32mz_ef_sk/production/_ext/1164207549/tcpip_manager.o
 .debug_loc     0x00084be2      0x27a build/pic32mz_ef_sk/production/_ext/1164207549/tcpip_notify.o
 .debug_loc     0x00084e5c      0x8db build/pic32mz_ef_sk/production/_ext/1164207549/tcpip_packet.o
 .debug_loc     0x00085737       0x49 build/pic32mz_ef_sk/production/_ext/1107379230/heap_1.o
 .debug_loc     0x00085780      0x10d build/pic32mz_ef_sk/production/_ext/1282498061/port.o
 .debug_loc     0x0008588d       0x31 build/pic32mz_ef_sk/production/_ext/373060831/list.o
 .debug_loc     0x000858be      0xea5 build/pic32mz_ef_sk/production/_ext/373060831/queue.o
 .debug_loc     0x00086763     0x1492 build/pic32mz_ef_sk/production/_ext/373060831/tasks.o
 .debug_loc     0x00087bf5      0x8ea build/pic32mz_ef_sk/production/_ext/373060831/event_groups.o
 .debug_loc     0x000884df     0x12f0 build/pic32mz_ef_sk/production/_ext/1360937237/websocket.o
 .debug_loc     0x000897cf      0x455 build/pic32mz_ef_sk/production/_ext/1360937237/websocket_thread.o
 .debug_loc     0x00089c24      0x59e build/pic32mz_ef_sk/production/_ext/1164207549/icmp.o
 .debug_loc     0x0008a1c2      0xa6a c:/program files (x86)/microchip/xc32/v1.44/bin/bin/../../lib/gcc/pic32mx/4.8.3/fpu64\libgcc.a(_udivdi3.o)
 .debug_loc     0x0008ac2c       0x2c c:/program files (x86)/microchip/xc32/v1.44/bin/bin/../../lib/gcc/pic32mx/4.8.3/../../../../pic32mx/lib/fpu64\libpic32.a(default-bootstrap-exception-handler.o)
 .debug_loc     0x0008ac58       0x2c c:/program files (x86)/microchip/xc32/v1.44/bin/bin/../../lib/gcc/pic32mx/4.8.3/../../../../pic32mx/lib/fpu64\libpic32.a(default-cache-err-exception-handler.o)
 .debug_loc     0x0008ac84       0x2c c:/program files (x86)/microchip/xc32/v1.44/bin/bin/../../lib/gcc/pic32mx/4.8.3/../../../../pic32mx/lib/fpu64\libpic32.a(default-simple-tlb-refill-exception-handler.o)
 .debug_loc     0x0008acb0       0x29 c:/program files (x86)/microchip/xc32/v1.44/bin/bin/../../lib/gcc/pic32mx/4.8.3/fpu64\libgcc.a(_cmpdi2.o)
 .debug_loc     0x0008acd9      0xa3d c:/program files (x86)/microchip/xc32/v1.44/bin/bin/../../lib/gcc/pic32mx/4.8.3/fpu64\libgcc.a(_umoddi3.o)
 .debug_loc     0x0008b716       0x60 c:/program files (x86)/microchip/xc32/v1.44/bin/bin/../../lib/gcc/pic32mx/4.8.3/../../../../pic32mx/lib/fpu64\libpic32.a(sbrk.o)
 .debug_loc     0x0008b776       0x20 c:/program files (x86)/microchip/xc32/v1.44/bin/bin/../../lib/gcc/pic32mx/4.8.3/../../../../pic32mx/lib/fpu64\libpic32.a(read.o)
 .debug_loc     0x0008b796       0x38 c:/program files (x86)/microchip/xc32/v1.44/bin/bin/../../lib/gcc/pic32mx/4.8.3/../../../../pic32mx/lib/fpu64\libpic32.a(write.o)
 .debug_loc     0x0008b7ce       0x20 c:/program files (x86)/microchip/xc32/v1.44/bin/bin/../../lib/gcc/pic32mx/4.8.3/../../../../pic32mx/lib/fpu64\libpic32.a(_mon_putc.o)

.debug_macinfo
 *.elf(.debug_macinfo)
 *(.debug_macinfo)

.debug_weaknames
 *.elf(.debug_weaknames)
 *(.debug_weaknames)

.debug_funcnames
 *.elf(.debug_funcnames)
 *(.debug_funcnames)

.debug_typenames
 *.elf(.debug_typenames)
 *(.debug_typenames)

.debug_varnames
 *.elf(.debug_varnames)
 *(.debug_varnames)

.debug_pubtypes
 *.elf(.debug_pubtypes)
 *(.debug_pubtypes)

.debug_ranges   0x00000000     0x7058
 *.elf(.debug_ranges)
 *(.debug_ranges)
 .debug_ranges  0x00000000       0x58 build/pic32mz_ef_sk/production/_ext/354129722/bsp.o
 .debug_ranges  0x00000058       0x40 build/pic32mz_ef_sk/production/_ext/571564127/sys_clk_pic32mz.o
 .debug_ranges  0x00000098       0x68 build/pic32mz_ef_sk/production/_ext/1868830280/sys_devcon.o
 .debug_ranges  0x00000100       0xd8 build/pic32mz_ef_sk/production/_ext/1868830280/sys_devcon_pic32mz.o
 .debug_ranges  0x000001d8      0x138 build/pic32mz_ef_sk/production/_ext/1009894383/sys_ports_static.o
 .debug_ranges  0x00000310       0x28 build/pic32mz_ef_sk/production/_ext/119080242/sys_reset.o
 .debug_ranges  0x00000338       0x18 build/pic32mz_ef_sk/production/_ext/849053718/system_init.o
 .debug_ranges  0x00000350       0x40 build/pic32mz_ef_sk/production/_ext/849053718/system_interrupt.o
 .debug_ranges  0x00000390       0x10 build/pic32mz_ef_sk/production/_ext/849053718/system_exceptions.o
 .debug_ranges  0x000003a0       0x38 build/pic32mz_ef_sk/production/_ext/849053718/system_tasks.o
 .debug_ranges  0x000003d8       0x40 build/pic32mz_ef_sk/production/_ext/849053718/system_interrupt_a.o
 .debug_ranges  0x00000418       0x18 build/pic32mz_ef_sk/production/_ext/849053718/rtos_hooks.o
 .debug_ranges  0x00000430       0x18 build/pic32mz_ef_sk/production/_ext/1360937237/app.o
 .debug_ranges  0x00000448       0x10 build/pic32mz_ef_sk/production/_ext/1360937237/main.o
 .debug_ranges  0x00000458       0x18 build/pic32mz_ef_sk/production/_ext/1360937237/streamer.o
 .debug_ranges  0x00000470       0x18 build/pic32mz_ef_sk/production/_ext/1360937237/ws_server.o
 .debug_ranges  0x00000488       0x18 build/pic32mz_ef_sk/production/_ext/1360937237/http_print.o
 .debug_ranges  0x000004a0      0x230 build/pic32mz_ef_sk/production/_ext/1360937237/custom_http_app.o
 .debug_ranges  0x000006d0       0x28 build/pic32mz_ef_sk/production/_ext/2046866571/adler32.o
 .debug_ranges  0x000006f8       0x20 build/pic32mz_ef_sk/production/_ext/2046866571/compress.o
 .debug_ranges  0x00000718       0x40 build/pic32mz_ef_sk/production/_ext/2046866571/crc32.o
 .debug_ranges  0x00000758      0x260 build/pic32mz_ef_sk/production/_ext/2046866571/deflate.o
 .debug_ranges  0x000009b8       0x20 build/pic32mz_ef_sk/production/_ext/2046866571/infback.o
 .debug_ranges  0x000009d8       0x10 build/pic32mz_ef_sk/production/_ext/2046866571/inffast.o
 .debug_ranges  0x000009e8       0x90 build/pic32mz_ef_sk/production/_ext/2046866571/inflate.o
 .debug_ranges  0x00000a78       0x10 build/pic32mz_ef_sk/production/_ext/2046866571/inftrees.o
 .debug_ranges  0x00000a88      0x170 build/pic32mz_ef_sk/production/_ext/2046866571/trees.o
 .debug_ranges  0x00000bf8       0x10 build/pic32mz_ef_sk/production/_ext/2046866571/uncompr.o
 .debug_ranges  0x00000c08       0x30 build/pic32mz_ef_sk/production/_ext/2046866571/zutil.o
 .debug_ranges  0x00000c38       0x28 build/pic32mz_ef_sk/production/_ext/29024758/arc4.o
 .debug_ranges  0x00000c60      0x390 build/pic32mz_ef_sk/production/_ext/29024758/tfm.o
 .debug_ranges  0x00000ff0      0x160 build/pic32mz_ef_sk/production/_ext/29024758/des3.o
 .debug_ranges  0x00001150       0x48 build/pic32mz_ef_sk/production/_ext/29024758/md5.o
 .debug_ranges  0x00001198       0xc0 build/pic32mz_ef_sk/production/_ext/29024758/sha.o
 .debug_ranges  0x00001258       0xc0 build/pic32mz_ef_sk/production/_ext/29024758/sha256.o
 .debug_ranges  0x00001318       0x78 build/pic32mz_ef_sk/production/_ext/29024758/hmac.o
 .debug_ranges  0x00001390       0x50 build/pic32mz_ef_sk/production/_ext/29024758/hash.o
 .debug_ranges  0x000013e0       0xc0 build/pic32mz_ef_sk/production/_ext/29024758/crypto.o
 .debug_ranges  0x000014a0       0xb0 build/pic32mz_ef_sk/production/_ext/29024758/coding.o
 .debug_ranges  0x00001550       0x18 build/pic32mz_ef_sk/production/_ext/29024758/error.o
 .debug_ranges  0x00001568       0x20 build/pic32mz_ef_sk/production/_ext/29024758/logging.o
 .debug_ranges  0x00001588       0x30 build/pic32mz_ef_sk/production/_ext/29024758/memory.o
 .debug_ranges  0x000015b8       0x40 build/pic32mz_ef_sk/production/_ext/29024758/wc_port.o
 .debug_ranges  0x000015f8       0x20 build/pic32mz_ef_sk/production/_ext/29024758/wolfmath.o
 .debug_ranges  0x00001618      0x268 build/pic32mz_ef_sk/production/_ext/1697634946/drv_ethmac.o
 .debug_ranges  0x00001880      0x3d8 build/pic32mz_ef_sk/production/_ext/1697634946/drv_ethmac_lib.o
 .debug_ranges  0x00001c58      0x298 build/pic32mz_ef_sk/production/_ext/521481140/drv_ethphy.o
 .debug_ranges  0x00001ef0       0x20 build/pic32mz_ef_sk/production/_ext/521481140/drv_extphy_smsc8740.o
 .debug_ranges  0x00001f10      0x2d0 build/pic32mz_ef_sk/production/_ext/1470245908/drv_miim.o
 .debug_ranges  0x000021e0       0xc0 build/pic32mz_ef_sk/production/_ext/184581597/drv_nvm.o
 .debug_ranges  0x000022a0       0x28 build/pic32mz_ef_sk/production/_ext/184581597/drv_nvm_erasewrite.o
 .debug_ranges  0x000022c8      0x240 build/pic32mz_ef_sk/production/_ext/941160041/drv_tmr.o
 .debug_ranges  0x00002508      0x170 build/pic32mz_ef_sk/production/_ext/821589181/drv_usart.o
 .debug_ranges  0x00002678       0x58 build/pic32mz_ef_sk/production/_ext/821589181/drv_usart_buffer_queue.o
 .debug_ranges  0x000026d0       0x48 build/pic32mz_ef_sk/production/_ext/821589181/drv_usart_read_write.o
 .debug_ranges  0x00002718      0x160 build/pic32mz_ef_sk/production/_ext/871719959/net_pres.o
 .debug_ranges  0x00002878       0x78 build/pic32mz_ef_sk/production/_ext/308321468/osal_freertos.o
 .debug_ranges  0x000028f0      0x1f8 build/pic32mz_ef_sk/production/_ext/1891376032/sys_command.o
 .debug_ranges  0x00002ae8       0x40 build/pic32mz_ef_sk/production/_ext/598853952/sys_buffer.o
 .debug_ranges  0x00002b28       0x28 build/pic32mz_ef_sk/production/_ext/598853952/sys_queue.o
 .debug_ranges  0x00002b50       0x50 build/pic32mz_ef_sk/production/_ext/1434663852/sys_console.o
 .debug_ranges  0x00002ba0       0x80 build/pic32mz_ef_sk/production/_ext/1434663852/sys_console_uart.o
 .debug_ranges  0x00002c20       0x50 build/pic32mz_ef_sk/production/_ext/2137108136/sys_debug.o
 .debug_ranges  0x00002c70      0x178 build/pic32mz_ef_sk/production/_ext/1750042194/sys_fs.o
 .debug_ranges  0x00002de8      0x130 build/pic32mz_ef_sk/production/_ext/1750042194/sys_fs_media_manager.o
 .debug_ranges  0x00002f18       0xa8 build/pic32mz_ef_sk/production/_ext/614935175/mpfs.o
 .debug_ranges  0x00002fc0       0x50 build/pic32mz_ef_sk/production/_ext/1042686532/sys_int_pic32.o
 .debug_ranges  0x00003010       0x28 build/pic32mz_ef_sk/production/_ext/470001640/sys_random.o
 .debug_ranges  0x00003038      0x100 build/pic32mz_ef_sk/production/_ext/2110151058/sys_tmr.o
 .debug_ranges  0x00003138       0x30 build/pic32mz_ef_sk/production/_ext/1886247299/sys_fs_wrapper.o
 .debug_ranges  0x00003168       0x30 build/pic32mz_ef_sk/production/_ext/1886247299/helpers.o
 .debug_ranges  0x00003198      0x1b0 build/pic32mz_ef_sk/production/_ext/1164207549/ipv4.o
 .debug_ranges  0x00003348      0x260 build/pic32mz_ef_sk/production/_ext/1164207549/ndp.o
 .debug_ranges  0x000035a8      0x4c8 build/pic32mz_ef_sk/production/_ext/1164207549/ipv6.o
 .debug_ranges  0x00003a70       0xc0 build/pic32mz_ef_sk/production/_ext/1164207549/icmpv6.o
 .debug_ranges  0x00003b30      0x580 build/pic32mz_ef_sk/production/_ext/1164207549/tcp.o
 .debug_ranges  0x000040b0      0x468 build/pic32mz_ef_sk/production/_ext/1164207549/udp.o
 .debug_ranges  0x00004518       0x38 build/pic32mz_ef_sk/production/_ext/1164207549/tcpip_heap_alloc.o
 .debug_ranges  0x00004550       0x50 build/pic32mz_ef_sk/production/_ext/1164207549/tcpip_heap_internal.o
 .debug_ranges  0x000045a0      0x1d0 build/pic32mz_ef_sk/production/_ext/1164207549/arp.o
 .debug_ranges  0x00004770      0x328 build/pic32mz_ef_sk/production/_ext/1164207549/dhcp.o
 .debug_ranges  0x00004a98      0x260 build/pic32mz_ef_sk/production/_ext/1164207549/dns.o
 .debug_ranges  0x00004cf8      0x2c8 build/pic32mz_ef_sk/production/_ext/1164207549/http.o
 .debug_ranges  0x00004fc0       0xb8 build/pic32mz_ef_sk/production/_ext/1164207549/nbns.o
 .debug_ranges  0x00005078      0x470 build/pic32mz_ef_sk/production/_ext/1164207549/smtp.o
 .debug_ranges  0x000054e8      0x198 build/pic32mz_ef_sk/production/_ext/1164207549/sntp.o
 .debug_ranges  0x00005680       0x10 build/pic32mz_ef_sk/production/_ext/1164207549/zero_conf_helper.o
 .debug_ranges  0x00005690      0x120 build/pic32mz_ef_sk/production/_ext/1164207549/zero_conf_link_local.o
 .debug_ranges  0x000057b0       0xe0 build/pic32mz_ef_sk/production/_ext/1164207549/tcpip_announce.o
 .debug_ranges  0x00005890      0x2e8 build/pic32mz_ef_sk/production/_ext/1164207549/tcpip_commands.o
 .debug_ranges  0x00005b78       0x18 build/pic32mz_ef_sk/production/_ext/1164207549/hash_fnv.o
 .debug_ranges  0x00005b90       0x58 build/pic32mz_ef_sk/production/_ext/1164207549/oahash.o
 .debug_ranges  0x00005be8      0x250 build/pic32mz_ef_sk/production/_ext/1164207549/tcpip_helpers.o
 .debug_ranges  0x00005e38      0x670 build/pic32mz_ef_sk/production/_ext/1164207549/tcpip_manager.o
 .debug_ranges  0x000064a8       0x30 build/pic32mz_ef_sk/production/_ext/1164207549/tcpip_notify.o
 .debug_ranges  0x000064d8       0x68 build/pic32mz_ef_sk/production/_ext/1164207549/tcpip_packet.o
 .debug_ranges  0x00006540       0x28 build/pic32mz_ef_sk/production/_ext/1107379230/heap_1.o
 .debug_ranges  0x00006568       0x48 build/pic32mz_ef_sk/production/_ext/1282498061/port.o
 .debug_ranges  0x000065b0       0x28 build/pic32mz_ef_sk/production/_ext/1282498061/port_asm.o
 .debug_ranges  0x000065d8       0x30 build/pic32mz_ef_sk/production/_ext/373060831/list.o
 .debug_ranges  0x00006608      0x130 build/pic32mz_ef_sk/production/_ext/373060831/queue.o
 .debug_ranges  0x00006738      0x1b0 build/pic32mz_ef_sk/production/_ext/373060831/tasks.o
 .debug_ranges  0x000068e8       0x98 build/pic32mz_ef_sk/production/_ext/373060831/event_groups.o
 .debug_ranges  0x00006980       0x98 build/pic32mz_ef_sk/production/_ext/1360937237/websocket.o
 .debug_ranges  0x00006a18       0x40 build/pic32mz_ef_sk/production/_ext/1360937237/websocket_thread.o
 .debug_ranges  0x00006a58       0xd0 build/pic32mz_ef_sk/production/_ext/1164207549/icmp.o
 .debug_ranges  0x00006b28       0x98 c:/program files (x86)/microchip/xc32/v1.44/bin/bin/../../lib/gcc/pic32mx/4.8.3/fpu64\libgcc.a(_udivdi3.o)
 .debug_ranges  0x00006bc0       0x10 c:/program files (x86)/microchip/xc32/v1.44/bin/bin/../../lib/gcc/pic32mx/4.8.3/../../../../pic32mx/lib/fpu64\libpic32.a(default-bootstrap-exception-handler.o)
 .debug_ranges  0x00006bd0       0x10 c:/program files (x86)/microchip/xc32/v1.44/bin/bin/../../lib/gcc/pic32mx/4.8.3/../../../../pic32mx/lib/fpu64\libpic32.a(default-on-reset.o)
 .debug_ranges  0x00006be0       0x10 c:/program files (x86)/microchip/xc32/v1.44/bin/bin/../../lib/gcc/pic32mx/4.8.3/../../../../pic32mx/lib/fpu64\libpic32.a(default-on-bootstrap.o)
 .debug_ranges  0x00006bf0       0x10 c:/program files (x86)/microchip/xc32/v1.44/bin/bin/../../lib/gcc/pic32mx/4.8.3/../../../../pic32mx/lib/fpu64\libpic32.a(defaultinterrupt.o)
 .debug_ranges  0x00006c00       0x10 c:/program files (x86)/microchip/xc32/v1.44/bin/bin/../../lib/gcc/pic32mx/4.8.3/../../../../pic32mx/lib/fpu64\libpic32.a(default-cache-err-exception-handler.o)
 .debug_ranges  0x00006c10       0x10 c:/program files (x86)/microchip/xc32/v1.44/bin/bin/../../lib/gcc/pic32mx/4.8.3/../../../../pic32mx/lib/fpu64\libpic32.a(default-simple-tlb-refill-exception-handler.o)
 .debug_ranges  0x00006c20       0x10 c:/program files (x86)/microchip/xc32/v1.44/bin/bin/../../lib/gcc/pic32mx/4.8.3/../../../../pic32mx/lib/fpu64\libc.a(fassert.o)
 .debug_ranges  0x00006c30       0x10 c:/program files (x86)/microchip/xc32/v1.44/bin/bin/../../lib/gcc/pic32mx/4.8.3/../../../../pic32mx/lib/fpu64\libc.a(atoi.o)
 .debug_ranges  0x00006c40       0x10 c:/program files (x86)/microchip/xc32/v1.44/bin/bin/../../lib/gcc/pic32mx/4.8.3/../../../../pic32mx/lib/fpu64\libc.a(atol.o)
 .debug_ranges  0x00006c50       0x10 c:/program files (x86)/microchip/xc32/v1.44/bin/bin/../../lib/gcc/pic32mx/4.8.3/../../../../pic32mx/lib/fpu64\libc.a(calloc.o)
 .debug_ranges  0x00006c60       0x90 c:/program files (x86)/microchip/xc32/v1.44/bin/bin/../../lib/gcc/pic32mx/4.8.3/../../../../pic32mx/lib/fpu64\libc.a(ctypef.o)
 .debug_ranges  0x00006cf0       0x20 c:/program files (x86)/microchip/xc32/v1.44/bin/bin/../../lib/gcc/pic32mx/4.8.3/../../../../pic32mx/lib/fpu64\libc.a(malloc.o)
 .debug_ranges  0x00006d10       0x10 c:/program files (x86)/microchip/xc32/v1.44/bin/bin/../../lib/gcc/pic32mx/4.8.3/../../../../pic32mx/lib/fpu64\libc.a(perror.o)
 .debug_ranges  0x00006d20       0x18 c:/program files (x86)/microchip/xc32/v1.44/bin/bin/../../lib/gcc/pic32mx/4.8.3/../../../../pic32mx/lib/fpu64\libc.a(rand.o)
 .debug_ranges  0x00006d38       0x20 c:/program files (x86)/microchip/xc32/v1.44/bin/bin/../../lib/gcc/pic32mx/4.8.3/../../../../pic32mx/lib/fpu64\libc.a(signal.o)
 .debug_ranges  0x00006d58       0x10 c:/program files (x86)/microchip/xc32/v1.44/bin/bin/../../lib/gcc/pic32mx/4.8.3/../../../../pic32mx/lib/fpu64\libc.a(strcat.o)
 .debug_ranges  0x00006d68       0x10 c:/program files (x86)/microchip/xc32/v1.44/bin/bin/../../lib/gcc/pic32mx/4.8.3/../../../../pic32mx/lib/fpu64\libc.a(strchr.o)
 .debug_ranges  0x00006d78       0x10 c:/program files (x86)/microchip/xc32/v1.44/bin/bin/../../lib/gcc/pic32mx/4.8.3/../../../../pic32mx/lib/fpu64\libc.a(strncat.o)
 .debug_ranges  0x00006d88       0x10 c:/program files (x86)/microchip/xc32/v1.44/bin/bin/../../lib/gcc/pic32mx/4.8.3/../../../../pic32mx/lib/fpu64\libc.a(strncmp.o)
 .debug_ranges  0x00006d98       0x10 c:/program files (x86)/microchip/xc32/v1.44/bin/bin/../../lib/gcc/pic32mx/4.8.3/../../../../pic32mx/lib/fpu64\libc.a(strncpy.o)
 .debug_ranges  0x00006da8       0x10 c:/program files (x86)/microchip/xc32/v1.44/bin/bin/../../lib/gcc/pic32mx/4.8.3/../../../../pic32mx/lib/fpu64\libc.a(strstr.o)
 .debug_ranges  0x00006db8       0x18 c:/program files (x86)/microchip/xc32/v1.44/bin/bin/../../lib/gcc/pic32mx/4.8.3/../../../../pic32mx/lib/fpu64\libc.a(strtol.o)
 .debug_ranges  0x00006dd0       0x10 c:/program files (x86)/microchip/xc32/v1.44/bin/bin/../../lib/gcc/pic32mx/4.8.3/../../../../pic32mx/lib/fpu64\libc.a(sys_err.o)
 .debug_ranges  0x00006de0       0x10 c:/program files (x86)/microchip/xc32/v1.44/bin/bin/../../lib/gcc/pic32mx/4.8.3/../../../../pic32mx/lib/fpu64\libc.a(exit.o)
 .debug_ranges  0x00006df0       0x10 c:/program files (x86)/microchip/xc32/v1.44/bin/bin/../../lib/gcc/pic32mx/4.8.3/../../../../pic32mx/lib/fpu64\libc.a(stdclean_simple.o)
 .debug_ranges  0x00006e00       0x10 c:/program files (x86)/microchip/xc32/v1.44/bin/bin/../../lib/gcc/pic32mx/4.8.3/../../../../pic32mx/lib/fpu64\libc.a(fprintf_cdnopsuxX.eo)
 .debug_ranges  0x00006e10       0x10 c:/program files (x86)/microchip/xc32/v1.44/bin/bin/../../lib/gcc/pic32mx/4.8.3/../../../../pic32mx/lib/fpu64\libc.a(snprintf_cdnopsuxX.eo)
 .debug_ranges  0x00006e20       0x10 c:/program files (x86)/microchip/xc32/v1.44/bin/bin/../../lib/gcc/pic32mx/4.8.3/../../../../pic32mx/lib/fpu64\libc.a(sprintf_cdnopsuxX.eo)
 .debug_ranges  0x00006e30       0x10 c:/program files (x86)/microchip/xc32/v1.44/bin/bin/../../lib/gcc/pic32mx/4.8.3/../../../../pic32mx/lib/fpu64\libc.a(sscanf_s.eo)
 .debug_ranges  0x00006e40       0x10 c:/program files (x86)/microchip/xc32/v1.44/bin/bin/../../lib/gcc/pic32mx/4.8.3/../../../../pic32mx/lib/fpu64\libc.a(vsnprintf_cdnopsuxX.eo)
 .debug_ranges  0x00006e50       0x10 c:/program files (x86)/microchip/xc32/v1.44/bin/bin/../../lib/gcc/pic32mx/4.8.3/../../../../pic32mx/lib/fpu64\libc.a(vsnprintf.o)
 .debug_ranges  0x00006e60       0x10 c:/program files (x86)/microchip/xc32/v1.44/bin/bin/../../lib/gcc/pic32mx/4.8.3/../../../../pic32mx/lib/fpu64\libc.a(_fputc_simple.o)
 .debug_ranges  0x00006e70       0x10 c:/program files (x86)/microchip/xc32/v1.44/bin/bin/../../lib/gcc/pic32mx/4.8.3/../../../../pic32mx/lib/fpu64\libc.a(doprnt_cdnopsuxX.eo)
 .debug_ranges  0x00006e80       0x20 c:/program files (x86)/microchip/xc32/v1.44/bin/bin/../../lib/gcc/pic32mx/4.8.3/../../../../pic32mx/lib/fpu64\libc.a(doprnt.o)
 .debug_ranges  0x00006ea0       0x20 c:/program files (x86)/microchip/xc32/v1.44/bin/bin/../../lib/gcc/pic32mx/4.8.3/../../../../pic32mx/lib/fpu64\libc.a(doscan_s.eo)
 .debug_ranges  0x00006ec0       0x10 c:/program files (x86)/microchip/xc32/v1.44/bin/bin/../../lib/gcc/pic32mx/4.8.3/../../../../pic32mx/lib/fpu64\libc.a(_flsbuf_simple.o)
 .debug_ranges  0x00006ed0       0x10 c:/program files (x86)/microchip/xc32/v1.44/bin/bin/../../lib/gcc/pic32mx/4.8.3/../../../../pic32mx/lib/fpu64\libc.a(fgetc.o)
 .debug_ranges  0x00006ee0       0x10 c:/program files (x86)/microchip/xc32/v1.44/bin/bin/../../lib/gcc/pic32mx/4.8.3/../../../../pic32mx/lib/fpu64\libc.a(ungetc.o)
 .debug_ranges  0x00006ef0       0x10 c:/program files (x86)/microchip/xc32/v1.44/bin/bin/../../lib/gcc/pic32mx/4.8.3/../../../../pic32mx/lib/fpu64\libc.a(filbuf.o)
 .debug_ranges  0x00006f00       0x10 c:/program files (x86)/microchip/xc32/v1.44/bin/bin/../../lib/gcc/pic32mx/4.8.3/../../../../pic32mx/lib/fpu64\libc.a(fflush.o)
 .debug_ranges  0x00006f10       0x10 c:/program files (x86)/microchip/xc32/v1.44/bin/bin/../../lib/gcc/pic32mx/4.8.3/../../../../pic32mx/lib/fpu64\libmfd.a(s_frexp.o)
 .debug_ranges  0x00006f20       0xd8 c:/program files (x86)/microchip/xc32/v1.44/bin/bin/../../lib/gcc/pic32mx/4.8.3/fpu64\libgcc.a(_umoddi3.o)
 .debug_ranges  0x00006ff8       0x30 c:/program files (x86)/microchip/xc32/v1.44/bin/bin/../../lib/gcc/pic32mx/4.8.3/../../../../pic32mx/lib/fpu64\libpic32.a(sbrk.o)
 .debug_ranges  0x00007028       0x10 c:/program files (x86)/microchip/xc32/v1.44/bin/bin/../../lib/gcc/pic32mx/4.8.3/../../../../pic32mx/lib/fpu64\libpic32.a(read.o)
 .debug_ranges  0x00007038       0x10 c:/program files (x86)/microchip/xc32/v1.44/bin/bin/../../lib/gcc/pic32mx/4.8.3/../../../../pic32mx/lib/fpu64\libpic32.a(write.o)
 .debug_ranges  0x00007048       0x10 c:/program files (x86)/microchip/xc32/v1.44/bin/bin/../../lib/gcc/pic32mx/4.8.3/../../../../pic32mx/lib/fpu64\libpic32.a(_mon_putc.o)

.gnu.attributes
                0x00000000       0x10
 *(.gnu.attributes)
 .gnu.attributes
                0x00000000       0x10 build/pic32mz_ef_sk/production/_ext/29024758/misc.o
 .gnu.attributes
                0x00000010       0x10 build/pic32mz_ef_sk/production/_ext/354129722/bsp.o
 .gnu.attributes
                0x00000020       0x10 build/pic32mz_ef_sk/production/_ext/854288108/net_pres_enc_glue.o
 .gnu.attributes
                0x00000030       0x10 build/pic32mz_ef_sk/production/_ext/571564127/sys_clk_pic32mz.o
 .gnu.attributes
                0x00000040       0x10 build/pic32mz_ef_sk/production/_ext/1868830280/sys_devcon.o
 .gnu.attributes
                0x00000050       0x10 build/pic32mz_ef_sk/production/_ext/1868830280/sys_devcon_pic32mz.o
 .gnu.attributes
                0x00000060       0x10 build/pic32mz_ef_sk/production/_ext/1009894383/sys_ports_static.o
 .gnu.attributes
                0x00000070       0x10 build/pic32mz_ef_sk/production/_ext/119080242/sys_reset.o
 .gnu.attributes
                0x00000080       0x10 build/pic32mz_ef_sk/production/_ext/849053718/system_init.o
 .gnu.attributes
                0x00000090       0x10 build/pic32mz_ef_sk/production/_ext/849053718/system_interrupt.o
 .gnu.attributes
                0x000000a0       0x10 build/pic32mz_ef_sk/production/_ext/849053718/system_exceptions.o
 .gnu.attributes
                0x000000b0       0x10 build/pic32mz_ef_sk/production/_ext/849053718/system_tasks.o
 .gnu.attributes
                0x000000c0       0x10 build/pic32mz_ef_sk/production/_ext/849053718/rtos_hooks.o
 .gnu.attributes
                0x000000d0       0x10 build/pic32mz_ef_sk/production/_ext/1360937237/app.o
 .gnu.attributes
                0x000000e0       0x10 build/pic32mz_ef_sk/production/_ext/1360937237/main.o
 .gnu.attributes
                0x000000f0       0x10 build/pic32mz_ef_sk/production/_ext/1360937237/streamer.o
 .gnu.attributes
                0x00000100       0x10 build/pic32mz_ef_sk/production/_ext/1360937237/ws_server.o
 .gnu.attributes
                0x00000110       0x10 build/pic32mz_ef_sk/production/_ext/1360937237/http_print.o
 .gnu.attributes
                0x00000120       0x10 build/pic32mz_ef_sk/production/_ext/1360937237/custom_http_app.o
 .gnu.attributes
                0x00000130       0x10 build/pic32mz_ef_sk/production/_ext/1360937237/mpfs_img2.o
 .gnu.attributes
                0x00000140       0x10 build/pic32mz_ef_sk/production/_ext/2046866571/adler32.o
 .gnu.attributes
                0x00000150       0x10 build/pic32mz_ef_sk/production/_ext/2046866571/compress.o
 .gnu.attributes
                0x00000160       0x10 build/pic32mz_ef_sk/production/_ext/2046866571/crc32.o
 .gnu.attributes
                0x00000170       0x10 build/pic32mz_ef_sk/production/_ext/2046866571/deflate.o
 .gnu.attributes
                0x00000180       0x10 build/pic32mz_ef_sk/production/_ext/2046866571/infback.o
 .gnu.attributes
                0x00000190       0x10 build/pic32mz_ef_sk/production/_ext/2046866571/inffast.o
 .gnu.attributes
                0x000001a0       0x10 build/pic32mz_ef_sk/production/_ext/2046866571/inflate.o
 .gnu.attributes
                0x000001b0       0x10 build/pic32mz_ef_sk/production/_ext/2046866571/inftrees.o
 .gnu.attributes
                0x000001c0       0x10 build/pic32mz_ef_sk/production/_ext/2046866571/trees.o
 .gnu.attributes
                0x000001d0       0x10 build/pic32mz_ef_sk/production/_ext/2046866571/uncompr.o
 .gnu.attributes
                0x000001e0       0x10 build/pic32mz_ef_sk/production/_ext/2046866571/zutil.o
 .gnu.attributes
                0x000001f0       0x10 build/pic32mz_ef_sk/production/_ext/29024758/ecc.o
 .gnu.attributes
                0x00000200       0x10 build/pic32mz_ef_sk/production/_ext/29024758/arc4.o
 .gnu.attributes
                0x00000210       0x10 build/pic32mz_ef_sk/production/_ext/29024758/pwdbased.o
 .gnu.attributes
                0x00000220       0x10 build/pic32mz_ef_sk/production/_ext/29024758/tfm.o
 .gnu.attributes
                0x00000230       0x10 build/pic32mz_ef_sk/production/_ext/29024758/asn.o
 .gnu.attributes
                0x00000240       0x10 build/pic32mz_ef_sk/production/_ext/29024758/des3.o
 .gnu.attributes
                0x00000250       0x10 build/pic32mz_ef_sk/production/_ext/29024758/rsa.o
 .gnu.attributes
                0x00000260       0x10 build/pic32mz_ef_sk/production/_ext/29024758/aes.o
 .gnu.attributes
                0x00000270       0x10 build/pic32mz_ef_sk/production/_ext/29024758/md5.o
 .gnu.attributes
                0x00000280       0x10 build/pic32mz_ef_sk/production/_ext/29024758/sha.o
 .gnu.attributes
                0x00000290       0x10 build/pic32mz_ef_sk/production/_ext/29024758/sha256.o
 .gnu.attributes
                0x000002a0       0x10 build/pic32mz_ef_sk/production/_ext/29024758/sha512.o
 .gnu.attributes
                0x000002b0       0x10 build/pic32mz_ef_sk/production/_ext/29024758/hmac.o
 .gnu.attributes
                0x000002c0       0x10 build/pic32mz_ef_sk/production/_ext/29024758/hash.o
 .gnu.attributes
                0x000002d0       0x10 build/pic32mz_ef_sk/production/_ext/29024758/compress.o
 .gnu.attributes
                0x000002e0       0x10 build/pic32mz_ef_sk/production/_ext/29024758/crypto.o
 .gnu.attributes
                0x000002f0       0x10 build/pic32mz_ef_sk/production/_ext/29024758/coding.o
 .gnu.attributes
                0x00000300       0x10 build/pic32mz_ef_sk/production/_ext/29024758/error.o
 .gnu.attributes
                0x00000310       0x10 build/pic32mz_ef_sk/production/_ext/29024758/integer.o
 .gnu.attributes
                0x00000320       0x10 build/pic32mz_ef_sk/production/_ext/29024758/logging.o
 .gnu.attributes
                0x00000330       0x10 build/pic32mz_ef_sk/production/_ext/29024758/memory.o
 .gnu.attributes
                0x00000340       0x10 build/pic32mz_ef_sk/production/_ext/29024758/wc_port.o
 .gnu.attributes
                0x00000350       0x10 build/pic32mz_ef_sk/production/_ext/29024758/wolfmath.o
 .gnu.attributes
                0x00000360       0x10 build/pic32mz_ef_sk/production/_ext/1697634946/drv_ethmac.o
 .gnu.attributes
                0x00000370       0x10 build/pic32mz_ef_sk/production/_ext/1697634946/drv_ethmac_lib.o
 .gnu.attributes
                0x00000380       0x10 build/pic32mz_ef_sk/production/_ext/521481140/drv_ethphy.o
 .gnu.attributes
                0x00000390       0x10 build/pic32mz_ef_sk/production/_ext/521481140/drv_extphy_smsc8740.o
 .gnu.attributes
                0x000003a0       0x10 build/pic32mz_ef_sk/production/_ext/1470245908/drv_miim.o
 .gnu.attributes
                0x000003b0       0x10 build/pic32mz_ef_sk/production/_ext/184581597/drv_nvm.o
 .gnu.attributes
                0x000003c0       0x10 build/pic32mz_ef_sk/production/_ext/184581597/drv_nvm_erasewrite.o
 .gnu.attributes
                0x000003d0       0x10 build/pic32mz_ef_sk/production/_ext/941160041/drv_tmr.o
 .gnu.attributes
                0x000003e0       0x10 build/pic32mz_ef_sk/production/_ext/821589181/drv_usart.o
 .gnu.attributes
                0x000003f0       0x10 build/pic32mz_ef_sk/production/_ext/821589181/drv_usart_buffer_queue.o
 .gnu.attributes
                0x00000400       0x10 build/pic32mz_ef_sk/production/_ext/821589181/drv_usart_read_write.o
 .gnu.attributes
                0x00000410       0x10 build/pic32mz_ef_sk/production/_ext/871719959/net_pres.o
 .gnu.attributes
                0x00000420       0x10 build/pic32mz_ef_sk/production/_ext/308321468/osal_freertos.o
 .gnu.attributes
                0x00000430       0x10 build/pic32mz_ef_sk/production/_ext/1891376032/sys_command.o
 .gnu.attributes
                0x00000440       0x10 build/pic32mz_ef_sk/production/_ext/598853952/sys_buffer.o
 .gnu.attributes
                0x00000450       0x10 build/pic32mz_ef_sk/production/_ext/598853952/sys_queue.o
 .gnu.attributes
                0x00000460       0x10 build/pic32mz_ef_sk/production/_ext/1434663852/sys_console.o
 .gnu.attributes
                0x00000470       0x10 build/pic32mz_ef_sk/production/_ext/1434663852/sys_console_uart.o
 .gnu.attributes
                0x00000480       0x10 build/pic32mz_ef_sk/production/_ext/2137108136/sys_debug.o
 .gnu.attributes
                0x00000490       0x10 build/pic32mz_ef_sk/production/_ext/1750042194/sys_fs.o
 .gnu.attributes
                0x000004a0       0x10 build/pic32mz_ef_sk/production/_ext/1750042194/sys_fs_media_manager.o
 .gnu.attributes
                0x000004b0       0x10 build/pic32mz_ef_sk/production/_ext/614935175/mpfs.o
 .gnu.attributes
                0x000004c0       0x10 build/pic32mz_ef_sk/production/_ext/1042686532/sys_int_pic32.o
 .gnu.attributes
                0x000004d0       0x10 build/pic32mz_ef_sk/production/_ext/470001640/sys_random.o
 .gnu.attributes
                0x000004e0       0x10 build/pic32mz_ef_sk/production/_ext/2110151058/sys_tmr.o
 .gnu.attributes
                0x000004f0       0x10 build/pic32mz_ef_sk/production/_ext/1886247299/sys_fs_wrapper.o
 .gnu.attributes
                0x00000500       0x10 build/pic32mz_ef_sk/production/_ext/1886247299/helpers.o
 .gnu.attributes
                0x00000510       0x10 build/pic32mz_ef_sk/production/_ext/1164207549/ipv4.o
 .gnu.attributes
                0x00000520       0x10 build/pic32mz_ef_sk/production/_ext/1164207549/ndp.o
 .gnu.attributes
                0x00000530       0x10 build/pic32mz_ef_sk/production/_ext/1164207549/ipv6.o
 .gnu.attributes
                0x00000540       0x10 build/pic32mz_ef_sk/production/_ext/1164207549/icmpv6.o
 .gnu.attributes
                0x00000550       0x10 build/pic32mz_ef_sk/production/_ext/1164207549/tcp.o
 .gnu.attributes
                0x00000560       0x10 build/pic32mz_ef_sk/production/_ext/1164207549/udp.o
 .gnu.attributes
                0x00000570       0x10 build/pic32mz_ef_sk/production/_ext/1164207549/tcpip_heap_alloc.o
 .gnu.attributes
                0x00000580       0x10 build/pic32mz_ef_sk/production/_ext/1164207549/tcpip_heap_internal.o
 .gnu.attributes
                0x00000590       0x10 build/pic32mz_ef_sk/production/_ext/1164207549/arp.o
 .gnu.attributes
                0x000005a0       0x10 build/pic32mz_ef_sk/production/_ext/1164207549/dhcp.o
 .gnu.attributes
                0x000005b0       0x10 build/pic32mz_ef_sk/production/_ext/1164207549/dns.o
 .gnu.attributes
                0x000005c0       0x10 build/pic32mz_ef_sk/production/_ext/1164207549/http.o
 .gnu.attributes
                0x000005d0       0x10 build/pic32mz_ef_sk/production/_ext/1164207549/nbns.o
 .gnu.attributes
                0x000005e0       0x10 build/pic32mz_ef_sk/production/_ext/1164207549/smtp.o
 .gnu.attributes
                0x000005f0       0x10 build/pic32mz_ef_sk/production/_ext/1164207549/sntp.o
 .gnu.attributes
                0x00000600       0x10 build/pic32mz_ef_sk/production/_ext/1164207549/zero_conf_helper.o
 .gnu.attributes
                0x00000610       0x10 build/pic32mz_ef_sk/production/_ext/1164207549/zero_conf_link_local.o
 .gnu.attributes
                0x00000620       0x10 build/pic32mz_ef_sk/production/_ext/1164207549/tcpip_announce.o
 .gnu.attributes
                0x00000630       0x10 build/pic32mz_ef_sk/production/_ext/1164207549/tcpip_commands.o
 .gnu.attributes
                0x00000640       0x10 build/pic32mz_ef_sk/production/_ext/1164207549/hash_fnv.o
 .gnu.attributes
                0x00000650       0x10 build/pic32mz_ef_sk/production/_ext/1164207549/oahash.o
 .gnu.attributes
                0x00000660       0x10 build/pic32mz_ef_sk/production/_ext/1164207549/tcpip_helpers.o
 .gnu.attributes
                0x00000670       0x10 build/pic32mz_ef_sk/production/_ext/1164207549/tcpip_manager.o
 .gnu.attributes
                0x00000680       0x10 build/pic32mz_ef_sk/production/_ext/1164207549/tcpip_notify.o
 .gnu.attributes
                0x00000690       0x10 build/pic32mz_ef_sk/production/_ext/1164207549/tcpip_packet.o
 .gnu.attributes
                0x000006a0       0x10 build/pic32mz_ef_sk/production/_ext/1107379230/heap_1.o
 .gnu.attributes
                0x000006b0       0x10 build/pic32mz_ef_sk/production/_ext/1282498061/port.o
 .gnu.attributes
                0x000006c0       0x10 build/pic32mz_ef_sk/production/_ext/373060831/croutine.o
 .gnu.attributes
                0x000006d0       0x10 build/pic32mz_ef_sk/production/_ext/373060831/list.o
 .gnu.attributes
                0x000006e0       0x10 build/pic32mz_ef_sk/production/_ext/373060831/queue.o
 .gnu.attributes
                0x000006f0       0x10 build/pic32mz_ef_sk/production/_ext/373060831/tasks.o
 .gnu.attributes
                0x00000700       0x10 build/pic32mz_ef_sk/production/_ext/373060831/timers.o
 .gnu.attributes
                0x00000710       0x10 build/pic32mz_ef_sk/production/_ext/373060831/event_groups.o
 .gnu.attributes
                0x00000720       0x10 build/pic32mz_ef_sk/production/_ext/1360937237/websocket.o
 .gnu.attributes
                0x00000730       0x10 build/pic32mz_ef_sk/production/_ext/1360937237/websocket_thread.o
 .gnu.attributes
                0x00000740       0x10 build/pic32mz_ef_sk/production/_ext/1164207549/icmp.o
 .gnu.attributes
                0x00000750       0x10 c:/program files (x86)/microchip/xc32/v1.44/bin/bin/../../lib/gcc/pic32mx/4.8.3/fpu64\libgcc.a(_udivdi3.o)
 .gnu.attributes
                0x00000760       0x10 c:/program files (x86)/microchip/xc32/v1.44/bin/bin/../../lib/gcc/pic32mx/4.8.3/../../../../pic32mx/lib/fpu64\libpic32.a(default-bootstrap-exception-handler.o)
 .gnu.attributes
                0x00000770       0x10 c:/program files (x86)/microchip/xc32/v1.44/bin/bin/../../lib/gcc/pic32mx/4.8.3/../../../../pic32mx/lib/fpu64\libpic32.a(default-on-reset.o)
 .gnu.attributes
                0x00000780       0x10 c:/program files (x86)/microchip/xc32/v1.44/bin/bin/../../lib/gcc/pic32mx/4.8.3/../../../../pic32mx/lib/fpu64\libpic32.a(default-on-bootstrap.o)
 .gnu.attributes
                0x00000790       0x10 c:/program files (x86)/microchip/xc32/v1.44/bin/bin/../../lib/gcc/pic32mx/4.8.3/../../../../pic32mx/lib/fpu64\libpic32.a(defaultinterrupt.o)
 .gnu.attributes
                0x000007a0       0x10 c:/program files (x86)/microchip/xc32/v1.44/bin/bin/../../lib/gcc/pic32mx/4.8.3/../../../../pic32mx/lib/fpu64\libpic32.a(default-cache-err-exception-handler.o)
 .gnu.attributes
                0x000007b0       0x10 c:/program files (x86)/microchip/xc32/v1.44/bin/bin/../../lib/gcc/pic32mx/4.8.3/../../../../pic32mx/lib/fpu64\libpic32.a(default-simple-tlb-refill-exception-handler.o)
 .gnu.attributes
                0x000007c0       0x10 c:/program files (x86)/microchip/xc32/v1.44/bin/bin/../../lib/gcc/pic32mx/4.8.3/../../../../pic32mx/lib/fpu64\libc.a(fassert.o)
 .gnu.attributes
                0x000007d0       0x10 c:/program files (x86)/microchip/xc32/v1.44/bin/bin/../../lib/gcc/pic32mx/4.8.3/../../../../pic32mx/lib/fpu64\libc.a(atoi.o)
 .gnu.attributes
                0x000007e0       0x10 c:/program files (x86)/microchip/xc32/v1.44/bin/bin/../../lib/gcc/pic32mx/4.8.3/../../../../pic32mx/lib/fpu64\libc.a(atol.o)
 .gnu.attributes
                0x000007f0       0x10 c:/program files (x86)/microchip/xc32/v1.44/bin/bin/../../lib/gcc/pic32mx/4.8.3/../../../../pic32mx/lib/fpu64\libc.a(calloc.o)
 .gnu.attributes
                0x00000800       0x10 c:/program files (x86)/microchip/xc32/v1.44/bin/bin/../../lib/gcc/pic32mx/4.8.3/../../../../pic32mx/lib/fpu64\libc.a(ctype.o)
 .gnu.attributes
                0x00000810       0x10 c:/program files (x86)/microchip/xc32/v1.44/bin/bin/../../lib/gcc/pic32mx/4.8.3/../../../../pic32mx/lib/fpu64\libc.a(ctypef.o)
 .gnu.attributes
                0x00000820       0x10 c:/program files (x86)/microchip/xc32/v1.44/bin/bin/../../lib/gcc/pic32mx/4.8.3/../../../../pic32mx/lib/fpu64\libc.a(malloc.o)
 .gnu.attributes
                0x00000830       0x10 c:/program files (x86)/microchip/xc32/v1.44/bin/bin/../../lib/gcc/pic32mx/4.8.3/../../../../pic32mx/lib/fpu64\libc.a(perror.o)
 .gnu.attributes
                0x00000840       0x10 c:/program files (x86)/microchip/xc32/v1.44/bin/bin/../../lib/gcc/pic32mx/4.8.3/../../../../pic32mx/lib/fpu64\libc.a(rand.o)
 .gnu.attributes
                0x00000850       0x10 c:/program files (x86)/microchip/xc32/v1.44/bin/bin/../../lib/gcc/pic32mx/4.8.3/../../../../pic32mx/lib/fpu64\libc.a(signal.o)
 .gnu.attributes
                0x00000860       0x10 c:/program files (x86)/microchip/xc32/v1.44/bin/bin/../../lib/gcc/pic32mx/4.8.3/../../../../pic32mx/lib/fpu64\libc.a(strcat.o)
 .gnu.attributes
                0x00000870       0x10 c:/program files (x86)/microchip/xc32/v1.44/bin/bin/../../lib/gcc/pic32mx/4.8.3/../../../../pic32mx/lib/fpu64\libc.a(strchr.o)
 .gnu.attributes
                0x00000880       0x10 c:/program files (x86)/microchip/xc32/v1.44/bin/bin/../../lib/gcc/pic32mx/4.8.3/../../../../pic32mx/lib/fpu64\libc.a(strncat.o)
 .gnu.attributes
                0x00000890       0x10 c:/program files (x86)/microchip/xc32/v1.44/bin/bin/../../lib/gcc/pic32mx/4.8.3/../../../../pic32mx/lib/fpu64\libc.a(strncmp.o)
 .gnu.attributes
                0x000008a0       0x10 c:/program files (x86)/microchip/xc32/v1.44/bin/bin/../../lib/gcc/pic32mx/4.8.3/../../../../pic32mx/lib/fpu64\libc.a(strncpy.o)
 .gnu.attributes
                0x000008b0       0x10 c:/program files (x86)/microchip/xc32/v1.44/bin/bin/../../lib/gcc/pic32mx/4.8.3/../../../../pic32mx/lib/fpu64\libc.a(strstr.o)
 .gnu.attributes
                0x000008c0       0x10 c:/program files (x86)/microchip/xc32/v1.44/bin/bin/../../lib/gcc/pic32mx/4.8.3/../../../../pic32mx/lib/fpu64\libc.a(strtol.o)
 .gnu.attributes
                0x000008d0       0x10 c:/program files (x86)/microchip/xc32/v1.44/bin/bin/../../lib/gcc/pic32mx/4.8.3/../../../../pic32mx/lib/fpu64\libc.a(sys_err.o)
 .gnu.attributes
                0x000008e0       0x10 c:/program files (x86)/microchip/xc32/v1.44/bin/bin/../../lib/gcc/pic32mx/4.8.3/../../../../pic32mx/lib/fpu64\libc.a(exit.o)
 .gnu.attributes
                0x000008f0       0x10 c:/program files (x86)/microchip/xc32/v1.44/bin/bin/../../lib/gcc/pic32mx/4.8.3/../../../../pic32mx/lib/fpu64\libc.a(stdclean_simple.o)
 .gnu.attributes
                0x00000900       0x10 c:/program files (x86)/microchip/xc32/v1.44/bin/bin/../../lib/gcc/pic32mx/4.8.3/../../../../pic32mx/lib/fpu64\libc.a(fprintf_cdnopsuxX.eo)
 .gnu.attributes
                0x00000910       0x10 c:/program files (x86)/microchip/xc32/v1.44/bin/bin/../../lib/gcc/pic32mx/4.8.3/../../../../pic32mx/lib/fpu64\libc.a(snprintf_cdnopsuxX.eo)
 .gnu.attributes
                0x00000920       0x10 c:/program files (x86)/microchip/xc32/v1.44/bin/bin/../../lib/gcc/pic32mx/4.8.3/../../../../pic32mx/lib/fpu64\libc.a(sprintf_cdnopsuxX.eo)
 .gnu.attributes
                0x00000930       0x10 c:/program files (x86)/microchip/xc32/v1.44/bin/bin/../../lib/gcc/pic32mx/4.8.3/../../../../pic32mx/lib/fpu64\libc.a(sscanf_s.eo)
 .gnu.attributes
                0x00000940       0x10 c:/program files (x86)/microchip/xc32/v1.44/bin/bin/../../lib/gcc/pic32mx/4.8.3/../../../../pic32mx/lib/fpu64\libc.a(vsnprintf_cdnopsuxX.eo)
 .gnu.attributes
                0x00000950       0x10 c:/program files (x86)/microchip/xc32/v1.44/bin/bin/../../lib/gcc/pic32mx/4.8.3/../../../../pic32mx/lib/fpu64\libc.a(vsnprintf.o)
 .gnu.attributes
                0x00000960       0x10 c:/program files (x86)/microchip/xc32/v1.44/bin/bin/../../lib/gcc/pic32mx/4.8.3/../../../../pic32mx/lib/fpu64\libc.a(_iob.o)
 .gnu.attributes
                0x00000970       0x10 c:/program files (x86)/microchip/xc32/v1.44/bin/bin/../../lib/gcc/pic32mx/4.8.3/../../../../pic32mx/lib/fpu64\libc.a(_fputc_simple.o)
 .gnu.attributes
                0x00000980       0x10 c:/program files (x86)/microchip/xc32/v1.44/bin/bin/../../lib/gcc/pic32mx/4.8.3/../../../../pic32mx/lib/fpu64\libc.a(errno.o)
 .gnu.attributes
                0x00000990       0x10 c:/program files (x86)/microchip/xc32/v1.44/bin/bin/../../lib/gcc/pic32mx/4.8.3/../../../../pic32mx/lib/fpu64\libc.a(doprnt_cdnopsuxX.eo)
 .gnu.attributes
                0x000009a0       0x10 c:/program files (x86)/microchip/xc32/v1.44/bin/bin/../../lib/gcc/pic32mx/4.8.3/../../../../pic32mx/lib/fpu64\libc.a(doprnt.o)
 .gnu.attributes
                0x000009b0       0x10 c:/program files (x86)/microchip/xc32/v1.44/bin/bin/../../lib/gcc/pic32mx/4.8.3/../../../../pic32mx/lib/fpu64\libc.a(doscan_s.eo)
 .gnu.attributes
                0x000009c0       0x10 c:/program files (x86)/microchip/xc32/v1.44/bin/bin/../../lib/gcc/pic32mx/4.8.3/../../../../pic32mx/lib/fpu64\libc.a(_flsbuf_simple.o)
 .gnu.attributes
                0x000009d0       0x10 c:/program files (x86)/microchip/xc32/v1.44/bin/bin/../../lib/gcc/pic32mx/4.8.3/../../../../pic32mx/lib/fpu64\libc.a(fgetc.o)
 .gnu.attributes
                0x000009e0       0x10 c:/program files (x86)/microchip/xc32/v1.44/bin/bin/../../lib/gcc/pic32mx/4.8.3/../../../../pic32mx/lib/fpu64\libc.a(ldpowers.o)
 .gnu.attributes
                0x000009f0       0x10 c:/program files (x86)/microchip/xc32/v1.44/bin/bin/../../lib/gcc/pic32mx/4.8.3/../../../../pic32mx/lib/fpu64\libc.a(ungetc.o)
 .gnu.attributes
                0x00000a00       0x10 c:/program files (x86)/microchip/xc32/v1.44/bin/bin/../../lib/gcc/pic32mx/4.8.3/../../../../pic32mx/lib/fpu64\libc.a(filbuf.o)
 .gnu.attributes
                0x00000a10       0x10 c:/program files (x86)/microchip/xc32/v1.44/bin/bin/../../lib/gcc/pic32mx/4.8.3/../../../../pic32mx/lib/fpu64\libc.a(fflush.o)
 .gnu.attributes
                0x00000a20       0x10 c:/program files (x86)/microchip/xc32/v1.44/bin/bin/../../lib/gcc/pic32mx/4.8.3/../../../../pic32mx/lib/fpu64\libmfd.a(s_frexp.o)
 .gnu.attributes
                0x00000a30       0x10 c:/program files (x86)/microchip/xc32/v1.44/bin/bin/../../lib/gcc/pic32mx/4.8.3/fpu64\libgcc.a(_cmpdi2.o)
 .gnu.attributes
                0x00000a40       0x10 c:/program files (x86)/microchip/xc32/v1.44/bin/bin/../../lib/gcc/pic32mx/4.8.3/fpu64\libgcc.a(_umoddi3.o)
 .gnu.attributes
                0x00000a50       0x10 c:/program files (x86)/microchip/xc32/v1.44/bin/bin/../../lib/gcc/pic32mx/4.8.3/../../../../pic32mx/lib/fpu64\libpic32.a(sbrk.o)
 .gnu.attributes
                0x00000a60       0x10 c:/program files (x86)/microchip/xc32/v1.44/bin/bin/../../lib/gcc/pic32mx/4.8.3/../../../../pic32mx/lib/fpu64\libpic32.a(read.o)
 .gnu.attributes
                0x00000a70       0x10 c:/program files (x86)/microchip/xc32/v1.44/bin/bin/../../lib/gcc/pic32mx/4.8.3/../../../../pic32mx/lib/fpu64\libpic32.a(write.o)
 .gnu.attributes
                0x00000a80       0x10 c:/program files (x86)/microchip/xc32/v1.44/bin/bin/../../lib/gcc/pic32mx/4.8.3/../../../../pic32mx/lib/fpu64\libpic32.a(xc32_uart.o)
 .gnu.attributes
                0x00000a90       0x10 c:/program files (x86)/microchip/xc32/v1.44/bin/bin/../../lib/gcc/pic32mx/4.8.3/../../../../pic32mx/lib/fpu64\libpic32.a(_mon_putc.o)
                0x9d000000                PROVIDE (__pic32_init_cache_program_base_addr, 0x9d000000)
                0x80000000                PROVIDE (__pic32_init_cache_data_base_addr, 0x80000000)
                0xd0000000                PROVIDE (__pic32_init_sqi_kseg2_virtual_base_addr, 0xd0000000)
                0x30000000                PROVIDE (__pic32_init_sqi_kseg2_physical_base_addr, 0x30000000)
                0x0000001f                PROVIDE (__pic32_init_sqi_kseg2_entrylo0_bitset, 0x1f)
                0xd0000000                __pic32_tlb_0_entryhi = __pic32_init_sqi_kseg2_virtual_base_addr
                0x00c0001f                __pic32_tlb_0_entrylo0 = ((__pic32_init_sqi_kseg2_physical_base_addr >> 0x6) | __pic32_init_sqi_kseg2_entrylo0_bitset)
                0x00c4001f                __pic32_tlb_0_entrylo1 = (__pic32_tlb_0_entrylo0 | ((__pic32_init_sqi_kseg2_physical_base_addr + 0x1000000) >> 0x6))
                0xd2000000                __pic32_tlb_1_entryhi = (__pic32_init_sqi_kseg2_virtual_base_addr + 0x2000000)
                0x00c8001f                __pic32_tlb_1_entrylo0 = (((__pic32_init_sqi_kseg2_physical_base_addr + 0x2000000) >> 0x6) | __pic32_init_sqi_kseg2_entrylo0_bitset)
                0x00cc001f                __pic32_tlb_1_entrylo1 = (__pic32_tlb_1_entrylo0 | 0x40000)
                0xf0000000                PROVIDE (__pic32_init_sqi_kseg3_virtual_base_addr, 0xf0000000)
                0x30000000                PROVIDE (__pic32_init_sqi_kseg3_physical_base_addr, 0x30000000)
                0x00000017                PROVIDE (__pic32_init_sqi_kseg3_entrylo0_bitset, 0x17)
                0xf0000000                __pic32_tlb_2_entryhi = __pic32_init_sqi_kseg3_virtual_base_addr
                0x00c00017                __pic32_tlb_2_entrylo0 = ((__pic32_init_sqi_kseg3_physical_base_addr >> 0x6) | __pic32_init_sqi_kseg3_entrylo0_bitset)
                0x00c40017                __pic32_tlb_2_entrylo1 = (__pic32_tlb_2_entrylo0 | ((__pic32_init_sqi_kseg3_physical_base_addr + 0x1000000) >> 0x6))
                0xf2000000                __pic32_tlb_3_entryhi = (__pic32_init_sqi_kseg3_virtual_base_addr + 0x2000000)
                0x00c80017                __pic32_tlb_3_entrylo0 = (((__pic32_init_sqi_kseg3_physical_base_addr + 0x2000000) >> 0x6) | __pic32_init_sqi_kseg3_entrylo0_bitset)
                0x00cc0017                __pic32_tlb_3_entrylo1 = (__pic32_tlb_3_entrylo0 | 0x40000)
                0xc0000000                PROVIDE (__pic32_init_ebi_kseg2_virtual_base_addr, 0xc0000000)
                0x20000000                PROVIDE (__pic32_init_ebi_kseg2_physical_base_addr, 0x20000000)
                0x0000001f                PROVIDE (__pic32_init_ebi_kseg2_entrylo0_bitset, 0x1f)
                0xc0000000                __pic32_tlb_4_entryhi = __pic32_init_ebi_kseg2_virtual_base_addr
                0x0080001f                __pic32_tlb_4_entrylo0 = ((__pic32_init_ebi_kseg2_physical_base_addr >> 0x6) | __pic32_init_ebi_kseg2_entrylo0_bitset)
                0x0084001f                __pic32_tlb_4_entrylo1 = (__pic32_tlb_4_entrylo0 | ((__pic32_init_ebi_kseg2_physical_base_addr + 0x1000000) >> 0x6))
                0xc2000000                __pic32_tlb_5_entryhi = (__pic32_init_ebi_kseg2_virtual_base_addr + 0x2000000)
                0x0088001f                __pic32_tlb_5_entrylo0 = (((__pic32_init_ebi_kseg2_physical_base_addr + 0x2000000) >> 0x6) | __pic32_init_ebi_kseg2_entrylo0_bitset)
                0x008c001f                __pic32_tlb_5_entrylo1 = (__pic32_tlb_5_entrylo0 | 0x40000)
                0xe0000000                PROVIDE (__pic32_init_ebi_kseg3_virtual_base_addr, 0xe0000000)
                0x20000000                PROVIDE (__pic32_init_ebi_kseg3_physical_base_addr, 0x20000000)
                0x00000017                PROVIDE (__pic32_init_ebi_kseg3_entrylo0_bitset, 0x17)
                0xe0000000                __pic32_tlb_6_entryhi = __pic32_init_ebi_kseg3_virtual_base_addr
                0x00800017                __pic32_tlb_6_entrylo0 = ((__pic32_init_ebi_kseg3_physical_base_addr >> 0x6) | __pic32_init_ebi_kseg3_entrylo0_bitset)
                0x00840017                __pic32_tlb_6_entrylo1 = (__pic32_tlb_6_entrylo0 | ((__pic32_init_ebi_kseg3_physical_base_addr + 0x1000000) >> 0x6))
                0xe2000000                __pic32_tlb_7_entryhi = (__pic32_init_ebi_kseg3_virtual_base_addr + 0x2000000)
                0x00880017                __pic32_tlb_7_entrylo0 = (((__pic32_init_ebi_kseg3_physical_base_addr + 0x2000000) >> 0x6) | __pic32_init_ebi_kseg3_entrylo0_bitset)
                0x008c0017                __pic32_tlb_7_entrylo1 = (__pic32_tlb_7_entrylo0 | 0x40000)

.tlb_init_values
                0xbfc0064c       0x60
                0xbfc0064c                . = ALIGN (0x4)
                0xbfc0064c                __pic32_tlb_init_values_begin = ABSOLUTE (.)
                0xbfc0064c        0x4 LONG 0xd0000000 __pic32_tlb_0_entryhi
                0xbfc00650        0x4 LONG 0xc0001f __pic32_tlb_0_entrylo0
                0xbfc00654        0x4 LONG 0xc4001f __pic32_tlb_0_entrylo1
                0xbfc00658        0x4 LONG 0xd2000000 __pic32_tlb_1_entryhi
                0xbfc0065c        0x4 LONG 0xc8001f __pic32_tlb_1_entrylo0
                0xbfc00660        0x4 LONG 0xcc001f __pic32_tlb_1_entrylo1
                0xbfc00664        0x4 LONG 0xf0000000 __pic32_tlb_2_entryhi
                0xbfc00668        0x4 LONG 0xc00017 __pic32_tlb_2_entrylo0
                0xbfc0066c        0x4 LONG 0xc40017 __pic32_tlb_2_entrylo1
                0xbfc00670        0x4 LONG 0xf2000000 __pic32_tlb_3_entryhi
                0xbfc00674        0x4 LONG 0xc80017 __pic32_tlb_3_entrylo0
                0xbfc00678        0x4 LONG 0xcc0017 __pic32_tlb_3_entrylo1
                0xbfc0067c        0x4 LONG 0xc0000000 __pic32_tlb_4_entryhi
                0xbfc00680        0x4 LONG 0x80001f __pic32_tlb_4_entrylo0
                0xbfc00684        0x4 LONG 0x84001f __pic32_tlb_4_entrylo1
                0xbfc00688        0x4 LONG 0xc2000000 __pic32_tlb_5_entryhi
                0xbfc0068c        0x4 LONG 0x88001f __pic32_tlb_5_entrylo0
                0xbfc00690        0x4 LONG 0x8c001f __pic32_tlb_5_entrylo1
                0xbfc00694        0x4 LONG 0xe0000000 __pic32_tlb_6_entryhi
                0xbfc00698        0x4 LONG 0x800017 __pic32_tlb_6_entrylo0
                0xbfc0069c        0x4 LONG 0x840017 __pic32_tlb_6_entrylo1
                0xbfc006a0        0x4 LONG 0xe2000000 __pic32_tlb_7_entryhi
                0xbfc006a4        0x4 LONG 0x880017 __pic32_tlb_7_entrylo0
                0xbfc006a8        0x4 LONG 0x8c0017 __pic32_tlb_7_entrylo1
                0xbfc006ac                __pic32_tlb_init_values_end = ABSOLUTE (.)
                0x00000008                __pic32_tlb_init_values_count = 0x8
LOAD c:/program files (x86)/microchip/xc32/v1.44/bin/bin/../../lib/gcc/pic32mx/4.8.3/fpu64\libgcc.a
START GROUP
LOAD c:/program files (x86)/microchip/xc32/v1.44/bin/bin/../../lib/gcc/pic32mx/4.8.3/../../../../pic32mx/lib/fpu64\libpic32.a
LOAD c:/program files (x86)/microchip/xc32/v1.44/bin/bin/../../lib/gcc/pic32mx/4.8.3/../../../../pic32mx/lib/fpu64\libdebug.a
LOAD c:/program files (x86)/microchip/xc32/v1.44/bin/bin/../../lib/gcc/pic32mx/4.8.3/../../../../pic32mx/lib/fpu64\libpic32.a
LOAD c:/program files (x86)/microchip/xc32/v1.44/bin/bin/../../lib/gcc/pic32mx/4.8.3/../../../../pic32mx/lib/fpu64\libc.a
LOAD c:/program files (x86)/microchip/xc32/v1.44/bin/bin/../../lib/gcc/pic32mx/4.8.3/../../../../pic32mx/lib/fpu64\libc.a
LOAD c:/program files (x86)/microchip/xc32/v1.44/bin/bin/../../lib/gcc/pic32mx/4.8.3/../../../../pic32mx/lib/fpu64\libmfd.a
LOAD c:/program files (x86)/microchip/xc32/v1.44/bin/bin/../../lib/gcc/pic32mx/4.8.3/../../../../pic32mx/lib/fpu64\libm.a
LOAD c:/program files (x86)/microchip/xc32/v1.44/bin/bin/../../lib/gcc/pic32mx/4.8.3/../../../../pic32mx/lib/fpu64\libe.a
LOAD c:/program files (x86)/microchip/xc32/v1.44/bin/bin/../../lib/gcc/pic32mx/4.8.3/../../../../pic32mx/lib/fpu64\libdspr2.a
LOAD c:/program files (x86)/microchip/xc32/v1.44/bin/bin/../../lib/gcc/pic32mx/4.8.3/../../../../pic32mx/lib/fpu64\libdsp.a
LOAD c:/program files (x86)/microchip/xc32/v1.44/bin/bin/../../lib/gcc/pic32mx/4.8.3/fpu64\libgcc.a
LOAD c:/program files (x86)/microchip/xc32/v1.44/bin/bin/../../lib/gcc/pic32mx/4.8.3/../../../../pic32mx/lib/fpu64\libpic32.a
END GROUP
LOAD c:/program files (x86)/microchip/xc32/v1.44/bin/bin/../../lib/gcc/pic32mx/4.8.3/fpu64\libgcc.a
OUTPUT(dist/pic32mz_ef_sk/production/pic32_eth_web_server.X.production.elf elf32-tradlittlemips)
LOAD stack
LOAD data_init

.reginfo        0x00000000       0x18
 .reginfo       0x00000000       0x18 c:/program files (x86)/microchip/xc32/v1.44/bin/bin/../../lib/gcc/pic32mx/4.8.3/../../../../pic32mx/lib/./proc/32MZ2048EFH144/crt0_mips32r2.o

.stack          0x80052810      0x800
 .stack         0x80052810      0x800 stack

.__vector_offset_BF810540_data
                0xbf810540      0x1ac
 .__vector_offset_BF810540_data
                0xbf810540      0x1ac c:/program files (x86)/microchip/xc32/v1.44/bin/bin/../../lib/gcc/pic32mx/4.8.3/../../../../pic32mx/lib/./proc/32MZ2048EFH144\vector_offset_init.o

.__vector_offset_BF8106F4_data
                0xbf8106f4      0x148
 .__vector_offset_BF8106F4_data
                0xbf8106f4      0x148 c:/program files (x86)/microchip/xc32/v1.44/bin/bin/../../lib/gcc/pic32mx/4.8.3/../../../../pic32mx/lib/./proc/32MZ2048EFH144\vector_offset_init.o

.__vector_offset_BF810874_data
                0xbf810874       0x18
 .__vector_offset_BF810874_data
                0xbf810874       0x18 c:/program files (x86)/microchip/xc32/v1.44/bin/bin/../../lib/gcc/pic32mx/4.8.3/../../../../pic32mx/lib/./proc/32MZ2048EFH144\vector_offset_init.o

.__vector_offset_BF810858_data
                0xbf810858       0x14
 .__vector_offset_BF810858_data
                0xbf810858       0x14 c:/program files (x86)/microchip/xc32/v1.44/bin/bin/../../lib/gcc/pic32mx/4.8.3/../../../../pic32mx/lib/./proc/32MZ2048EFH144\vector_offset_init.o

.__vector_offset_BF810840_data
                0xbf810840        0xc
 .__vector_offset_BF810840_data
                0xbf810840        0xc c:/program files (x86)/microchip/xc32/v1.44/bin/bin/../../lib/gcc/pic32mx/4.8.3/../../../../pic32mx/lib/./proc/32MZ2048EFH144\vector_offset_init.o

.__vector_offset_BF810850_data
                0xbf810850        0x4
 .__vector_offset_BF810850_data
                0xbf810850        0x4 c:/program files (x86)/microchip/xc32/v1.44/bin/bin/../../lib/gcc/pic32mx/4.8.3/../../../../pic32mx/lib/./proc/32MZ2048EFH144\vector_offset_init.o

.__vector_offset_BF810894_data
                0xbf810894        0x4
 .__vector_offset_BF810894_data
                0xbf810894        0x4 c:/program files (x86)/microchip/xc32/v1.44/bin/bin/../../lib/gcc/pic32mx/4.8.3/../../../../pic32mx/lib/./proc/32MZ2048EFH144\vector_offset_init.o

.COHERENTBSS$   0xa0012960     0x4480
 .COHERENTBSS$  0xa0012960     0x4000 build/pic32mz_ef_sk/production/_ext/184581597/drv_nvm.o
                0xa0012960                gDrvNVMEraseBuffer
 .bss.printBuff.printBuff
                0xa0016960      0x200 build/pic32mz_ef_sk/production/_ext/1891376032/sys_command.o
 .bss.gSYSFSMediaBuffer.gSYSFSMediaBuffer
                0xa0016b60      0x200 build/pic32mz_ef_sk/production/_ext/1750042194/sys_fs_media_manager.o
                0xa0016b60                gSYSFSMediaBuffer
 .bss.readBuff.readBuff
                0xa0016d60       0x80 build/pic32mz_ef_sk/production/_ext/1891376032/sys_command.o

.bss            0x80016de0    0x1a000
 .bss           0x80016de0    0x10000 build/pic32mz_ef_sk/production/_ext/1360937237/websocket_thread.o
 .bss           0x80026de0     0xa000 build/pic32mz_ef_sk/production/_ext/1107379230/heap_1.o

.bss            0x80030de0      0xe78
 .bss           0x80030de0      0x838 build/pic32mz_ef_sk/production/_ext/1164207549/tcpip_commands.o
 .bss           0x80031618      0x640 build/pic32mz_ef_sk/production/_ext/1282498061/port.o
                0x80031618                xISRStack

.bss            0x80031c58      0x720
 .bss           0x80031c58      0x400 build/pic32mz_ef_sk/production/_ext/2137108136/sys_debug.o
 .bss           0x80032058      0x320 build/pic32mz_ef_sk/production/_ext/1164207549/tcpip_manager.o

.bss            0x80032378      0x4b4
 .bss           0x80032378      0x2b4 build/pic32mz_ef_sk/production/_ext/1360937237/custom_http_app.o
 .bss           0x8003262c      0x200 build/pic32mz_ef_sk/production/_ext/1434663852/sys_console_uart.o

.bss            0x8003282c      0x1a8
 .bss           0x8003282c      0x1a8 build/pic32mz_ef_sk/production/_ext/614935175/mpfs.o

.data           0x800329e0      0x140
 .data          0x800329e0      0x140 build/pic32mz_ef_sk/production/_ext/1697634946/drv_ethmac.o

.bss            0x80032b20      0x1f0
 .bss           0x80032b20      0x128 build/pic32mz_ef_sk/production/_ext/1891376032/sys_command.o
 .bss           0x80032c48       0xc8 build/pic32mz_ef_sk/production/_ext/373060831/tasks.o

.data           0x80032d10      0x158
 .data          0x80032d10       0xb4 build/pic32mz_ef_sk/production/_ext/1434663852/sys_console_uart.o
                0x80032d10                consUartData
                0x80032da0                consUsartDevDesc
 .data          0x80032dc4       0xa4 c:/program files (x86)/microchip/xc32/v1.44/bin/bin/../../lib/gcc/pic32mx/4.8.3/../../../../pic32mx/lib/fpu64\libc.a(_iob.o)
                0x80032dc4                _Files
                0x80032dc8                _iob

.bss            0x80032e68      0x12c
 .bss           0x80032e68       0x98 build/pic32mz_ef_sk/production/_ext/1470245908/drv_miim.o
 .bss           0x80032f00       0x94 build/pic32mz_ef_sk/production/_ext/2110151058/sys_tmr.o

.bss            0x80032f94       0xc8
 .bss           0x80032f94       0x70 build/pic32mz_ef_sk/production/_ext/521481140/drv_ethphy.o
 .bss           0x80033004       0x58 build/pic32mz_ef_sk/production/_ext/1164207549/arp.o

.bss            0x8003305c       0x50
 .bss           0x8003305c       0x50 build/pic32mz_ef_sk/production/_ext/1164207549/ndp.o

.bss            0x800330b0       0x94
 .bss           0x800330b0       0x50 build/pic32mz_ef_sk/production/_ext/1164207549/sntp.o
 .bss           0x80033100       0x44 c:/program files (x86)/microchip/xc32/v1.44/bin/bin/../../lib/gcc/pic32mx/4.8.3/../../../../pic32mx/lib/fpu64\libc.a(_iob.o)
                0x80033100                _sobuf
                0x80033120                _sibuf
                0x80033140                _outdone

.bss            0x80033144       0x7c
 .bss           0x80033144       0x40 build/pic32mz_ef_sk/production/_ext/941160041/drv_tmr.o
 .bss           0x80033184       0x3c build/pic32mz_ef_sk/production/_ext/1164207549/ipv6.o

.data           0x800331c0       0x60
 .data          0x800331c0       0x34 build/pic32mz_ef_sk/production/_ext/849053718/system_init.o
                0x800331c0                tcpipHeapConfig
                0x800331dc                NVMGeometryTable
 .data          0x800331f4       0x2c build/pic32mz_ef_sk/production/_ext/1750042194/sys_fs_media_manager.o
                0x800331f4                gSYSFSMediaManagerObj
                0x8003320c                gSYSFSVolumeName

.bss            0x80033220       0x58
 .bss           0x80033220       0x2c build/pic32mz_ef_sk/production/_ext/1164207549/smtp.o
 .bss           0x8003324c       0x2c build/pic32mz_ef_sk/production/_ext/1164207549/icmp.o

.bss            0x80033278       0x50
 .bss           0x80033278       0x28 build/pic32mz_ef_sk/production/_ext/1164207549/ipv4.o
 .bss           0x800332a0       0x28 build/pic32mz_ef_sk/production/_ext/1164207549/dns.o

.data           0x800332c8       0x28
 .data          0x800332c8       0x28 build/pic32mz_ef_sk/production/_ext/1164207549/tcpip_helpers.o

.bss            0x800332f0       0x48
 .bss           0x800332f0       0x24 build/pic32mz_ef_sk/production/_ext/1164207549/tcpip_announce.o
 .bss           0x80033314       0x24 c:/program files (x86)/microchip/xc32/v1.44/bin/bin/../../lib/gcc/pic32mx/4.8.3/../../../../pic32mx/lib/fpu64\libpic32.a(sbrk.o)
                0x80033330                _maxbrk
                0x80033334                _minbrk

.bss            0x80033338       0x38
 .bss           0x80033338       0x20 c:/program files (x86)/microchip/xc32/v1.44/bin/bin/../../lib/gcc/pic32mx/4.8.3/../../../../pic32mx/lib/fpu64\libc.a(malloc.o)
                0x80033338                __allocx
                0x80033340                __alloct
                0x80033344                __allocp
                0x80033348                __allocs
 .bss           0x80033358       0x18 build/pic32mz_ef_sk/production/_ext/1434663852/sys_console.o

.bss            0x80033370       0x30
 .bss           0x80033370       0x18 build/pic32mz_ef_sk/production/_ext/470001640/sys_random.o
 .bss           0x80033388       0x18 c:/program files (x86)/microchip/xc32/v1.44/bin/bin/../../lib/gcc/pic32mx/4.8.3/../../../../pic32mx/lib/fpu64\libc.a(signal.o)

.data           0x800333a0       0x14
 .data          0x800333a0       0x14 build/pic32mz_ef_sk/production/_ext/614935175/mpfs.o

.bss            0x800333b4       0x28
 .bss           0x800333b4       0x14 build/pic32mz_ef_sk/production/_ext/1164207549/icmpv6.o
 .bss           0x800333c8       0x14 build/pic32mz_ef_sk/production/_ext/1164207549/dhcp.o

.bss            0x800333e0       0x10
 .bss           0x800333e0       0x10 c:/program files (x86)/microchip/xc32/v1.44/bin/bin/../../lib/gcc/pic32mx/4.8.3/../../../../pic32mx/lib/fpu64\libc.a(rand.o)

.bss            0x80012954        0xc
 .bss           0x80012954        0xc build/pic32mz_ef_sk/production/_ext/849053718/system_init.o
                0x80012954                debugInit

.bss.errno      0x800330ac        0x4
 .bss.errno     0x800330ac        0x4 c:/program files (x86)/microchip/xc32/v1.44/bin/bin/../../lib/gcc/pic32mx/4.8.3/../../../../pic32mx/lib/fpu64\libc.a(errno.o)
                0x800330ac                errno

.bss            0x800333dc        0x4
 .bss           0x800333dc        0x4 c:/program files (x86)/microchip/xc32/v1.44/bin/bin/../../lib/gcc/pic32mx/4.8.3/../../../../pic32mx/lib/fpu64\libc.a(doscan_s.eo)

._debug_exception
                0xbfc00480       0x2c
 ._debug_exception
                0xbfc00480       0x2c c:/program files (x86)/microchip/xc32/v1.44/bin/bin/../../lib/gcc/pic32mx/4.8.3/../../../../pic32mx/lib/fpu64\debug-exception-return.o
                0xbfc00480                __DbgExecReturn

.rodata.NVM_MEDIA_DATA.NVM_MEDIA_DATA
                0x9d011800    0x80000
 .rodata.NVM_MEDIA_DATA.NVM_MEDIA_DATA
                0x9d011800    0x80000 build/pic32mz_ef_sk/production/_ext/1360937237/mpfs_img2.o
                0x9d011800                NVM_MEDIA_DATA

.text.vfprintf  0x9d000000     0x2018
 .text.vfprintf
                0x9d000000     0x2018 c:/program files (x86)/microchip/xc32/v1.44/bin/bin/../../lib/gcc/pic32mx/4.8.3/../../../../pic32mx/lib/fpu64\libc.a(doprnt.o)
                0x9d000000                vfprintf

.rodata         0x9d002018     0x19d4
 .rodata        0x9d002018     0x19d4 build/pic32mz_ef_sk/production/_ext/1164207549/tcpip_commands.o

.text.TCPIP_ICMPV6_Process
                0x9d0039ec     0x158c
 .text.TCPIP_ICMPV6_Process
                0x9d0039ec     0x158c build/pic32mz_ef_sk/production/_ext/1164207549/icmpv6.o
                0x9d0039ec                TCPIP_ICMPV6_Process

.text.TCPIP_HTTP_ProcessConnection
                0x9d004f78     0x158c
 .text.TCPIP_HTTP_ProcessConnection
                0x9d004f78     0x158c build/pic32mz_ef_sk/production/_ext/1164207549/http.o

.text.TCPIP_SMTP_ClientTask
                0x9d006504     0x1074
 .text.TCPIP_SMTP_ClientTask
                0x9d006504     0x1074 build/pic32mz_ef_sk/production/_ext/1164207549/smtp.o
                0x9d006504                TCPIP_SMTP_ClientTask

.text.TCPIP_HTTP_PostExecute
                0x9d007578      0xe70
 .text.TCPIP_HTTP_PostExecute
                0x9d007578      0xe70 build/pic32mz_ef_sk/production/_ext/1360937237/custom_http_app.o
                0x9d007578                TCPIP_HTTP_PostExecute

.text._TcpHandleSeg
                0x9d0083e8      0xe08
 .text._TcpHandleSeg
                0x9d0083e8      0xe08 build/pic32mz_ef_sk/production/_ext/1164207549/tcp.o

.text._vfprintf_cdnopsuxX
                0x9d0091f0      0xc8c
 .text._vfprintf_cdnopsuxX
                0x9d0091f0      0xc8c c:/program files (x86)/microchip/xc32/v1.44/bin/bin/../../lib/gcc/pic32mx/4.8.3/../../../../pic32mx/lib/fpu64\libc.a(doprnt_cdnopsuxX.eo)
                0x9d0091f0                _vfprintf_cdnopsuxX
                0x9d0091f0                _vfprintf_cdnopuxX
                0x9d0091f0                _vfprintf_s
                0x9d0091f0                _vfprintf_0

.dinit          0x9d009e7c      0xc50
 .dinit         0x9d009e7c      0xc50 data_init

.text.Transform
                0x9d00aacc      0xa8c
 .text.Transform
                0x9d00aacc      0xa8c build/pic32mz_ef_sk/production/_ext/29024758/md5.o

.text._TcpSend  0x9d00b558      0x980
 .text._TcpSend
                0x9d00b558      0x980 build/pic32mz_ef_sk/production/_ext/1164207549/tcp.o

.text._vfscanf_s
                0x9d00bed8      0x908
 .text._vfscanf_s
                0x9d00bed8      0x908 c:/program files (x86)/microchip/xc32/v1.44/bin/bin/../../lib/gcc/pic32mx/4.8.3/../../../../pic32mx/lib/fpu64\libc.a(doscan_s.eo)
                0x9d00bed8                _vfscanf_s
                0x9d00bed8                _vfscanf_0

.text.TCPIP_STACK_Task
                0x9d00c7e0      0x8e4
 .text.TCPIP_STACK_Task
                0x9d00c7e0      0x8e4 build/pic32mz_ef_sk/production/_ext/1164207549/tcpip_manager.o
                0x9d00c7e0                TCPIP_STACK_Task

.text.TCPIP_NDP_Task
                0x9d00d0c4      0x8cc
 .text.TCPIP_NDP_Task
                0x9d00d0c4      0x8cc build/pic32mz_ef_sk/production/_ext/1164207549/ndp.o
                0x9d00d0c4                TCPIP_NDP_Task

.text._Command_DNS_Service
                0x9d00d990      0x8c4
 .text._Command_DNS_Service
                0x9d00d990      0x8c4 build/pic32mz_ef_sk/production/_ext/1164207549/tcpip_commands.o

.text.TCPIP_TCP_Task
                0x9d00e254      0x838
 .text.TCPIP_TCP_Task
                0x9d00e254      0x838 build/pic32mz_ef_sk/production/_ext/1164207549/tcp.o
                0x9d00e254                TCPIP_TCP_Task

.text.TCPIP_DHCP_Task
                0x9d00ea8c      0x7c0
 .text.TCPIP_DHCP_Task
                0x9d00ea8c      0x7c0 build/pic32mz_ef_sk/production/_ext/1164207549/dhcp.o
                0x9d00ea8c                TCPIP_DHCP_Task

.text.DRV_ETHMAC_PIC32MACInitialize
                0x9d00f24c      0x7a0
 .text.DRV_ETHMAC_PIC32MACInitialize
                0x9d00f24c      0x7a0 build/pic32mz_ef_sk/production/_ext/1697634946/drv_ethmac.o
                0x9d00f24c                DRV_ETHMAC_PIC32MACInitialize

.text.SYS_FS_MEDIA_MANAGER_Tasks
                0x9d091800      0x6c8
 .text.SYS_FS_MEDIA_MANAGER_Tasks
                0x9d091800      0x6c8 build/pic32mz_ef_sk/production/_ext/1750042194/sys_fs_media_manager.o
                0x9d091800                SYS_FS_MEDIA_MANAGER_Tasks

.text.TCPIP_IPV6_Process
                0x9d091ec8      0x660
 .text.TCPIP_IPV6_Process
                0x9d091ec8      0x660 build/pic32mz_ef_sk/production/_ext/1164207549/ipv6.o

.text.TCPIP_SNTP_Task
                0x9d092528      0x638
 .text.TCPIP_SNTP_Task
                0x9d092528      0x638 build/pic32mz_ef_sk/production/_ext/1164207549/sntp.o
                0x9d092528                TCPIP_SNTP_Task

.text.TCPIP_IPV6_Task
                0x9d092b60      0x620
 .text.TCPIP_IPV6_Task
                0x9d092b60      0x620 build/pic32mz_ef_sk/production/_ext/1164207549/ipv6.o
                0x9d092b60                TCPIP_IPV6_Task

.text.clientWorker
                0x9d00f9ec      0x608
 .text.clientWorker
                0x9d00f9ec      0x608 build/pic32mz_ef_sk/production/_ext/1360937237/websocket_thread.o
                0x9d00f9ec                clientWorker

.text.TCPIP_ZCLL_Task
                0x9d093180      0x600
 .text.TCPIP_ZCLL_Task
                0x9d093180      0x600 build/pic32mz_ef_sk/production/_ext/1164207549/zero_conf_link_local.o
                0x9d093180                TCPIP_ZCLL_Task

.rodata         0x9d093780      0x5fc
 .rodata        0x9d093780      0x5fc build/pic32mz_ef_sk/production/_ext/1164207549/http.o

.text.TCPIP_COMMAND_Task
                0x9d093d7c      0x5c0
 .text.TCPIP_COMMAND_Task
                0x9d093d7c      0x5c0 build/pic32mz_ef_sk/production/_ext/1164207549/tcpip_commands.o
                0x9d093d7c                TCPIP_COMMAND_Task

.text.TCPIP_STACK_Initialize
                0x9d09433c      0x5a8
 .text.TCPIP_STACK_Initialize
                0x9d09433c      0x5a8 build/pic32mz_ef_sk/production/_ext/1164207549/tcpip_manager.o
                0x9d09433c                TCPIP_STACK_Initialize

.text.TCPIP_IPV6_PacketTransmitInFragments
                0x9d0948e4      0x588
 .text.TCPIP_IPV6_PacketTransmitInFragments
                0x9d0948e4      0x588 build/pic32mz_ef_sk/production/_ext/1164207549/ipv6.o
                0x9d0948e4                TCPIP_IPV6_PacketTransmitInFragments

.rodata         0x9d094e6c      0x584
 .rodata        0x9d094e6c      0x584 build/pic32mz_ef_sk/production/_ext/1164207549/tcpip_manager.o

.text.TCPIP_ARP_Task
                0x9d0953f0      0x548
 .text.TCPIP_ARP_Task
                0x9d0953f0      0x548 build/pic32mz_ef_sk/production/_ext/1164207549/arp.o
                0x9d0953f0                TCPIP_ARP_Task

.text.NET_PRES_Initialize
                0x9d095938      0x518
 .text.NET_PRES_Initialize
                0x9d095938      0x518 build/pic32mz_ef_sk/production/_ext/871719959/net_pres.o
                0x9d095938                NET_PRES_Initialize

.text.wsParseHandshake
                0x9d095e50      0x500
 .text.wsParseHandshake
                0x9d095e50      0x500 build/pic32mz_ef_sk/production/_ext/1360937237/websocket.o
                0x9d095e50                wsParseHandshake

.text.SYS_CMD_Tasks
                0x9d096350      0x4f0
 .text.SYS_CMD_Tasks
                0x9d096350      0x4f0 build/pic32mz_ef_sk/production/_ext/1891376032/sys_command.o
                0x9d096350                SYS_CMD_Tasks

.text.TCPIP_TCP_FifoSizeAdjust
                0x9d096840      0x4c4
 .text.TCPIP_TCP_FifoSizeAdjust
                0x9d096840      0x4c4 build/pic32mz_ef_sk/production/_ext/1164207549/tcp.o
                0x9d096840                TCPIP_TCP_FifoSizeAdjust

.text._Command_NetInfo
                0x9d096d04      0x484
 .text._Command_NetInfo
                0x9d096d04      0x484 build/pic32mz_ef_sk/production/_ext/1164207549/tcpip_commands.o

.text           0x9d097188      0x8bc
 .text          0x9d097188      0x464 c:/program files (x86)/microchip/xc32/v1.44/bin/bin/../../lib/gcc/pic32mx/4.8.3/fpu64\libgcc.a(_umoddi3.o)
                0x9d097188                __umoddi3
 .text          0x9d0975ec      0x458 c:/program files (x86)/microchip/xc32/v1.44/bin/bin/../../lib/gcc/pic32mx/4.8.3/fpu64\libgcc.a(_udivdi3.o)
                0x9d0975ec                __udivdi3

.text.TCPIP_HTTP_Print
                0x9d097a44      0x450
 .text.TCPIP_HTTP_Print
                0x9d097a44      0x450 build/pic32mz_ef_sk/production/_ext/1360937237/http_print.o
                0x9d097a44                TCPIP_HTTP_Print

.text._CommandArp
                0x9d097e94      0x434
 .text._CommandArp
                0x9d097e94      0x434 build/pic32mz_ef_sk/production/_ext/1164207549/tcpip_commands.o

.rodata         0x9d0982c8      0x428
 .rodata        0x9d0982c8      0x428 build/pic32mz_ef_sk/production/_ext/849053718/system_init.o
                0x9d0982c8                TCPIP_STACK_MODULE_CONFIG_TBL
                0x9d098350                tcpipICMPInitData
                0x9d0983a4                TCPIP_HOSTS_CONFIGURATION
                0x9d0983dc                tcpipIPv6InitData
                0x9d0983e4                tcpipDNSClientInitData
                0x9d0983fc                tcpipMACPIC32INTInitData
                0x9d0983fc                tcpipZCLLInitData
                0x9d09841c                tcpipPhyInitData
                0x9d098440                tcpipDHCPInitData
                0x9d098440                tcpipNBNSInitData
                0x9d098450                tcpipSMTPInitData
                0x9d098460                tcpipSNTPInitData
                0x9d09847c                tcpipHTTPInitData
                0x9d09848c                tcpipTCPInitData
                0x9d098494                tcpipUDPInitData
                0x9d09849c                tcpipARPInitData
                0x9d09849c                tcpipAnnounceInitData
                0x9d0984c4                sysTmrInitData
                0x9d0984cc                sysFSInit
                0x9d0984d4                sysfsMountTable
                0x9d09865c                drvUsart0InitData
                0x9d0986a4                drvTmr0InitData
                0x9d0986c0                drvNvmInit
                0x9d0986d4                NVMGeometry

.text.TCPIP_UDP_Flush
                0x9d011404      0x3fc
 .text.TCPIP_UDP_Flush
                0x9d011404      0x3fc build/pic32mz_ef_sk/production/_ext/1164207549/udp.o
                0x9d011404                TCPIP_UDP_Flush

.text.TCPIP_IPV6_FragmentationHeaderProcess
                0x9d0986f0      0x3f0
 .text.TCPIP_IPV6_FragmentationHeaderProcess
                0x9d0986f0      0x3f0 build/pic32mz_ef_sk/production/_ext/1164207549/ipv6.o
                0x9d0986f0                TCPIP_IPV6_FragmentationHeaderProcess

.text.DRV_MIIM_Tasks
                0x9d098ae0      0x3ec
 .text.DRV_MIIM_Tasks
                0x9d098ae0      0x3ec build/pic32mz_ef_sk/production/_ext/1470245908/drv_miim.o
                0x9d098ae0                DRV_MIIM_Tasks

.text.TCPIP_Helper_StringToIPv6Address
                0x9d098ecc      0x3e8
 .text.TCPIP_Helper_StringToIPv6Address
                0x9d098ecc      0x3e8 build/pic32mz_ef_sk/production/_ext/1164207549/tcpip_helpers.o
                0x9d098ecc                TCPIP_Helper_StringToIPv6Address

.text.NET_PRES_SocketOpen
                0x9d0992b4      0x3d4
 .text.NET_PRES_SocketOpen
                0x9d0992b4      0x3d4 build/pic32mz_ef_sk/production/_ext/871719959/net_pres.o
                0x9d0992b4                NET_PRES_SocketOpen

.text._Command_StackOnOff
                0x9d099688      0x3d4
 .text._Command_StackOnOff
                0x9d099688      0x3d4 build/pic32mz_ef_sk/production/_ext/1164207549/tcpip_commands.o

.text._DNS_Send_Query
                0x9d099a5c      0x3c8
 .text._DNS_Send_Query
                0x9d099a5c      0x3c8 build/pic32mz_ef_sk/production/_ext/1164207549/dns.o

.rodata         0x9d099e24      0x3bc
 .rodata        0x9d099e24      0x3bc build/pic32mz_ef_sk/production/_ext/1360937237/custom_http_app.o

.text.DRV_NVM_Tasks
                0x9d09a1e0      0x3b8
 .text.DRV_NVM_Tasks
                0x9d09a1e0      0x3b8 build/pic32mz_ef_sk/production/_ext/184581597/drv_nvm.o
                0x9d09a1e0                DRV_NVM_Tasks

.text.TCPIP_UDP_Task
                0x9d09a598      0x3b8
 .text.TCPIP_UDP_Task
                0x9d09a598      0x3b8 build/pic32mz_ef_sk/production/_ext/1164207549/udp.o
                0x9d09a598                TCPIP_UDP_Task

.text.TCPIP_TCP_ArrayFind
                0x9d09a950      0x398
 .text.TCPIP_TCP_ArrayFind
                0x9d09a950      0x398 build/pic32mz_ef_sk/production/_ext/1164207549/tcp.o
                0x9d09a950                TCPIP_TCP_ArrayFind

.text.TCPIP_DNS_ClientInitialize
                0x9d09ace8      0x398
 .text.TCPIP_DNS_ClientInitialize
                0x9d09ace8      0x398 build/pic32mz_ef_sk/production/_ext/1164207549/dns.o
                0x9d09ace8                TCPIP_DNS_ClientInitialize

.text.Console_UART_Tasks
                0x9d09b080      0x38c
 .text.Console_UART_Tasks
                0x9d09b080      0x38c build/pic32mz_ef_sk/production/_ext/1434663852/sys_console_uart.o
                0x9d09b080                Console_UART_Tasks

.text.TCPIP_IPV6_Flush
                0x9d09b40c      0x38c
 .text.TCPIP_IPV6_Flush
                0x9d09b40c      0x38c build/pic32mz_ef_sk/production/_ext/1164207549/ipv6.o
                0x9d09b40c                TCPIP_IPV6_Flush

.text._CommandDhcpOptions
                0x9d09b798      0x38c
 .text._CommandDhcpOptions
                0x9d09b798      0x38c build/pic32mz_ef_sk/production/_ext/1164207549/tcpip_commands.o

.text.TCPIP_STACK_BringNetUp
                0x9d09bb24      0x378
 .text.TCPIP_STACK_BringNetUp
                0x9d09bb24      0x378 build/pic32mz_ef_sk/production/_ext/1164207549/tcpip_manager.o

.text.TCPIP_ARP_Initialize
                0x9d09be9c      0x374
 .text.TCPIP_ARP_Initialize
                0x9d09be9c      0x374 build/pic32mz_ef_sk/production/_ext/1164207549/arp.o
                0x9d09be9c                TCPIP_ARP_Initialize

.text._DHCPReceive
                0x9d09c210      0x364
 .text._DHCPReceive
                0x9d09c210      0x364 build/pic32mz_ef_sk/production/_ext/1164207549/dhcp.o

.text.TCPIP_STACK_NetConfigSet
                0x9d09c574      0x360
 .text.TCPIP_STACK_NetConfigSet
                0x9d09c574      0x360 build/pic32mz_ef_sk/production/_ext/1164207549/tcpip_manager.o
                0x9d09c574                TCPIP_STACK_NetConfigSet

.text._TCP_Open
                0x9d09c8d4      0x354
 .text._TCP_Open
                0x9d09c8d4      0x354 build/pic32mz_ef_sk/production/_ext/1164207549/tcp.o

.rodata         0x9d09cc28      0x354
 .rodata        0x9d09cc28      0x354 build/pic32mz_ef_sk/production/_ext/1360937237/websocket.o

.text._CommandPing
                0x9d09cf7c      0x34c
 .text._CommandPing
                0x9d09cf7c      0x34c build/pic32mz_ef_sk/production/_ext/1164207549/tcpip_commands.o

.text.sha1mix   0x9d09d2c8      0x340
 .text.sha1mix  0x9d09d2c8      0x340 build/pic32mz_ef_sk/production/_ext/1360937237/websocket.o
                0x9d09d2c8                sha1mix

.text.TCPIP_NBNS_Task
                0x9d09d608      0x330
 .text.TCPIP_NBNS_Task
                0x9d09d608      0x330 build/pic32mz_ef_sk/production/_ext/1164207549/nbns.o
                0x9d09d608                TCPIP_NBNS_Task

.text.TCPIP_NDP_DupAddrDiscoveryStatus
                0x9d09d938      0x324
 .text.TCPIP_NDP_DupAddrDiscoveryStatus
                0x9d09d938      0x324 build/pic32mz_ef_sk/production/_ext/1164207549/ndp.o
                0x9d09d938                TCPIP_NDP_DupAddrDiscoveryStatus

.text._DHCPSend
                0x9d09dc5c      0x31c
 .text._DHCPSend
                0x9d09dc5c      0x31c build/pic32mz_ef_sk/production/_ext/1164207549/dhcp.o

.text.ParseCmdBuffer
                0x9d09df78      0x30c
 .text.ParseCmdBuffer
                0x9d09df78      0x30c build/pic32mz_ef_sk/production/_ext/1891376032/sys_command.o

.text._Command_NetworkOnOff
                0x9d09e284      0x308
 .text._Command_NetworkOnOff
                0x9d09e284      0x308 build/pic32mz_ef_sk/production/_ext/1164207549/tcpip_commands.o

.text._UDPFindMatchingSocket
                0x9d09e58c      0x300
 .text._UDPFindMatchingSocket
                0x9d09e58c      0x300 build/pic32mz_ef_sk/production/_ext/1164207549/udp.o

.text.TCPIP_IPV4_PacketTransmit
                0x9d09e88c      0x2e8
 .text.TCPIP_IPV4_PacketTransmit
                0x9d09e88c      0x2e8 build/pic32mz_ef_sk/production/_ext/1164207549/ipv4.o
                0x9d09e88c                TCPIP_IPV4_PacketTransmit

.text.CommandHelp
                0x9d09eb74      0x2dc
 .text.CommandHelp
                0x9d09eb74      0x2dc build/pic32mz_ef_sk/production/_ext/1891376032/sys_command.o

.text._DNS_ProcessPacket
                0x9d09ee50      0x2dc
 .text._DNS_ProcessPacket
                0x9d09ee50      0x2dc build/pic32mz_ef_sk/production/_ext/1164207549/dns.o

.text.DRV_USART_BufferAddRead
                0x9d09f12c      0x2d4
 .text.DRV_USART_BufferAddRead
                0x9d09f12c      0x2d4 build/pic32mz_ef_sk/production/_ext/821589181/drv_usart_buffer_queue.o
                0x9d09f12c                DRV_USART_BufferAddRead

.text._TcpFindMatchingSocket
                0x9d09f400      0x2d4
 .text._TcpFindMatchingSocket
                0x9d09f400      0x2d4 build/pic32mz_ef_sk/production/_ext/1164207549/tcp.o

.text.TCPIP_UDP_OptionsSet
                0x9d09f6d4      0x2d4
 .text.TCPIP_UDP_OptionsSet
                0x9d09f6d4      0x2d4 build/pic32mz_ef_sk/production/_ext/1164207549/udp.o
                0x9d09f6d4                TCPIP_UDP_OptionsSet

.text.TCPIP_STACK_NetIPv6AddressGet
                0x9d09f9a8      0x2d0
 .text.TCPIP_STACK_NetIPv6AddressGet
                0x9d09f9a8      0x2d0 build/pic32mz_ef_sk/production/_ext/1164207549/tcpip_manager.o
                0x9d09f9a8                TCPIP_STACK_NetIPv6AddressGet

.text.TCPIP_IPV6_TimestampsTaskUpdate
                0x9d09fc78      0x2c8
 .text.TCPIP_IPV6_TimestampsTaskUpdate
                0x9d09fc78      0x2c8 build/pic32mz_ef_sk/production/_ext/1164207549/ipv6.o
                0x9d09fc78                TCPIP_IPV6_TimestampsTaskUpdate

.text.xTaskCreate
                0x9d09ff40      0x2c8
 .text.xTaskCreate
                0x9d09ff40      0x2c8 build/pic32mz_ef_sk/production/_ext/373060831/tasks.o
                0x9d09ff40                xTaskCreate

.text.SYS_FS_FileOpen
                0x9d0a0208      0x2c4
 .text.SYS_FS_FileOpen
                0x9d0a0208      0x2c4 build/pic32mz_ef_sk/production/_ext/1750042194/sys_fs.o
                0x9d0a0208                SYS_FS_FileOpen

.text.TCPIP_IPV4_Task
                0x9d0a04cc      0x2c0
 .text.TCPIP_IPV4_Task
                0x9d0a04cc      0x2c0 build/pic32mz_ef_sk/production/_ext/1164207549/ipv4.o
                0x9d0a04cc                TCPIP_IPV4_Task

.text.TCPIP_ANNOUNCE_Send
                0x9d0a078c      0x2c0
 .text.TCPIP_ANNOUNCE_Send
                0x9d0a078c      0x2c0 build/pic32mz_ef_sk/production/_ext/1164207549/tcpip_announce.o

.text._UDPOpen  0x9d0a0a4c      0x2b0
 .text._UDPOpen
                0x9d0a0a4c      0x2b0 build/pic32mz_ef_sk/production/_ext/1164207549/udp.o

.text.DRV_USART_BufferAddWrite
                0x9d0a0cfc      0x2ac
 .text.DRV_USART_BufferAddWrite
                0x9d0a0cfc      0x2ac build/pic32mz_ef_sk/production/_ext/821589181/drv_usart_buffer_queue.o
                0x9d0a0cfc                DRV_USART_BufferAddWrite

.text.TCPIP_IPV4_PacketFormatTx
                0x9d0a0fa8      0x2ac
 .text.TCPIP_IPV4_PacketFormatTx
                0x9d0a0fa8      0x2ac build/pic32mz_ef_sk/production/_ext/1164207549/ipv4.o
                0x9d0a0fa8                TCPIP_IPV4_PacketFormatTx

.rodata         0x9d0a1254      0x2a4
 .rodata        0x9d0a1254      0x2a4 build/pic32mz_ef_sk/production/_ext/821589181/drv_usart.o

.text.TCPIP_IPV6_HopByHopOptionsHeaderProcess
                0x9d0a14f8      0x2a4
 .text.TCPIP_IPV6_HopByHopOptionsHeaderProcess
                0x9d0a14f8      0x2a4 build/pic32mz_ef_sk/production/_ext/1164207549/ipv6.o
                0x9d0a14f8                TCPIP_IPV6_HopByHopOptionsHeaderProcess

.text.TCPIP_TCP_ArrayPut
                0x9d0a179c      0x29c
 .text.TCPIP_TCP_ArrayPut
                0x9d0a179c      0x29c build/pic32mz_ef_sk/production/_ext/1164207549/tcp.o
                0x9d0a179c                TCPIP_TCP_ArrayPut

.text.TCPIP_IPV6_DestinationOptionsHeaderProcess
                0x9d0a1a38      0x290
 .text.TCPIP_IPV6_DestinationOptionsHeaderProcess
                0x9d0a1a38      0x290 build/pic32mz_ef_sk/production/_ext/1164207549/ipv6.o
                0x9d0a1a38                TCPIP_IPV6_DestinationOptionsHeaderProcess

.text.malloc    0x9d0a1cc8      0x28c
 .text.malloc   0x9d0a1cc8      0x28c c:/program files (x86)/microchip/xc32/v1.44/bin/bin/../../lib/gcc/pic32mx/4.8.3/../../../../pic32mx/lib/fpu64\libc.a(malloc.o)
                0x9d0a1cc8                malloc

.text.DRV_ETHMAC_PIC32MACParametersGet
                0x9d0a1f54      0x288
 .text.DRV_ETHMAC_PIC32MACParametersGet
                0x9d0a1f54      0x288 build/pic32mz_ef_sk/production/_ext/1697634946/drv_ethmac.o
                0x9d0a1f54                DRV_ETHMAC_PIC32MACParametersGet

.text.TCPIP_IPV6_ASCompareSourceAddresses
                0x9d0a21dc      0x284
 .text.TCPIP_IPV6_ASCompareSourceAddresses
                0x9d0a21dc      0x284 build/pic32mz_ef_sk/production/_ext/1164207549/ipv6.o
                0x9d0a21dc                TCPIP_IPV6_ASCompareSourceAddresses

.text._Command_MacInfo
                0x9d0a2460      0x284
 .text._Command_MacInfo
                0x9d0a2460      0x284 build/pic32mz_ef_sk/production/_ext/1164207549/tcpip_commands.o

.text.DRV_USART_Read
                0x9d0a26e4      0x27c
 .text.DRV_USART_Read
                0x9d0a26e4      0x27c build/pic32mz_ef_sk/production/_ext/821589181/drv_usart_read_write.o
                0x9d0a26e4                DRV_USART_Read

.text.TCPIP_HTTP_Initialize
                0x9d0a2960      0x27c
 .text.TCPIP_HTTP_Initialize
                0x9d0a2960      0x27c build/pic32mz_ef_sk/production/_ext/1164207549/http.o
                0x9d0a2960                TCPIP_HTTP_Initialize

.text.SYS_Initialize
                0x9d0a2bdc      0x264
 .text.SYS_Initialize
                0x9d0a2bdc      0x264 build/pic32mz_ef_sk/production/_ext/849053718/system_init.o
                0x9d0a2bdc                SYS_Initialize

.rodata         0x9d0a2e40      0x264
 .rodata        0x9d0a2e40      0x264 build/pic32mz_ef_sk/production/_ext/1891376032/sys_command.o
                0x9d0a307c                sysConsoleApi

.text._TcpCloseSocket
                0x9d0a30a4      0x264
 .text._TcpCloseSocket
                0x9d0a30a4      0x264 build/pic32mz_ef_sk/production/_ext/1164207549/tcp.o

.text.xQueueGenericReceive
                0x9d0a3308      0x264
 .text.xQueueGenericReceive
                0x9d0a3308      0x264 build/pic32mz_ef_sk/production/_ext/373060831/queue.o
                0x9d0a3308                xQueueGenericReceive

.text._Command_IPAddressSet
                0x9d0a356c      0x25c
 .text._Command_IPAddressSet
                0x9d0a356c      0x25c build/pic32mz_ef_sk/production/_ext/1164207549/tcpip_commands.o

.text           0x9d0a37c8      0x25c
 .text          0x9d0a37c8      0x25c build/pic32mz_ef_sk/production/_ext/1164207549/tcpip_helper_c32.o
                0x9d0a37c8                TCPIP_Helper_htonl
                0x9d0a37d4                TCPIP_Helper_htons
                0x9d0a37e0                TCPIP_Helper_htonll
                0x9d0a37f4                TCPIP_Helper_CalcIPChecksum

.text._LoadNetworkConfig
                0x9d0a3a24      0x25c
 .text._LoadNetworkConfig
                0x9d0a3a24      0x25c build/pic32mz_ef_sk/production/_ext/1164207549/tcpip_manager.o

.text.DRV_NVM_EraseWrite
                0x9d0a3c80      0x250
 .text.DRV_NVM_EraseWrite
                0x9d0a3c80      0x250 build/pic32mz_ef_sk/production/_ext/184581597/drv_nvm_erasewrite.o
                0x9d0a3c80                DRV_NVM_EraseWrite

.text.DRV_ETHMAC_PIC32MACPacketRx
                0x9d0a3ed0      0x24c
 .text.DRV_ETHMAC_PIC32MACPacketRx
                0x9d0a3ed0      0x24c build/pic32mz_ef_sk/production/_ext/1697634946/drv_ethmac.o
                0x9d0a3ed0                DRV_ETHMAC_PIC32MACPacketRx

.text.TCPIP_DNS_EntryQuery
                0x9d0a411c      0x23c
 .text.TCPIP_DNS_EntryQuery
                0x9d0a411c      0x23c build/pic32mz_ef_sk/production/_ext/1164207549/dns.o
                0x9d0a411c                TCPIP_DNS_EntryQuery

.text.TCPIP_IPV6_TxPacketStructCopy
                0x9d0a4358      0x238
 .text.TCPIP_IPV6_TxPacketStructCopy
                0x9d0a4358      0x238 build/pic32mz_ef_sk/production/_ext/1164207549/ipv6.o
                0x9d0a4358                TCPIP_IPV6_TxPacketStructCopy

.text.TCPIP_IPV6_PacketTransmit
                0x9d0a4590      0x238
 .text.TCPIP_IPV6_PacketTransmit
                0x9d0a4590      0x238 build/pic32mz_ef_sk/production/_ext/1164207549/ipv6.o
                0x9d0a4590                TCPIP_IPV6_PacketTransmit

.text.TCPIP_DHCP_Initialize
                0x9d0a47c8      0x238
 .text.TCPIP_DHCP_Initialize
                0x9d0a47c8      0x238 build/pic32mz_ef_sk/production/_ext/1164207549/dhcp.o
                0x9d0a47c8                TCPIP_DHCP_Initialize

.text._DHCPOptionHostName
                0x9d0a4a00      0x234
 .text._DHCPOptionHostName
                0x9d0a4a00      0x234 build/pic32mz_ef_sk/production/_ext/1164207549/dhcp.o

.text.SYS_TMR_Tasks
                0x9d0a4c34      0x230
 .text.SYS_TMR_Tasks
                0x9d0a4c34      0x230 build/pic32mz_ef_sk/production/_ext/2110151058/sys_tmr.o
                0x9d0a4c34                SYS_TMR_Tasks

.text.wsGetHandshakeAnswer
                0x9d0a4e64      0x230
 .text.wsGetHandshakeAnswer
                0x9d0a4e64      0x230 build/pic32mz_ef_sk/production/_ext/1360937237/websocket.o
                0x9d0a4e64                wsGetHandshakeAnswer

.text._DRV_NVM_BlockOperation
                0x9d0a5094      0x22c
 .text._DRV_NVM_BlockOperation
                0x9d0a5094      0x22c build/pic32mz_ef_sk/production/_ext/184581597/drv_nvm.o
                0x9d0a5094                _DRV_NVM_BlockOperation

.text.DRV_ETHMAC_LibRxBuffersAppend
                0x9d0a52c0      0x224
 .text.DRV_ETHMAC_LibRxBuffersAppend
                0x9d0a52c0      0x224 build/pic32mz_ef_sk/production/_ext/1697634946/drv_ethmac_lib.o
                0x9d0a52c0                DRV_ETHMAC_LibRxBuffersAppend

.text.TCPIP_ICMP_Task
                0x9d0a54e4      0x220
 .text.TCPIP_ICMP_Task
                0x9d0a54e4      0x220 build/pic32mz_ef_sk/production/_ext/1164207549/icmp.o
                0x9d0a54e4                TCPIP_ICMP_Task

.text._Command_AddressService
                0x9d0a5704      0x218
 .text._Command_AddressService
                0x9d0a5704      0x218 build/pic32mz_ef_sk/production/_ext/1164207549/tcpip_commands.o

.text.TCPIP_UDP_SocketInfoGet
                0x9d0a591c      0x214
 .text.TCPIP_UDP_SocketInfoGet
                0x9d0a591c      0x214 build/pic32mz_ef_sk/production/_ext/1164207549/udp.o
                0x9d0a591c                TCPIP_UDP_SocketInfoGet

.text.TCPIP_IPV6_UnicastAddressAdd
                0x9d0a5b30      0x210
 .text.TCPIP_IPV6_UnicastAddressAdd
                0x9d0a5b30      0x210 build/pic32mz_ef_sk/production/_ext/1164207549/ipv6.o
                0x9d0a5b30                TCPIP_IPV6_UnicastAddressAdd

.text.xQueueGenericSend
                0x9d0a5d40      0x20c
 .text.xQueueGenericSend
                0x9d0a5d40      0x20c build/pic32mz_ef_sk/production/_ext/373060831/queue.o
                0x9d0a5d40                xQueueGenericSend

.text.APP_Tasks
                0x9d0a5f4c      0x208
 .text.APP_Tasks
                0x9d0a5f4c      0x208 build/pic32mz_ef_sk/production/_ext/1360937237/app.o
                0x9d0a5f4c                APP_Tasks

.text.DRV_USART_Open
                0x9d0a6154      0x208
 .text.DRV_USART_Open
                0x9d0a6154      0x208 build/pic32mz_ef_sk/production/_ext/821589181/drv_usart.o
                0x9d0a6154                DRV_USART_Open

.text.DRV_USART_Initialize
                0x9d0a635c      0x208
 .text.DRV_USART_Initialize
                0x9d0a635c      0x208 build/pic32mz_ef_sk/production/_ext/821589181/drv_usart.o
                0x9d0a635c                DRV_USART_Initialize

.text._DRV_USART_BufferQueueTxTasks
                0x9d0a6564      0x208
 .text._DRV_USART_BufferQueueTxTasks
                0x9d0a6564      0x208 build/pic32mz_ef_sk/production/_ext/821589181/drv_usart.o
                0x9d0a6564                _DRV_USART_BufferQueueTxTasks

.text.TCPIP_IPV6_PacketSegmentInsert
                0x9d0a676c      0x204
 .text.TCPIP_IPV6_PacketSegmentInsert
                0x9d0a676c      0x204 build/pic32mz_ef_sk/production/_ext/1164207549/ipv6.o
                0x9d0a676c                TCPIP_IPV6_PacketSegmentInsert

.text.TCPIP_ANNOUNCE_Initialize
                0x9d0a6970      0x200
 .text.TCPIP_ANNOUNCE_Initialize
                0x9d0a6970      0x200 build/pic32mz_ef_sk/production/_ext/1164207549/tcpip_announce.o
                0x9d0a6970                TCPIP_ANNOUNCE_Initialize

.text.SYS_PORTS_Initialize
                0x9d0a6b70      0x1fc
 .text.SYS_PORTS_Initialize
                0x9d0a6b70      0x1fc build/pic32mz_ef_sk/production/_ext/1009894383/sys_ports_static.o
                0x9d0a6b70                SYS_PORTS_Initialize

.text.sha1      0x9d0a6d6c      0x1fc
 .text.sha1     0x9d0a6d6c      0x1fc build/pic32mz_ef_sk/production/_ext/1360937237/websocket.o

.text._TCPIP_HEAP_Free
                0x9d0a6f68      0x1f4
 .text._TCPIP_HEAP_Free
                0x9d0a6f68      0x1f4 build/pic32mz_ef_sk/production/_ext/1164207549/tcpip_heap_internal.o

.text._DRV_ETHPHY_SetupPhaseDetect
                0x9d0a715c      0x1f0
 .text._DRV_ETHPHY_SetupPhaseDetect
                0x9d0a715c      0x1f0 build/pic32mz_ef_sk/production/_ext/521481140/drv_ethphy.o

.text._DNS_IsNameResolved
                0x9d0a734c      0x1dc
 .text._DNS_IsNameResolved
                0x9d0a734c      0x1dc build/pic32mz_ef_sk/production/_ext/1164207549/dns.o

.text.TCPIP_UDP_Bind
                0x9d0a7528      0x1d8
 .text.TCPIP_UDP_Bind
                0x9d0a7528      0x1d8 build/pic32mz_ef_sk/production/_ext/1164207549/udp.o
                0x9d0a7528                TCPIP_UDP_Bind

.text._DNS_RESPONSE_HashEntryUpdate
                0x9d0a7700      0x1d8
 .text._DNS_RESPONSE_HashEntryUpdate
                0x9d0a7700      0x1d8 build/pic32mz_ef_sk/production/_ext/1164207549/dns.o

.text.DRV_ETHMAC_PIC32MACPacketTx
                0x9d0a78d8      0x1d4
 .text.DRV_ETHMAC_PIC32MACPacketTx
                0x9d0a78d8      0x1d4 build/pic32mz_ef_sk/production/_ext/1697634946/drv_ethmac.o
                0x9d0a78d8                DRV_ETHMAC_PIC32MACPacketTx

.text.strtoul   0x9d0a7aac      0x1d4
 .text.strtoul  0x9d0a7aac      0x1d4 c:/program files (x86)/microchip/xc32/v1.44/bin/bin/../../lib/gcc/pic32mx/4.8.3/../../../../pic32mx/lib/fpu64\libc.a(strtol.o)
                0x9d0a7aac                strtoul

.text.scale     0x9d0a7c80      0x1d4
 .text.scale    0x9d0a7c80      0x1d4 c:/program files (x86)/microchip/xc32/v1.44/bin/bin/../../lib/gcc/pic32mx/4.8.3/../../../../pic32mx/lib/fpu64\libc.a(doprnt.o)

.text.TCPIP_IPV6_Initialize
                0x9d0a7e54      0x1d0
 .text.TCPIP_IPV6_Initialize
                0x9d0a7e54      0x1d0 build/pic32mz_ef_sk/production/_ext/1164207549/ipv6.o
                0x9d0a7e54                TCPIP_IPV6_Initialize

.text.TCPIP_DNS_ClientTask
                0x9d0a8024      0x1d0
 .text.TCPIP_DNS_ClientTask
                0x9d0a8024      0x1d0 build/pic32mz_ef_sk/production/_ext/1164207549/dns.o
                0x9d0a8024                TCPIP_DNS_ClientTask

.text._DRV_USART_HardwareSetup
                0x9d0a81f4      0x1cc
 .text._DRV_USART_HardwareSetup
                0x9d0a81f4      0x1cc build/pic32mz_ef_sk/production/_ext/821589181/drv_usart.o
                0x9d0a81f4                _DRV_USART_HardwareSetup

.text._UDPv4TxAckFnc
                0x9d0a83c0      0x1cc
 .text._UDPv4TxAckFnc
                0x9d0a83c0      0x1cc build/pic32mz_ef_sk/production/_ext/1164207549/udp.o

.text.TCPIP_Helper_StringToIPAddress
                0x9d0a858c      0x1cc
 .text.TCPIP_Helper_StringToIPAddress
                0x9d0a858c      0x1cc build/pic32mz_ef_sk/production/_ext/1164207549/tcpip_helpers.o
                0x9d0a858c                TCPIP_Helper_StringToIPAddress

.text._DRV_ETHMAC_AddRxBuffers
                0x9d0a8758      0x1c8
 .text._DRV_ETHMAC_AddRxBuffers
                0x9d0a8758      0x1c8 build/pic32mz_ef_sk/production/_ext/1697634946/drv_ethmac.o

.text.TCPIP_TCP_Initialize
                0x9d0a8920      0x1c8
 .text.TCPIP_TCP_Initialize
                0x9d0a8920      0x1c8 build/pic32mz_ef_sk/production/_ext/1164207549/tcp.o
                0x9d0a8920                TCPIP_TCP_Initialize

.text.TCPIP_ARP_EntryRemoveNet
                0x9d0a8ae8      0x1c8
 .text.TCPIP_ARP_EntryRemoveNet
                0x9d0a8ae8      0x1c8 build/pic32mz_ef_sk/production/_ext/1164207549/arp.o
                0x9d0a8ae8                TCPIP_ARP_EntryRemoveNet

.text._DRV_MIIM_ClientDeallocate
                0x9d0a8cb0      0x1c4
 .text._DRV_MIIM_ClientDeallocate
                0x9d0a8cb0      0x1c4 build/pic32mz_ef_sk/production/_ext/1470245908/drv_miim.o

.text.TCPIP_UDP_OptionsGet
                0x9d0a8e74      0x1c4
 .text.TCPIP_UDP_OptionsGet
                0x9d0a8e74      0x1c4 build/pic32mz_ef_sk/production/_ext/1164207549/udp.o
                0x9d0a8e74                TCPIP_UDP_OptionsGet

.text.wc_Md5Final
                0x9d0a9038      0x1bc
 .text.wc_Md5Final
                0x9d0a9038      0x1bc build/pic32mz_ef_sk/production/_ext/29024758/md5.o
                0x9d0a9038                wc_Md5Final

.text._EthAckPacket
                0x9d0a91f4      0x1bc
 .text._EthAckPacket
                0x9d0a91f4      0x1bc build/pic32mz_ef_sk/production/_ext/1697634946/drv_ethmac_lib.o

.text.DRV_NVM_Read
                0x9d0a93b0      0x1b8
 .text.DRV_NVM_Read
                0x9d0a93b0      0x1b8 build/pic32mz_ef_sk/production/_ext/184581597/drv_nvm.o
                0x9d0a93b0                DRV_NVM_Read

.text.MPFS_DirRead
                0x9d0a9568      0x1b4
 .text.MPFS_DirRead
                0x9d0a9568      0x1b4 build/pic32mz_ef_sk/production/_ext/614935175/mpfs.o
                0x9d0a9568                MPFS_DirRead

.text.DRV_ETHMAC_LibRxAcknowledgeBuffer
                0x9d0a971c      0x1b0
 .text.DRV_ETHMAC_LibRxAcknowledgeBuffer
                0x9d0a971c      0x1b0 build/pic32mz_ef_sk/production/_ext/1697634946/drv_ethmac_lib.o
                0x9d0a971c                DRV_ETHMAC_LibRxAcknowledgeBuffer

.text._DNS_Resolve
                0x9d0a98cc      0x1b0
 .text._DNS_Resolve
                0x9d0a98cc      0x1b0 build/pic32mz_ef_sk/production/_ext/1164207549/dns.o

.text.SYS_FS_Mount
                0x9d0a9a7c      0x1ac
 .text.SYS_FS_Mount
                0x9d0a9a7c      0x1ac build/pic32mz_ef_sk/production/_ext/1750042194/sys_fs.o
                0x9d0a9a7c                SYS_FS_Mount

.text.TCPIP_UDP_ArrayGet
                0x9d0a9c28      0x1ac
 .text.TCPIP_UDP_ArrayGet
                0x9d0a9c28      0x1ac build/pic32mz_ef_sk/production/_ext/1164207549/udp.o
                0x9d0a9c28                TCPIP_UDP_ArrayGet

.text.TCPIP_UDP_PutIsReady
                0x9d0a9dd4      0x1a4
 .text.TCPIP_UDP_PutIsReady
                0x9d0a9dd4      0x1a4 build/pic32mz_ef_sk/production/_ext/1164207549/udp.o
                0x9d0a9dd4                TCPIP_UDP_PutIsReady

.text._DNS_GetAddresses
                0x9d0a9f78      0x1a4
 .text._DNS_GetAddresses
                0x9d0a9f78      0x1a4 build/pic32mz_ef_sk/production/_ext/1164207549/dns.o

.text.TCPIP_Helper_Base64Decode
                0x9d0aa11c      0x1a4
 .text.TCPIP_Helper_Base64Decode
                0x9d0aa11c      0x1a4 build/pic32mz_ef_sk/production/_ext/1164207549/tcpip_helpers.o
                0x9d0aa11c                TCPIP_Helper_Base64Decode

.text.DRV_TMR_Initialize
                0x9d0aa2c0      0x1a0
 .text.DRV_TMR_Initialize
                0x9d0aa2c0      0x1a0 build/pic32mz_ef_sk/production/_ext/941160041/drv_tmr.o
                0x9d0aa2c0                DRV_TMR_Initialize

.text._Tcpv4TxAckFnc
                0x9d0aa460      0x1a0
 .text._Tcpv4TxAckFnc
                0x9d0aa460      0x1a0 build/pic32mz_ef_sk/production/_ext/1164207549/tcp.o

.text.TCPIP_UDP_Deinitialize
                0x9d0aa600      0x1a0
 .text.TCPIP_UDP_Deinitialize
                0x9d0aa600      0x1a0 build/pic32mz_ef_sk/production/_ext/1164207549/udp.o
                0x9d0aa600                TCPIP_UDP_Deinitialize

.rodata         0x9d0aa7a0      0x1a0
 .rodata        0x9d0aa7a0      0x1a0 build/pic32mz_ef_sk/production/_ext/1360937237/websocket_thread.o

.text           0x9d0aa940      0x1a0
 .text          0x9d0aa940      0x1a0 c:/program files (x86)/microchip/xc32/v1.44/bin/bin/../../lib/gcc/pic32mx/4.8.3/../../../../pic32mx/lib/fpu64\libpic32.a(strcpy.o)
                0x9d0aa940                strcpy

.text.MPFSFindFile
                0x9d0aaae0      0x19c
 .text.MPFSFindFile
                0x9d0aaae0      0x19c build/pic32mz_ef_sk/production/_ext/614935175/mpfs.o

.text.strtol    0x9d0aac7c      0x19c
 .text.strtol   0x9d0aac7c      0x19c c:/program files (x86)/microchip/xc32/v1.44/bin/bin/../../lib/gcc/pic32mx/4.8.3/../../../../pic32mx/lib/fpu64\libc.a(strtol.o)
                0x9d0aac7c                strtol

.text.DRV_EXTPHY_MDIXConfigure
                0x9d0aae18      0x198
 .text.DRV_EXTPHY_MDIXConfigure
                0x9d0aae18      0x198 build/pic32mz_ef_sk/production/_ext/521481140/drv_extphy_smsc8740.o

.text._DRV_MIIM_StartOp
                0x9d0aafb0      0x198
 .text._DRV_MIIM_StartOp
                0x9d0aafb0      0x198 build/pic32mz_ef_sk/production/_ext/1470245908/drv_miim.o

.text._ARPProbeAddress
                0x9d0ab148      0x198
 .text._ARPProbeAddress
                0x9d0ab148      0x198 build/pic32mz_ef_sk/production/_ext/1164207549/arp.o

.text.TCPIP_ICMP_EchoRequest
                0x9d0ab2e0      0x198
 .text.TCPIP_ICMP_EchoRequest
                0x9d0ab2e0      0x198 build/pic32mz_ef_sk/production/_ext/1164207549/icmp.o
                0x9d0ab2e0                TCPIP_ICMP_EchoRequest

.text.DRV_ETHMAC_LibRxGetPacket
                0x9d0ab478      0x194
 .text.DRV_ETHMAC_LibRxGetPacket
                0x9d0ab478      0x194 build/pic32mz_ef_sk/production/_ext/1697634946/drv_ethmac_lib.o
                0x9d0ab478                DRV_ETHMAC_LibRxGetPacket

.text.NET_PRES_SocketWriteIsReady
                0x9d0ab60c      0x194
 .text.NET_PRES_SocketWriteIsReady
                0x9d0ab60c      0x194 build/pic32mz_ef_sk/production/_ext/871719959/net_pres.o
                0x9d0ab60c                NET_PRES_SocketWriteIsReady

.text.TCPIP_TCP_OptionsSet
                0x9d0ab7a0      0x194
 .text.TCPIP_TCP_OptionsSet
                0x9d0ab7a0      0x194 build/pic32mz_ef_sk/production/_ext/1164207549/tcp.o
                0x9d0ab7a0                TCPIP_TCP_OptionsSet

.text._sbrk_init
                0x9d0ab934      0x194
 .text._sbrk_init
                0x9d0ab934      0x194 c:/program files (x86)/microchip/xc32/v1.44/bin/bin/../../lib/gcc/pic32mx/4.8.3/../../../../pic32mx/lib/fpu64\libpic32.a(sbrk.o)
                0x9d0ab934                _sbrk_init

.text.TCPIP_IPV6_ArrayPutHelper
                0x9d0abac8      0x190
 .text.TCPIP_IPV6_ArrayPutHelper
                0x9d0abac8      0x190 build/pic32mz_ef_sk/production/_ext/1164207549/ipv6.o
                0x9d0abac8                TCPIP_IPV6_ArrayPutHelper

.text._HTTP_ReadTo
                0x9d0abc58      0x190
 .text._HTTP_ReadTo
                0x9d0abc58      0x190 build/pic32mz_ef_sk/production/_ext/1164207549/http.o

.text.TCPIP_TCP_ArrayGet
                0x9d0abde8      0x18c
 .text.TCPIP_TCP_ArrayGet
                0x9d0abde8      0x18c build/pic32mz_ef_sk/production/_ext/1164207549/tcp.o
                0x9d0abde8                TCPIP_TCP_ArrayGet

.text._UDPsetPacketInfo
                0x9d0abf74      0x18c
 .text._UDPsetPacketInfo
                0x9d0abf74      0x18c build/pic32mz_ef_sk/production/_ext/1164207549/udp.o

.text.TCPIP_SNTP_Initialize
                0x9d0ac100      0x18c
 .text.TCPIP_SNTP_Initialize
                0x9d0ac100      0x18c build/pic32mz_ef_sk/production/_ext/1164207549/sntp.o
                0x9d0ac100                TCPIP_SNTP_Initialize

.text.TCPIP_Helper_Base64Encode
                0x9d0ac28c      0x18c
 .text.TCPIP_Helper_Base64Encode
                0x9d0ac28c      0x18c build/pic32mz_ef_sk/production/_ext/1164207549/tcpip_helpers.o
                0x9d0ac28c                TCPIP_Helper_Base64Encode

.text.SYS_FS_FileSeek
                0x9d0ac418      0x188
 .text.SYS_FS_FileSeek
                0x9d0ac418      0x188 build/pic32mz_ef_sk/production/_ext/1750042194/sys_fs.o
                0x9d0ac418                SYS_FS_FileSeek

.text.TCPIP_TCP_SocketInfoGet
                0x9d0ac5a0      0x188
 .text.TCPIP_TCP_SocketInfoGet
                0x9d0ac5a0      0x188 build/pic32mz_ef_sk/production/_ext/1164207549/tcp.o
                0x9d0ac5a0                TCPIP_TCP_SocketInfoGet

.text.TCPIP_HEAP_CreateInternal
                0x9d0ac728      0x188
 .text.TCPIP_HEAP_CreateInternal
                0x9d0ac728      0x188 build/pic32mz_ef_sk/production/_ext/1164207549/tcpip_heap_internal.o
                0x9d0ac728                TCPIP_HEAP_CreateInternal

.text._filbuf   0x9d0ac8b0      0x188
 .text._filbuf  0x9d0ac8b0      0x188 c:/program files (x86)/microchip/xc32/v1.44/bin/bin/../../lib/gcc/pic32mx/4.8.3/../../../../pic32mx/lib/fpu64\libc.a(filbuf.o)
                0x9d0ac8b0                _filbuf

.text._TcpClientSocketConnect
                0x9d0aca38      0x184
 .text._TcpClientSocketConnect
                0x9d0aca38      0x184 build/pic32mz_ef_sk/production/_ext/1164207549/tcp.o

.text.TCPIP_NDP_SAAPrefixInfoProcess
                0x9d0acbbc      0x180
 .text.TCPIP_NDP_SAAPrefixInfoProcess
                0x9d0acbbc      0x180 build/pic32mz_ef_sk/production/_ext/1164207549/ndp.o
                0x9d0acbbc                TCPIP_NDP_SAAPrefixInfoProcess

.text._Command_HeapInfo
                0x9d0acd3c      0x180
 .text._Command_HeapInfo
                0x9d0acd3c      0x180 build/pic32mz_ef_sk/production/_ext/1164207549/tcpip_commands.o

.text._DRV_ETHPHY_NegResultPhase_ANAD
                0x9d0acebc      0x17c
 .text._DRV_ETHPHY_NegResultPhase_ANAD
                0x9d0acebc      0x17c build/pic32mz_ef_sk/production/_ext/521481140/drv_ethphy.o

.text._Command_GatewayAddressSet
                0x9d0ad038      0x17c
 .text._Command_GatewayAddressSet
                0x9d0ad038      0x17c build/pic32mz_ef_sk/production/_ext/1164207549/tcpip_commands.o

.text.CommandPingHandler
                0x9d0ad1b4      0x17c
 .text.CommandPingHandler
                0x9d0ad1b4      0x17c build/pic32mz_ef_sk/production/_ext/1164207549/tcpip_commands.o

.text.DRV_ETHMAC_LibTxSendPacket
                0x9d0ad330      0x178
 .text.DRV_ETHMAC_LibTxSendPacket
                0x9d0ad330      0x178 build/pic32mz_ef_sk/production/_ext/1697634946/drv_ethmac_lib.o
                0x9d0ad330                DRV_ETHMAC_LibTxSendPacket

.text._DRV_PHY_SMITransferDo
                0x9d0ad4a8      0x178
 .text._DRV_PHY_SMITransferDo
                0x9d0ad4a8      0x178 build/pic32mz_ef_sk/production/_ext/521481140/drv_ethphy.o

.text.TCPIP_NDP_LinkedListEntryRemove
                0x9d0ad620      0x178
 .text.TCPIP_NDP_LinkedListEntryRemove
                0x9d0ad620      0x178 build/pic32mz_ef_sk/production/_ext/1164207549/ndp.o
                0x9d0ad620                TCPIP_NDP_LinkedListEntryRemove

.text.TCPIP_UDP_RemoteBind
                0x9d0ad798      0x178
 .text.TCPIP_UDP_RemoteBind
                0x9d0ad798      0x178 build/pic32mz_ef_sk/production/_ext/1164207549/udp.o
                0x9d0ad798                TCPIP_UDP_RemoteBind

.text.TCPIP_HTTP_FileInclude
                0x9d0ad910      0x178
 .text.TCPIP_HTTP_FileInclude
                0x9d0ad910      0x178 build/pic32mz_ef_sk/production/_ext/1164207549/http.o
                0x9d0ad910                TCPIP_HTTP_FileInclude

.text._ZeroconfARPPktNotify
                0x9d0ada88      0x178
 .text._ZeroconfARPPktNotify
                0x9d0ada88      0x178 build/pic32mz_ef_sk/production/_ext/1164207549/zero_conf_link_local.o

.text.WS_SERVER_Tasks
                0x9d0adc00      0x174
 .text.WS_SERVER_Tasks
                0x9d0adc00      0x174 build/pic32mz_ef_sk/production/_ext/1360937237/ws_server.o
                0x9d0adc00                WS_SERVER_Tasks

.text.DRV_EXTPHY_MIIConfigure
                0x9d0add74      0x174
 .text.DRV_EXTPHY_MIIConfigure
                0x9d0add74      0x174 build/pic32mz_ef_sk/production/_ext/521481140/drv_extphy_smsc8740.o

.text.TCPIP_UDP_Initialize
                0x9d0adee8      0x174
 .text.TCPIP_UDP_Initialize
                0x9d0adee8      0x174 build/pic32mz_ef_sk/production/_ext/1164207549/udp.o
                0x9d0adee8                TCPIP_UDP_Initialize

.text._DRV_USART_BufferQueueRxTasks
                0x9d0ae05c      0x170
 .text._DRV_USART_BufferQueueRxTasks
                0x9d0ae05c      0x170 build/pic32mz_ef_sk/production/_ext/821589181/drv_usart.o
                0x9d0ae05c                _DRV_USART_BufferQueueRxTasks

.text.TCPIP_IPV6_DataSegmentGetByType
                0x9d0ae1cc      0x170
 .text.TCPIP_IPV6_DataSegmentGetByType
                0x9d0ae1cc      0x170 build/pic32mz_ef_sk/production/_ext/1164207549/ipv6.o
                0x9d0ae1cc                TCPIP_IPV6_DataSegmentGetByType

.text.TCPIP_IPV6_FragmentTask
                0x9d0ae33c      0x170
 .text.TCPIP_IPV6_FragmentTask
                0x9d0ae33c      0x170 build/pic32mz_ef_sk/production/_ext/1164207549/ipv6.o
                0x9d0ae33c                TCPIP_IPV6_FragmentTask

.text.TCPIP_TCP_Deinitialize
                0x9d0ae4ac      0x16c
 .text.TCPIP_TCP_Deinitialize
                0x9d0ae4ac      0x16c build/pic32mz_ef_sk/production/_ext/1164207549/tcp.o
                0x9d0ae4ac                TCPIP_TCP_Deinitialize

.text.DRV_MIIM_Setup
                0x9d0ae618      0x168
 .text.DRV_MIIM_Setup
                0x9d0ae618      0x168 build/pic32mz_ef_sk/production/_ext/1470245908/drv_miim.o
                0x9d0ae618                DRV_MIIM_Setup

.text.wsParseInputFrame
                0x9d0ae780      0x168
 .text.wsParseInputFrame
                0x9d0ae780      0x168 build/pic32mz_ef_sk/production/_ext/1360937237/websocket.o
                0x9d0ae780                wsParseInputFrame

.text           0x9d0ae8e8      0x2d0
 .text          0x9d0ae8e8      0x168 c:/program files (x86)/microchip/xc32/v1.44/bin/bin/../../lib/gcc/pic32mx/4.8.3/../../../../pic32mx/lib/fpu64\libpic32.a(memcpy.o)
                0x9d0ae8e8                memcpy
 .text          0x9d0aea50      0x168 c:/program files (x86)/microchip/xc32/v1.44/bin/bin/../../lib/gcc/pic32mx/4.8.3/../../../../pic32mx/lib/fpu64\libpic32.a(strlen.o)
                0x9d0aea50                strlen

.text._DHCPStartOperation
                0x9d0aebb8      0x164
 .text._DHCPStartOperation
                0x9d0aebb8      0x164 build/pic32mz_ef_sk/production/_ext/1164207549/dhcp.o

.text._DHCPProcessReceiveData
                0x9d0aed1c      0x164
 .text._DHCPProcessReceiveData
                0x9d0aed1c      0x164 build/pic32mz_ef_sk/production/_ext/1164207549/dhcp.o

.text.xTaskIncrementTick
                0x9d0aee80      0x164
 .text.xTaskIncrementTick
                0x9d0aee80      0x164 build/pic32mz_ef_sk/production/_ext/373060831/tasks.o
                0x9d0aee80                xTaskIncrementTick

.text.TCPIP_HTTP_GetExecute
                0x9d0aefe4      0x160
 .text.TCPIP_HTTP_GetExecute
                0x9d0aefe4      0x160 build/pic32mz_ef_sk/production/_ext/1360937237/custom_http_app.o
                0x9d0aefe4                TCPIP_HTTP_GetExecute

.text.NET_PRES_Tasks
                0x9d0af144      0x160
 .text.NET_PRES_Tasks
                0x9d0af144      0x160 build/pic32mz_ef_sk/production/_ext/871719959/net_pres.o
                0x9d0af144                NET_PRES_Tasks

.text.TCPIP_IPV4_SelectSourceInterface
                0x9d0af2a4      0x160
 .text.TCPIP_IPV4_SelectSourceInterface
                0x9d0af2a4      0x160 build/pic32mz_ef_sk/production/_ext/1164207549/ipv4.o
                0x9d0af2a4                TCPIP_IPV4_SelectSourceInterface

.text.TCPIP_IPV6_DASPolicyGet
                0x9d0af404      0x160
 .text.TCPIP_IPV6_DASPolicyGet
                0x9d0af404      0x160 build/pic32mz_ef_sk/production/_ext/1164207549/ipv6.o
                0x9d0af404                TCPIP_IPV6_DASPolicyGet

.rodata         0x9d0af568      0x160
 .rodata        0x9d0af568      0x160 c:/program files (x86)/microchip/xc32/v1.44/bin/bin/../../lib/gcc/pic32mx/4.8.3/../../../../pic32mx/lib/fpu64\libc.a(ldpowers.o)
                0x9d0af568                _npowers_
                0x9d0af618                _powers_

.text._DRV_ETHPHY_SetupPhaseReset
                0x9d0af6c8      0x15c
 .text._DRV_ETHPHY_SetupPhaseReset
                0x9d0af6c8      0x15c build/pic32mz_ef_sk/production/_ext/521481140/drv_ethphy.o

.rodata         0x9d0af824      0x158
 .rodata        0x9d0af824      0x158 build/pic32mz_ef_sk/production/_ext/849053718/system_exceptions.o

.text.TCPIP_HTTP_Print_uploadedmd5
                0x9d0af97c      0x158
 .text.TCPIP_HTTP_Print_uploadedmd5
                0x9d0af97c      0x158 build/pic32mz_ef_sk/production/_ext/1360937237/custom_http_app.o
                0x9d0af97c                TCPIP_HTTP_Print_uploadedmd5

.text.DRV_ETHMAC_PIC32MACTasks
                0x9d0afad4      0x158
 .text.DRV_ETHMAC_PIC32MACTasks
                0x9d0afad4      0x158 build/pic32mz_ef_sk/production/_ext/1697634946/drv_ethmac.o
                0x9d0afad4                DRV_ETHMAC_PIC32MACTasks

.text.TCPIP_NDP_NborEntryCreate
                0x9d0afc2c      0x158
 .text.TCPIP_NDP_NborEntryCreate
                0x9d0afc2c      0x158 build/pic32mz_ef_sk/production/_ext/1164207549/ndp.o
                0x9d0afc2c                TCPIP_NDP_NborEntryCreate

.text.TCPIP_IPV6_DASSourceAddressSelect
                0x9d0afd84      0x158
 .text.TCPIP_IPV6_DASSourceAddressSelect
                0x9d0afd84      0x158 build/pic32mz_ef_sk/production/_ext/1164207549/ipv6.o
                0x9d0afd84                TCPIP_IPV6_DASSourceAddressSelect

.text.TCPIP_TCP_OptionsGet
                0x9d0afedc      0x158
 .text.TCPIP_TCP_OptionsGet
                0x9d0afedc      0x158 build/pic32mz_ef_sk/production/_ext/1164207549/tcp.o
                0x9d0afedc                TCPIP_TCP_OptionsGet

.text.read      0x9d0b0034      0x158
 .text.read     0x9d0b0034      0x158 c:/program files (x86)/microchip/xc32/v1.44/bin/bin/../../lib/gcc/pic32mx/4.8.3/../../../../pic32mx/lib/fpu64\libpic32.a(read.o)
                0x9d0b0034                read

.text._SYS_TMR_AlarmCallback
                0x9d0b018c      0x154
 .text._SYS_TMR_AlarmCallback
                0x9d0b018c      0x154 build/pic32mz_ef_sk/production/_ext/2110151058/sys_tmr.o

.text.TCPIP_TCP_Bind
                0x9d0b02e0      0x154
 .text.TCPIP_TCP_Bind
                0x9d0b02e0      0x154 build/pic32mz_ef_sk/production/_ext/1164207549/tcp.o
                0x9d0b02e0                TCPIP_TCP_Bind

.text._ARPSendIfPkt
                0x9d0b0434      0x154
 .text._ARPSendIfPkt
                0x9d0b0434      0x154 build/pic32mz_ef_sk/production/_ext/1164207549/arp.o

.text.wsMakeFrame
                0x9d0b0588      0x154
 .text.wsMakeFrame
                0x9d0b0588      0x154 build/pic32mz_ef_sk/production/_ext/1360937237/websocket.o
                0x9d0b0588                wsMakeFrame

.text._MACDeinit
                0x9d0b06dc      0x150
 .text._MACDeinit
                0x9d0b06dc      0x150 build/pic32mz_ef_sk/production/_ext/1697634946/drv_ethmac.o

.text.DRV_USART_BaudSet
                0x9d0b082c      0x150
 .text.DRV_USART_BaudSet
                0x9d0b082c      0x150 build/pic32mz_ef_sk/production/_ext/821589181/drv_usart.o
                0x9d0b082c                DRV_USART_BaudSet

.text.MPFS_Open
                0x9d0b097c      0x150
 .text.MPFS_Open
                0x9d0b097c      0x150 build/pic32mz_ef_sk/production/_ext/614935175/mpfs.o
                0x9d0b097c                MPFS_Open

.text.TCPIP_Helper_IPv6AddressToString
                0x9d0b0acc      0x150
 .text.TCPIP_Helper_IPv6AddressToString
                0x9d0b0acc      0x150 build/pic32mz_ef_sk/production/_ext/1164207549/tcpip_helpers.o
                0x9d0b0acc                TCPIP_Helper_IPv6AddressToString

.text._TcpDisconnect
                0x9d0b0c1c      0x14c
 .text._TcpDisconnect
                0x9d0b0c1c      0x14c build/pic32mz_ef_sk/production/_ext/1164207549/tcp.o

.text.TCPIP_SMTP_ArrayPut
                0x9d0b0d68      0x14c
 .text.TCPIP_SMTP_ArrayPut
                0x9d0b0d68      0x14c build/pic32mz_ef_sk/production/_ext/1164207549/smtp.o
                0x9d0b0d68                TCPIP_SMTP_ArrayPut

.text.DRV_ETHMAC_PIC32MACEventMaskSet
                0x9d0b0eb4      0x148
 .text.DRV_ETHMAC_PIC32MACEventMaskSet
                0x9d0b0eb4      0x148 build/pic32mz_ef_sk/production/_ext/1697634946/drv_ethmac.o
                0x9d0b0eb4                DRV_ETHMAC_PIC32MACEventMaskSet

.text._EthAppendBusyList
                0x9d0b0ffc      0x148
 .text._EthAppendBusyList
                0x9d0b0ffc      0x148 build/pic32mz_ef_sk/production/_ext/1697634946/drv_ethmac_lib.o

.text.DRV_ETHPHY_Setup
                0x9d0b1144      0x148
 .text.DRV_ETHPHY_Setup
                0x9d0b1144      0x148 build/pic32mz_ef_sk/production/_ext/521481140/drv_ethphy.o
                0x9d0b1144                DRV_ETHPHY_Setup

.text.DRV_NVM_Initialize
                0x9d0b128c      0x148
 .text.DRV_NVM_Initialize
                0x9d0b128c      0x148 build/pic32mz_ef_sk/production/_ext/184581597/drv_nvm.o
                0x9d0b128c                DRV_NVM_Initialize

.text._SYS_TMR_ClientCreate
                0x9d0b13d4      0x148
 .text._SYS_TMR_ClientCreate
                0x9d0b13d4      0x148 build/pic32mz_ef_sk/production/_ext/2110151058/sys_tmr.o

.text.TCPIP_HTTP_URLDecode
                0x9d0b151c      0x148
 .text.TCPIP_HTTP_URLDecode
                0x9d0b151c      0x148 build/pic32mz_ef_sk/production/_ext/1164207549/http.o
                0x9d0b151c                TCPIP_HTTP_URLDecode

.text.xTaskResumeAll
                0x9d0b1664      0x148
 .text.xTaskResumeAll
                0x9d0b1664      0x148 build/pic32mz_ef_sk/production/_ext/373060831/tasks.o
                0x9d0b1664                xTaskResumeAll

.text.fputc     0x9d0b17ac      0x144
 .text.fputc    0x9d0b17ac      0x144 c:/program files (x86)/microchip/xc32/v1.44/bin/bin/../../lib/gcc/pic32mx/4.8.3/../../../../pic32mx/lib/fpu64\libc.a(_fputc_simple.o)
                0x9d0b17ac                fputc

.text.DisplayNodeMsg
                0x9d0b18f0      0x140
 .text.DisplayNodeMsg
                0x9d0b18f0      0x140 build/pic32mz_ef_sk/production/_ext/1891376032/sys_command.o

.text.TCPIP_IPV6_ErrorSend
                0x9d0b1a30      0x140
 .text.TCPIP_IPV6_ErrorSend
                0x9d0b1a30      0x140 build/pic32mz_ef_sk/production/_ext/1164207549/ipv6.o
                0x9d0b1a30                TCPIP_IPV6_ErrorSend

.text._Tcpv6MacAckFnc
                0x9d0b1b70      0x140
 .text._Tcpv6MacAckFnc
                0x9d0b1b70      0x140 build/pic32mz_ef_sk/production/_ext/1164207549/tcp.o

.text.TCPIP_UDP_OpenServerSkt
                0x9d0b1cb0      0x140
 .text.TCPIP_UDP_OpenServerSkt
                0x9d0b1cb0      0x140 build/pic32mz_ef_sk/production/_ext/1164207549/udp.o
                0x9d0b1cb0                TCPIP_UDP_OpenServerSkt

.text._TCPIP_HEAP_Malloc
                0x9d0b1df0      0x140
 .text._TCPIP_HEAP_Malloc
                0x9d0b1df0      0x140 build/pic32mz_ef_sk/production/_ext/1164207549/tcpip_heap_internal.o

.text.TCPIP_Commands_Initialize
                0x9d0b1f30      0x138
 .text.TCPIP_Commands_Initialize
                0x9d0b1f30      0x138 build/pic32mz_ef_sk/production/_ext/1164207549/tcpip_commands.o
                0x9d0b1f30                TCPIP_Commands_Initialize

.text.DRV_MIIM_OperationResult
                0x9d0b2068      0x134
 .text.DRV_MIIM_OperationResult
                0x9d0b2068      0x134 build/pic32mz_ef_sk/production/_ext/1470245908/drv_miim.o
                0x9d0b2068                DRV_MIIM_OperationResult

.text.TCPIP_NDP_NextHopGet
                0x9d0b219c      0x134
 .text.TCPIP_NDP_NextHopGet
                0x9d0b219c      0x134 build/pic32mz_ef_sk/production/_ext/1164207549/ndp.o
                0x9d0b219c                TCPIP_NDP_NextHopGet

.text.TCPIP_STACK_KillStack
                0x9d0b22d0      0x134
 .text.TCPIP_STACK_KillStack
                0x9d0b22d0      0x134 build/pic32mz_ef_sk/production/_ext/1164207549/tcpip_manager.o

.text.TCPIP_STACK_NetUp
                0x9d0b2404      0x134
 .text.TCPIP_STACK_NetUp
                0x9d0b2404      0x134 build/pic32mz_ef_sk/production/_ext/1164207549/tcpip_manager.o
                0x9d0b2404                TCPIP_STACK_NetUp

.text.TCPIP_HTTP_Print_config_mac
                0x9d0b2538      0x130
 .text.TCPIP_HTTP_Print_config_mac
                0x9d0b2538      0x130 build/pic32mz_ef_sk/production/_ext/1360937237/custom_http_app.o
                0x9d0b2538                TCPIP_HTTP_Print_config_mac

.text._ARPDeleteResources
                0x9d0b2668      0x130
 .text._ARPDeleteResources
                0x9d0b2668      0x130 build/pic32mz_ef_sk/production/_ext/1164207549/arp.o

.text._Command_MACAddressSet
                0x9d0b2798      0x130
 .text._Command_MACAddressSet
                0x9d0b2798      0x130 build/pic32mz_ef_sk/production/_ext/1164207549/tcpip_commands.o

.text.DRV_ETHMAC_LibDescriptorsPoolAdd
                0x9d0b28c8      0x12c
 .text.DRV_ETHMAC_LibDescriptorsPoolAdd
                0x9d0b28c8      0x12c build/pic32mz_ef_sk/production/_ext/1697634946/drv_ethmac_lib.o
                0x9d0b28c8                DRV_ETHMAC_LibDescriptorsPoolAdd

.text.DRV_TMR_AlarmRegister
                0x9d0b29f4      0x12c
 .text.DRV_TMR_AlarmRegister
                0x9d0b29f4      0x12c build/pic32mz_ef_sk/production/_ext/941160041/drv_tmr.o
                0x9d0b29f4                DRV_TMR_AlarmRegister

.text.TCPIP_TCP_ServerOpen
                0x9d0b2b20      0x12c
 .text.TCPIP_TCP_ServerOpen
                0x9d0b2b20      0x12c build/pic32mz_ef_sk/production/_ext/1164207549/tcp.o
                0x9d0b2b20                TCPIP_TCP_ServerOpen

.text._flsbuf   0x9d0b2c4c      0x12c
 .text._flsbuf  0x9d0b2c4c      0x12c c:/program files (x86)/microchip/xc32/v1.44/bin/bin/../../lib/gcc/pic32mx/4.8.3/../../../../pic32mx/lib/fpu64\libc.a(_flsbuf_simple.o)
                0x9d0b2c4c                _flsbuf

.text._UDPv6AllocateTxPacketStruct
                0x9d0b2d78      0x128
 .text._UDPv6AllocateTxPacketStruct
                0x9d0b2d78      0x128 build/pic32mz_ef_sk/production/_ext/1164207549/udp.o

.text.vTaskPriorityInherit
                0x9d0b2ea0      0x128
 .text.vTaskPriorityInherit
                0x9d0b2ea0      0x128 build/pic32mz_ef_sk/production/_ext/373060831/tasks.o
                0x9d0b2ea0                vTaskPriorityInherit

.text.fround    0x9d0b2fc8      0x128
 .text.fround   0x9d0b2fc8      0x128 c:/program files (x86)/microchip/xc32/v1.44/bin/bin/../../lib/gcc/pic32mx/4.8.3/../../../../pic32mx/lib/fpu64\libc.a(doprnt.o)

.text.MPFS_Read
                0x9d0b30f0      0x124
 .text.MPFS_Read
                0x9d0b30f0      0x124 build/pic32mz_ef_sk/production/_ext/614935175/mpfs.o
                0x9d0b30f0                MPFS_Read

.text.MPFS_Stat
                0x9d0b3214      0x124
 .text.MPFS_Stat
                0x9d0b3214      0x124 build/pic32mz_ef_sk/production/_ext/614935175/mpfs.o
                0x9d0b3214                MPFS_Stat

.text.TCPIP_NDP_RemoteNodeFind
                0x9d0b3338      0x124
 .text.TCPIP_NDP_RemoteNodeFind
                0x9d0b3338      0x124 build/pic32mz_ef_sk/production/_ext/1164207549/ndp.o
                0x9d0b3338                TCPIP_NDP_RemoteNodeFind

.text._OAHashFindBkt
                0x9d0b345c      0x124
 .text._OAHashFindBkt
                0x9d0b345c      0x124 build/pic32mz_ef_sk/production/_ext/1164207549/oahash.o

.text.TCPIP_Helper_StringToMACAddress
                0x9d0b3580      0x124
 .text.TCPIP_Helper_StringToMACAddress
                0x9d0b3580      0x124 build/pic32mz_ef_sk/production/_ext/1164207549/tcpip_helpers.o
                0x9d0b3580                TCPIP_Helper_StringToMACAddress

.text.DRV_ETHMAC_PIC32MACRxFilterHashTableEntrySet
                0x9d0b36a4      0x120
 .text.DRV_ETHMAC_PIC32MACRxFilterHashTableEntrySet
                0x9d0b36a4      0x120 build/pic32mz_ef_sk/production/_ext/1697634946/drv_ethmac.o
                0x9d0b36a4                DRV_ETHMAC_PIC32MACRxFilterHashTableEntrySet

.rodata         0x9d0b37c4      0x120
 .rodata        0x9d0b37c4      0x120 build/pic32mz_ef_sk/production/_ext/521481140/drv_ethphy.o
                0x9d0b37e0                DRV_ETHPHY_OBJECT_BASE_Default

.text.TCPIP_NDP_NborCacheLinkLayerAddressUpdate
                0x9d0b38e4      0x120
 .text.TCPIP_NDP_NborCacheLinkLayerAddressUpdate
                0x9d0b38e4      0x120 build/pic32mz_ef_sk/production/_ext/1164207549/ndp.o
                0x9d0b38e4                TCPIP_NDP_NborCacheLinkLayerAddressUpdate

.text.TCPIP_IPV6_PayloadChecksumCalculate
                0x9d0b3a04      0x120
 .text.TCPIP_IPV6_PayloadChecksumCalculate
                0x9d0b3a04      0x120 build/pic32mz_ef_sk/production/_ext/1164207549/ipv6.o
                0x9d0b3a04                TCPIP_IPV6_PayloadChecksumCalculate

.rodata         0x9d0b3b24      0x120
 .rodata        0x9d0b3b24      0x120 build/pic32mz_ef_sk/production/_ext/1164207549/ipv6.o
                0x9d0b3b34                gPolicyTable
                0x9d0b3bfc                IPV6_MULTICAST_MAC_ADDRESS
                0x9d0b3c04                IPV6_SOLICITED_NODE_MULTICAST
                0x9d0b3c14                IPV6_FIXED_ADDR_ALL_ROUTER_MULTICAST
                0x9d0b3c24                IPV6_FIXED_ADDR_ALL_NODES_MULTICAST
                0x9d0b3c34                IPV6_FIXED_ADDR_UNSPECIFIED

.text.TCPIP_Helper_PacketCopy
                0x9d0b3c44      0x120
 .text.TCPIP_Helper_PacketCopy
                0x9d0b3c44      0x120 build/pic32mz_ef_sk/production/_ext/1164207549/tcpip_helpers.o
                0x9d0b3c44                TCPIP_Helper_PacketCopy

.text           0x9d0b3d64      0x120
 .text          0x9d0b3d64      0x120 c:/program files (x86)/microchip/xc32/v1.44/bin/bin/../../lib/gcc/pic32mx/4.8.3/../../../../pic32mx/lib/fpu64\libpic32.a(strcmp.o)
                0x9d0b3d64                strcmp

.rodata         0x9d0b3e84      0x11c
 .rodata        0x9d0b3e84      0x11c build/pic32mz_ef_sk/production/_ext/1697634946/drv_ethmac.o
                0x9d0b3f48                DRV_ETHMAC_PIC32MACObject

.text.TCPIP_IPV4_ArpHandler
                0x9d0b3fa0      0x11c
 .text.TCPIP_IPV4_ArpHandler
                0x9d0b3fa0      0x11c build/pic32mz_ef_sk/production/_ext/1164207549/ipv4.o

.text.TCPIP_IPV6_TxIsPutReady
                0x9d0b40bc      0x11c
 .text.TCPIP_IPV6_TxIsPutReady
                0x9d0b40bc      0x11c build/pic32mz_ef_sk/production/_ext/1164207549/ipv6.o
                0x9d0b40bc                TCPIP_IPV6_TxIsPutReady

.text._GetMaxSegSizeOption
                0x9d0b41d8      0x11c
 .text._GetMaxSegSizeOption
                0x9d0b41d8      0x11c build/pic32mz_ef_sk/production/_ext/1164207549/tcp.o

.text.TCPIP_ARP_IsResolved
                0x9d0b42f4      0x11c
 .text.TCPIP_ARP_IsResolved
                0x9d0b42f4      0x11c build/pic32mz_ef_sk/production/_ext/1164207549/arp.o
                0x9d0b42f4                TCPIP_ARP_IsResolved

.text._FieldSetIpv6Address
                0x9d0b4410      0x11c
 .text._FieldSetIpv6Address
                0x9d0b4410      0x11c build/pic32mz_ef_sk/production/_ext/1164207549/tcpip_announce.o
                0x9d0b4410                _FieldSetIpv6Address

.text.base64    0x9d0b452c      0x11c
 .text.base64   0x9d0b452c      0x11c build/pic32mz_ef_sk/production/_ext/1360937237/websocket.o

.text._DRV_ETHPHY_SetupPhaseNegotiate_SubPhase3
                0x9d0b4648      0x118
 .text._DRV_ETHPHY_SetupPhaseNegotiate_SubPhase3
                0x9d0b4648      0x118 build/pic32mz_ef_sk/production/_ext/521481140/drv_ethphy.o

.text.DRV_MIIM_Initialize
                0x9d0b4760      0x118
 .text.DRV_MIIM_Initialize
                0x9d0b4760      0x118 build/pic32mz_ef_sk/production/_ext/1470245908/drv_miim.o
                0x9d0b4760                DRV_MIIM_Initialize

.text._DHCPSetLeaseTimeParams
                0x9d0b4878      0x118
 .text._DHCPSetLeaseTimeParams
                0x9d0b4878      0x118 build/pic32mz_ef_sk/production/_ext/1164207549/dhcp.o

.text.TCPIP_STACK_AddressServiceEvent
                0x9d0b4990      0x118
 .text.TCPIP_STACK_AddressServiceEvent
                0x9d0b4990      0x118 build/pic32mz_ef_sk/production/_ext/1164207549/tcpip_manager.o
                0x9d0b4990                TCPIP_STACK_AddressServiceEvent

.text.BSP_LEDStateSet
                0x9d0b4aa8      0x114
 .text.BSP_LEDStateSet
                0x9d0b4aa8      0x114 build/pic32mz_ef_sk/production/_ext/354129722/bsp.o
                0x9d0b4aa8                BSP_LEDStateSet

.text.DRV_ETHMAC_PIC32MACStatisticsGet
                0x9d0b4bbc      0x114
 .text.DRV_ETHMAC_PIC32MACStatisticsGet
                0x9d0b4bbc      0x114 build/pic32mz_ef_sk/production/_ext/1697634946/drv_ethmac.o
                0x9d0b4bbc                DRV_ETHMAC_PIC32MACStatisticsGet

.text.DRV_MIIM_Open
                0x9d0b4cd0      0x114
 .text.DRV_MIIM_Open
                0x9d0b4cd0      0x114 build/pic32mz_ef_sk/production/_ext/1470245908/drv_miim.o
                0x9d0b4cd0                DRV_MIIM_Open

.text.DRV_NVM_Close
                0x9d0b4de4      0x114
 .text.DRV_NVM_Close
                0x9d0b4de4      0x114 build/pic32mz_ef_sk/production/_ext/184581597/drv_nvm.o
                0x9d0b4de4                DRV_NVM_Close

.text._Command_PrimaryDNSAddressSet
                0x9d0b4ef8      0x114
 .text._Command_PrimaryDNSAddressSet
                0x9d0b4ef8      0x114 build/pic32mz_ef_sk/production/_ext/1164207549/tcpip_commands.o

.text.TCPIP_Helper_PacketChecksum
                0x9d0b500c      0x114
 .text.TCPIP_Helper_PacketChecksum
                0x9d0b500c      0x114 build/pic32mz_ef_sk/production/_ext/1164207549/tcpip_helpers.o
                0x9d0b500c                TCPIP_Helper_PacketChecksum

.text._TCPIP_IPV6_PacketEnqueue
                0x9d0b5120      0x110
 .text._TCPIP_IPV6_PacketEnqueue
                0x9d0b5120      0x110 build/pic32mz_ef_sk/production/_ext/1164207549/ipv6.o

.text.TCPIP_ARP_EntryQuery
                0x9d0b5230      0x110
 .text.TCPIP_ARP_EntryQuery
                0x9d0b5230      0x110 build/pic32mz_ef_sk/production/_ext/1164207549/arp.o
                0x9d0b5230                TCPIP_ARP_EntryQuery

.text._TCPIPStackModuleRxPurge
                0x9d0b5340      0x110
 .text._TCPIPStackModuleRxPurge
                0x9d0b5340      0x110 build/pic32mz_ef_sk/production/_ext/1164207549/tcpip_manager.o
                0x9d0b5340                _TCPIPStackModuleRxPurge

.text._MacRxPacketAck
                0x9d0b5450      0x10c
 .text._MacRxPacketAck
                0x9d0b5450      0x10c build/pic32mz_ef_sk/production/_ext/1697634946/drv_ethmac.o

.text.DRV_ETHMAC_LibInit
                0x9d0b555c      0x10c
 .text.DRV_ETHMAC_LibInit
                0x9d0b555c      0x10c build/pic32mz_ef_sk/production/_ext/1697634946/drv_ethmac_lib.o
                0x9d0b555c                DRV_ETHMAC_LibInit

.text.SYS_CMD_ADDGRP
                0x9d0b5668      0x10c
 .text.SYS_CMD_ADDGRP
                0x9d0b5668      0x10c build/pic32mz_ef_sk/production/_ext/1891376032/sys_command.o
                0x9d0b5668                SYS_CMD_ADDGRP

.text.TCPIP_NDP_NborEntryDelete
                0x9d0b5774      0x10c
 .text.TCPIP_NDP_NborEntryDelete
                0x9d0b5774      0x10c build/pic32mz_ef_sk/production/_ext/1164207549/ndp.o
                0x9d0b5774                TCPIP_NDP_NborEntryDelete

.text.TCPIP_ICMPV6_HeaderNeighborAdvertisementPut
                0x9d0b5880      0x10c
 .text.TCPIP_ICMPV6_HeaderNeighborAdvertisementPut
                0x9d0b5880      0x10c build/pic32mz_ef_sk/production/_ext/1164207549/icmpv6.o
                0x9d0b5880                TCPIP_ICMPV6_HeaderNeighborAdvertisementPut

.text.TCPIP_DHCP_InfoGet
                0x9d0b598c      0x10c
 .text.TCPIP_DHCP_InfoGet
                0x9d0b598c      0x10c build/pic32mz_ef_sk/production/_ext/1164207549/dhcp.o
                0x9d0b598c                TCPIP_DHCP_InfoGet

.text.wc_Md5Update
                0x9d0b5a98      0x108
 .text.wc_Md5Update
                0x9d0b5a98      0x108 build/pic32mz_ef_sk/production/_ext/29024758/md5.o
                0x9d0b5a98                wc_Md5Update

.text._DRV_ETHPHY_SetupPhaseIdle
                0x9d0b5ba0      0x108
 .text._DRV_ETHPHY_SetupPhaseIdle
                0x9d0b5ba0      0x108 build/pic32mz_ef_sk/production/_ext/521481140/drv_ethphy.o

.text._SYS_FS_DiskNumberAppend
                0x9d0b5ca8      0x108
 .text._SYS_FS_DiskNumberAppend
                0x9d0b5ca8      0x108 build/pic32mz_ef_sk/production/_ext/1750042194/sys_fs.o
                0x9d0b5ca8                _SYS_FS_DiskNumberAppend

.text.TCPIP_NDP_PrefixFind
                0x9d0b5db0      0x108
 .text.TCPIP_NDP_PrefixFind
                0x9d0b5db0      0x108 build/pic32mz_ef_sk/production/_ext/1164207549/ndp.o
                0x9d0b5db0                TCPIP_NDP_PrefixFind

.text.TCPIP_IPV6_MulticastListenerAdd
                0x9d0b5eb8      0x108
 .text.TCPIP_IPV6_MulticastListenerAdd
                0x9d0b5eb8      0x108 build/pic32mz_ef_sk/production/_ext/1164207549/ipv6.o
                0x9d0b5eb8                TCPIP_IPV6_MulticastListenerAdd

.text._UDPv6TxAckFnc
                0x9d0b5fc0      0x108
 .text._UDPv6TxAckFnc
                0x9d0b5fc0      0x108 build/pic32mz_ef_sk/production/_ext/1164207549/udp.o

.text._UDPv4AllocateSktTxBuffer
                0x9d0b60c8      0x108
 .text._UDPv4AllocateSktTxBuffer
                0x9d0b60c8      0x108 build/pic32mz_ef_sk/production/_ext/1164207549/udp.o

.rodata         0x9d0b61d0      0x108
 .rodata        0x9d0b61d0      0x108 c:/program files (x86)/microchip/xc32/v1.44/bin/bin/../../lib/gcc/pic32mx/4.8.3/../../../../pic32mx/lib/fpu64\libc.a(doprnt.o)

.text.SYS_DEVCON_PerformanceConfig
                0x9d0b62d8      0x104
 .text.SYS_DEVCON_PerformanceConfig
                0x9d0b62d8      0x104 build/pic32mz_ef_sk/production/_ext/1868830280/sys_devcon_pic32mz.o
                0x9d0b62d8                SYS_DEVCON_PerformanceConfig

.text.NET_PRES_SocketClose
                0x9d0b63dc      0x104
 .text.NET_PRES_SocketClose
                0x9d0b63dc      0x104 build/pic32mz_ef_sk/production/_ext/871719959/net_pres.o
                0x9d0b63dc                NET_PRES_SocketClose

.text._TcpSocketSetIdleState
                0x9d0b64e0      0x104
 .text._TcpSocketSetIdleState
                0x9d0b64e0      0x104 build/pic32mz_ef_sk/production/_ext/1164207549/tcp.o

.text._DHCPEnable
                0x9d0b65e4      0x104
 .text._DHCPEnable
                0x9d0b65e4      0x104 build/pic32mz_ef_sk/production/_ext/1164207549/dhcp.o

.text.TCPIP_STACK_NetConfigGet
                0x9d0b66e8      0x104
 .text.TCPIP_STACK_NetConfigGet
                0x9d0b66e8      0x104 build/pic32mz_ef_sk/production/_ext/1164207549/tcpip_manager.o
                0x9d0b66e8                TCPIP_STACK_NetConfigGet

.text           0x9d0b67ec      0x104
 .text          0x9d0b67ec      0x104 build/pic32mz_ef_sk/production/_ext/1282498061/port_asm.o
                0x9d0b67ec                vPortStartFirstTask

.rodata         0x9d0b68f0      0x104
 .rodata        0x9d0b68f0      0x104 c:/program files (x86)/microchip/xc32/v1.44/bin/bin/../../lib/gcc/pic32mx/4.8.3/../../../../pic32mx/lib/fpu64\libc.a(ctype.o)
                0x9d0b68f0                _ctype

.text.fgetc     0x9d0b69f4      0x104
 .text.fgetc    0x9d0b69f4      0x104 c:/program files (x86)/microchip/xc32/v1.44/bin/bin/../../lib/gcc/pic32mx/4.8.3/../../../../pic32mx/lib/fpu64\libc.a(fgetc.o)
                0x9d0b69f4                fgetc

.text.TCPIP_NDP_LinkedListEntryInsert
                0x9d0b6af8      0x100
 .text.TCPIP_NDP_LinkedListEntryInsert
                0x9d0b6af8      0x100 build/pic32mz_ef_sk/production/_ext/1164207549/ndp.o
                0x9d0b6af8                TCPIP_NDP_LinkedListEntryInsert

.text.TCPIP_NDP_DestCacheEntryCreate
                0x9d0b6bf8      0x100
 .text.TCPIP_NDP_DestCacheEntryCreate
                0x9d0b6bf8      0x100 build/pic32mz_ef_sk/production/_ext/1164207549/ndp.o
                0x9d0b6bf8                TCPIP_NDP_DestCacheEntryCreate

.text.TCPIP_IPV6_AddressTypeGet
                0x9d0b6cf8      0x100
 .text.TCPIP_IPV6_AddressTypeGet
                0x9d0b6cf8      0x100 build/pic32mz_ef_sk/production/_ext/1164207549/ipv6.o
                0x9d0b6cf8                TCPIP_IPV6_AddressTypeGet

.text._DNS_ValidateIf
                0x9d0b6df8      0x100
 .text._DNS_ValidateIf
                0x9d0b6df8      0x100 build/pic32mz_ef_sk/production/_ext/1164207549/dns.o

.text.DRV_NVM_Open
                0x9d0b6ef8       0xfc
 .text.DRV_NVM_Open
                0x9d0b6ef8       0xfc build/pic32mz_ef_sk/production/_ext/184581597/drv_nvm.o
                0x9d0b6ef8                DRV_NVM_Open

.text.MPFS_Mount
                0x9d0b6ff4       0xfc
 .text.MPFS_Mount
                0x9d0b6ff4       0xfc build/pic32mz_ef_sk/production/_ext/614935175/mpfs.o
                0x9d0b6ff4                MPFS_Mount

.text.TCPIP_HTTP_Task
                0x9d0b70f0       0xfc
 .text.TCPIP_HTTP_Task
                0x9d0b70f0       0xfc build/pic32mz_ef_sk/production/_ext/1164207549/http.o
                0x9d0b70f0                TCPIP_HTTP_Task

.text.prvUnlockQueue
                0x9d0b71ec       0xfc
 .text.prvUnlockQueue
                0x9d0b71ec       0xfc build/pic32mz_ef_sk/production/_ext/373060831/queue.o

.text.DRV_ETHMAC_Tasks_ISR
                0x9d0b72e8       0xf8
 .text.DRV_ETHMAC_Tasks_ISR
                0x9d0b72e8       0xf8 build/pic32mz_ef_sk/production/_ext/1697634946/drv_ethmac.o
                0x9d0b72e8                DRV_ETHMAC_Tasks_ISR

.text.SYS_CMD_READY_TO_READ
                0x9d0b73e0       0xf8
 .text.SYS_CMD_READY_TO_READ
                0x9d0b73e0       0xf8 build/pic32mz_ef_sk/production/_ext/1891376032/sys_command.o
                0x9d0b73e0                SYS_CMD_READY_TO_READ

.text.Console_UART_Write
                0x9d0b74d8       0xf8
 .text.Console_UART_Write
                0x9d0b74d8       0xf8 build/pic32mz_ef_sk/production/_ext/1434663852/sys_console_uart.o
                0x9d0b74d8                Console_UART_Write

.text.SYS_DEBUG_Print
                0x9d0b75d0       0xf8
 .text.SYS_DEBUG_Print
                0x9d0b75d0       0xf8 build/pic32mz_ef_sk/production/_ext/2137108136/sys_debug.o
                0x9d0b75d0                SYS_DEBUG_Print

.text.SYS_CLK_Initialize
                0x9d0b76c8       0xf4
 .text.SYS_CLK_Initialize
                0x9d0b76c8       0xf4 build/pic32mz_ef_sk/production/_ext/571564127/sys_clk_pic32mz.o
                0x9d0b76c8                SYS_CLK_Initialize

.text.STREAMER_Tasks
                0x9d0b77bc       0xf4
 .text.STREAMER_Tasks
                0x9d0b77bc       0xf4 build/pic32mz_ef_sk/production/_ext/1360937237/streamer.o
                0x9d0b77bc                STREAMER_Tasks

.text._DRV_ETHPHY_NegCompletePhaseAN_Restart
                0x9d0b78b0       0xf4
 .text._DRV_ETHPHY_NegCompletePhaseAN_Restart
                0x9d0b78b0       0xf4 build/pic32mz_ef_sk/production/_ext/521481140/drv_ethphy.o

.text.SYS_FS_FileStat
                0x9d0b79a4       0xf4
 .text.SYS_FS_FileStat
                0x9d0b79a4       0xf4 build/pic32mz_ef_sk/production/_ext/1750042194/sys_fs.o
                0x9d0b79a4                SYS_FS_FileStat

.text.TCPIP_NDP_Initialize
                0x9d0b7a98       0xf4
 .text.TCPIP_NDP_Initialize
                0x9d0b7a98       0xf4 build/pic32mz_ef_sk/production/_ext/1164207549/ndp.o
                0x9d0b7a98                TCPIP_NDP_Initialize

.text.TCPIP_NDP_UnicastAddressMove
                0x9d0b7b8c       0xf4
 .text.TCPIP_NDP_UnicastAddressMove
                0x9d0b7b8c       0xf4 build/pic32mz_ef_sk/production/_ext/1164207549/ndp.o
                0x9d0b7b8c                TCPIP_NDP_UnicastAddressMove

.text.prvCopyDataToQueue
                0x9d0b7c80       0xf4
 .text.prvCopyDataToQueue
                0x9d0b7c80       0xf4 build/pic32mz_ef_sk/production/_ext/373060831/queue.o

.text.xTaskPriorityDisinherit
                0x9d0b7d74       0xf4
 .text.xTaskPriorityDisinherit
                0x9d0b7d74       0xf4 build/pic32mz_ef_sk/production/_ext/373060831/tasks.o
                0x9d0b7d74                xTaskPriorityDisinherit

.text.DRV_ETHMAC_LibMACOpen
                0x9d010010       0xf0
 .text.DRV_ETHMAC_LibMACOpen
                0x9d010010       0xf0 build/pic32mz_ef_sk/production/_ext/1697634946/drv_ethmac_lib.o
                0x9d010010                DRV_ETHMAC_LibMACOpen

.text._DRV_ETHPHY_ResetPhaseRead
                0x9d0b7e68       0xf0
 .text._DRV_ETHPHY_ResetPhaseRead
                0x9d0b7e68       0xf0 build/pic32mz_ef_sk/production/_ext/521481140/drv_ethphy.o

.text.TCPIP_UDP_Disconnect
                0x9d0b7f58       0xf0
 .text.TCPIP_UDP_Disconnect
                0x9d0b7f58       0xf0 build/pic32mz_ef_sk/production/_ext/1164207549/udp.o
                0x9d0b7f58                TCPIP_UDP_Disconnect

.text._DHCPClientClose
                0x9d0b8048       0xf0
 .text._DHCPClientClose
                0x9d0b8048       0xf0 build/pic32mz_ef_sk/production/_ext/1164207549/dhcp.o

.text.TCPIP_SMTP_Put
                0x9d0b8138       0xf0
 .text.TCPIP_SMTP_Put
                0x9d0b8138       0xf0 build/pic32mz_ef_sk/production/_ext/1164207549/smtp.o
                0x9d0b8138                TCPIP_SMTP_Put

.text.DRV_ETHMAC_PIC32MACProcess
                0x9d0b8228       0xec
 .text.DRV_ETHMAC_PIC32MACProcess
                0x9d0b8228       0xec build/pic32mz_ef_sk/production/_ext/1697634946/drv_ethmac.o
                0x9d0b8228                DRV_ETHMAC_PIC32MACProcess

.text._DRV_ETHPHY_SetupPhaseNegotiate_SubPhase0
                0x9d0b8314       0xec
 .text._DRV_ETHPHY_SetupPhaseNegotiate_SubPhase0
                0x9d0b8314       0xec build/pic32mz_ef_sk/production/_ext/521481140/drv_ethphy.o

.text.SYS_FS_FileRead
                0x9d0b8400       0xec
 .text.SYS_FS_FileRead
                0x9d0b8400       0xec build/pic32mz_ef_sk/production/_ext/1750042194/sys_fs.o
                0x9d0b8400                SYS_FS_FileRead

.text.SYS_TMR_SystemCountGet
                0x9d0b84ec       0xec
 .text.SYS_TMR_SystemCountGet
                0x9d0b84ec       0xec build/pic32mz_ef_sk/production/_ext/2110151058/sys_tmr.o
                0x9d0b84ec                SYS_TMR_SystemCountGet

.text.TCPIP_IPV4_DeInitialize
                0x9d0b85d8       0xec
 .text.TCPIP_IPV4_DeInitialize
                0x9d0b85d8       0xec build/pic32mz_ef_sk/production/_ext/1164207549/ipv4.o
                0x9d0b85d8                TCPIP_IPV4_DeInitialize

.text._DRV_TMR_ClockSourceSet
                0x9d0b86c4       0xe8
 .text._DRV_TMR_ClockSourceSet
                0x9d0b86c4       0xe8 build/pic32mz_ef_sk/production/_ext/941160041/drv_tmr.o

.text._SYS_TMR_ClientParamSet
                0x9d0b87ac       0xe8
 .text._SYS_TMR_ClientParamSet
                0x9d0b87ac       0xe8 build/pic32mz_ef_sk/production/_ext/2110151058/sys_tmr.o

.text.TCPIP_NDP_ReachabilitySet
                0x9d0b8894       0xe8
 .text.TCPIP_NDP_ReachabilitySet
                0x9d0b8894       0xe8 build/pic32mz_ef_sk/production/_ext/1164207549/ndp.o
                0x9d0b8894                TCPIP_NDP_ReachabilitySet

.text._Tcpv6AckFnc
                0x9d0b897c       0xe8
 .text._Tcpv6AckFnc
                0x9d0b897c       0xe8 build/pic32mz_ef_sk/production/_ext/1164207549/tcp.o

.text._DHCPPacketFilter
                0x9d0b8a64       0xe8
 .text._DHCPPacketFilter
                0x9d0b8a64       0xe8 build/pic32mz_ef_sk/production/_ext/1164207549/dhcp.o

.text.TCPIP_STACK_NetAddressSet
                0x9d0b8b4c       0xe8
 .text.TCPIP_STACK_NetAddressSet
                0x9d0b8b4c       0xe8 build/pic32mz_ef_sk/production/_ext/1164207549/tcpip_manager.o
                0x9d0b8b4c                TCPIP_STACK_NetAddressSet

.text._DRV_USART_BufferQueueErrorTasks
                0x9d0b8c34       0xe4
 .text._DRV_USART_BufferQueueErrorTasks
                0x9d0b8c34       0xe4 build/pic32mz_ef_sk/production/_ext/821589181/drv_usart.o
                0x9d0b8c34                _DRV_USART_BufferQueueErrorTasks

.text.TCPIP_TCP_ArrayPeek
                0x9d0b8d18       0xe4
 .text.TCPIP_TCP_ArrayPeek
                0x9d0b8d18       0xe4 build/pic32mz_ef_sk/production/_ext/1164207549/tcp.o
                0x9d0b8d18                TCPIP_TCP_ArrayPeek

.text.TCPIP_NBNS_Initialize
                0x9d0b8dfc       0xe4
 .text.TCPIP_NBNS_Initialize
                0x9d0b8dfc       0xe4 build/pic32mz_ef_sk/production/_ext/1164207549/nbns.o
                0x9d0b8dfc                TCPIP_NBNS_Initialize

.text._TCPIP_StackSyncFunction
                0x9d0b8ee0       0xe4
 .text._TCPIP_StackSyncFunction
                0x9d0b8ee0       0xe4 build/pic32mz_ef_sk/production/_ext/1164207549/tcpip_manager.o

.text.prvAddCurrentTaskToDelayedList
                0x9d0b8fc4       0xe4
 .text.prvAddCurrentTaskToDelayedList
                0x9d0b8fc4       0xe4 build/pic32mz_ef_sk/production/_ext/373060831/tasks.o

.text.TCPIP_IPV6_HeaderGet
                0x9d0b90a8       0xe0
 .text.TCPIP_IPV6_HeaderGet
                0x9d0b90a8       0xe0 build/pic32mz_ef_sk/production/_ext/1164207549/ipv6.o
                0x9d0b90a8                TCPIP_IPV6_HeaderGet

.text._UDPv6TxMacAckFnc
                0x9d0b9188       0xe0
 .text._UDPv6TxMacAckFnc
                0x9d0b9188       0xe0 build/pic32mz_ef_sk/production/_ext/1164207549/udp.o

.text._FieldIpV6NextAddress
                0x9d0b9268       0xe0
 .text._FieldIpV6NextAddress
                0x9d0b9268       0xe0 build/pic32mz_ef_sk/production/_ext/1164207549/tcpip_announce.o
                0x9d0b9268                _FieldIpV6NextAddress

.text.TCPIP_OAHASH_EntryLookup
                0x9d0b9348       0xe0
 .text.TCPIP_OAHASH_EntryLookup
                0x9d0b9348       0xe0 build/pic32mz_ef_sk/production/_ext/1164207549/oahash.o
                0x9d0b9348                TCPIP_OAHASH_EntryLookup

.text.TCPIP_STACK_BringNetDown
                0x9d0b9428       0xe0
 .text.TCPIP_STACK_BringNetDown
                0x9d0b9428       0xe0 build/pic32mz_ef_sk/production/_ext/1164207549/tcpip_manager.o

.text.vTaskSwitchContext
                0x9d0b9508       0xe0
 .text.vTaskSwitchContext
                0x9d0b9508       0xe0 build/pic32mz_ef_sk/production/_ext/373060831/tasks.o
                0x9d0b9508                vTaskSwitchContext

.text.SYS_Tasks
                0x9d0b95e8       0xdc
 .text.SYS_Tasks
                0x9d0b95e8       0xdc build/pic32mz_ef_sk/production/_ext/849053718/system_tasks.o
                0x9d0b95e8                SYS_Tasks

.text.SYS_CMD_DELETE
                0x9d0b96c4       0xdc
 .text.SYS_CMD_DELETE
                0x9d0b96c4       0xdc build/pic32mz_ef_sk/production/_ext/1891376032/sys_command.o
                0x9d0b96c4                SYS_CMD_DELETE

.text._TcpAbort
                0x9d0b97a0       0xdc
 .text._TcpAbort
                0x9d0b97a0       0xdc build/pic32mz_ef_sk/production/_ext/1164207549/tcp.o

.text.TCPIP_DHCP_ConnectionHandler
                0x9d0b987c       0xdc
 .text.TCPIP_DHCP_ConnectionHandler
                0x9d0b987c       0xdc build/pic32mz_ef_sk/production/_ext/1164207549/dhcp.o
                0x9d0b987c                TCPIP_DHCP_ConnectionHandler

.text._HTTP_CloseConnections
                0x9d0b9958       0xdc
 .text._HTTP_CloseConnections
                0x9d0b9958       0xdc build/pic32mz_ef_sk/production/_ext/1164207549/http.o

.text._Command_BIOSNameSet
                0x9d0b9a34       0xdc
 .text._Command_BIOSNameSet
                0x9d0b9a34       0xdc build/pic32mz_ef_sk/production/_ext/1164207549/tcpip_commands.o

.text._Command_DefaultInterfaceSet
                0x9d0b9b10       0xdc
 .text._Command_DefaultInterfaceSet
                0x9d0b9b10       0xdc build/pic32mz_ef_sk/production/_ext/1164207549/tcpip_commands.o

.text.general_exception
                0x9d0b9bec       0xdc
 .text.general_exception
                0x9d0b9bec       0xdc c:/program files (x86)/microchip/xc32/v1.44/bin/bin/../../lib/gcc/pic32mx/4.8.3/../../../../pic32mx/lib/fpu64\libpic32.a(general-exception.o)
                0x9d0b9bec                _general_exception_context

.text.SYS_CMD_Initialize
                0x9d0b9cc8       0xd8
 .text.SYS_CMD_Initialize
                0x9d0b9cc8       0xd8 build/pic32mz_ef_sk/production/_ext/1891376032/sys_command.o
                0x9d0b9cc8                SYS_CMD_Initialize

.text._ARPUpdateEntry
                0x9d0b9da0       0xd8
 .text._ARPUpdateEntry
                0x9d0b9da0       0xd8 build/pic32mz_ef_sk/production/_ext/1164207549/arp.o

.text.TCPIP_ARP_CacheEntriesNoGet
                0x9d0b9e78       0xd8
 .text.TCPIP_ARP_CacheEntriesNoGet
                0x9d0b9e78       0xd8 build/pic32mz_ef_sk/production/_ext/1164207549/arp.o
                0x9d0b9e78                TCPIP_ARP_CacheEntriesNoGet

.text._TCPIP_PKT_PacketAlloc
                0x9d0b9f50       0xd8
 .text._TCPIP_PKT_PacketAlloc
                0x9d0b9f50       0xd8 build/pic32mz_ef_sk/production/_ext/1164207549/tcpip_packet.o
                0x9d0b9f50                _TCPIP_PKT_PacketAlloc

.text._cache_err_exception_context
                0x9d0ba028       0xd8
 .text._cache_err_exception_context
                0x9d0ba028       0xd8 c:/program files (x86)/microchip/xc32/v1.44/bin/bin/../../lib/gcc/pic32mx/4.8.3/../../../../pic32mx/lib/fpu64\libpic32.a(cache-err-exception.o)
                0x9d0ba028                _cache_err_exception_context

.text.simple_tlb_refill_context
                0x9d0ba100       0xd8
 .text.simple_tlb_refill_context
                0x9d0ba100       0xd8 c:/program files (x86)/microchip/xc32/v1.44/bin/bin/../../lib/gcc/pic32mx/4.8.3/../../../../pic32mx/lib/fpu64\libpic32.a(simple-tlb-refill-exception.o)
                0x9d0ba100                _simple_tlb_refill_exception_context

.rodata         0x9d0ba1d8       0xd4
 .rodata        0x9d0ba1d8       0xd4 build/pic32mz_ef_sk/production/_ext/1360937237/app.o

.text._MacTxPendingPackets
                0x9d0ba2ac       0xd4
 .text._MacTxPendingPackets
                0x9d0ba2ac       0xd4 build/pic32mz_ef_sk/production/_ext/1697634946/drv_ethmac.o

.text._DRV_ETHPHY_NegResultPhase_BMSTAT
                0x9d0ba380       0xd4
 .text._DRV_ETHPHY_NegResultPhase_BMSTAT
                0x9d0ba380       0xd4 build/pic32mz_ef_sk/production/_ext/521481140/drv_ethphy.o

.text.DRV_TMR_CounterFrequencyGet
                0x9d0ba454       0xd4
 .text.DRV_TMR_CounterFrequencyGet
                0x9d0ba454       0xd4 build/pic32mz_ef_sk/production/_ext/941160041/drv_tmr.o
                0x9d0ba454                DRV_TMR_CounterFrequencyGet

.text.NET_PRES_SocketReadIsReady
                0x9d0ba528       0xd4
 .text.NET_PRES_SocketReadIsReady
                0x9d0ba528       0xd4 build/pic32mz_ef_sk/production/_ext/871719959/net_pres.o
                0x9d0ba528                NET_PRES_SocketReadIsReady

.text.SYS_TMR_Initialize
                0x9d0ba5fc       0xd4
 .text.SYS_TMR_Initialize
                0x9d0ba5fc       0xd4 build/pic32mz_ef_sk/production/_ext/2110151058/sys_tmr.o
                0x9d0ba5fc                SYS_TMR_Initialize

.text.TCPIP_IPV6_PseudoHeaderChecksumGet
                0x9d0ba6d0       0xd4
 .text.TCPIP_IPV6_PseudoHeaderChecksumGet
                0x9d0ba6d0       0xd4 build/pic32mz_ef_sk/production/_ext/1164207549/ipv6.o
                0x9d0ba6d0                TCPIP_IPV6_PseudoHeaderChecksumGet

.text.FindEmailAddress
                0x9d0ba7a4       0xd4
 .text.FindEmailAddress
                0x9d0ba7a4       0xd4 build/pic32mz_ef_sk/production/_ext/1164207549/smtp.o

.text._mon_putc
                0x9d0ba878       0xd4
 .text._mon_putc
                0x9d0ba878       0xd4 c:/program files (x86)/microchip/xc32/v1.44/bin/bin/../../lib/gcc/pic32mx/4.8.3/../../../../pic32mx/lib/fpu64\libpic32.a(_mon_putc.o)
                0x9d0ba878                _mon_putc

.text._DRV_ETHMAC_LinkStateNegResult
                0x9d0ba94c       0xd0
 .text._DRV_ETHMAC_LinkStateNegResult
                0x9d0ba94c       0xd0 build/pic32mz_ef_sk/production/_ext/1697634946/drv_ethmac.o

.text.DRV_ETHPHY_Open
                0x9d0baa1c       0xd0
 .text.DRV_ETHPHY_Open
                0x9d0baa1c       0xd0 build/pic32mz_ef_sk/production/_ext/521481140/drv_ethphy.o
                0x9d0baa1c                DRV_ETHPHY_Open

.text.SYS_FS_Initialize
                0x9d0baaec       0xd0
 .text.SYS_FS_Initialize
                0x9d0baaec       0xd0 build/pic32mz_ef_sk/production/_ext/1750042194/sys_fs.o
                0x9d0baaec                SYS_FS_Initialize

.rodata         0x9d0babc0       0xd0
 .rodata        0x9d0babc0       0xd0 c:/program files (x86)/microchip/xc32/v1.44/bin/bin/../../lib/gcc/pic32mx/4.8.3/../../../../pic32mx/lib/fpu64\libc.a(doprnt_cdnopsuxX.eo)

.text.TCPIP_HTTP_Print_reboot
                0x9d0bac90       0xcc
 .text.TCPIP_HTTP_Print_reboot
                0x9d0bac90       0xcc build/pic32mz_ef_sk/production/_ext/1360937237/custom_http_app.o
                0x9d0bac90                TCPIP_HTTP_Print_reboot

.text.DRV_ETHMAC_LibTxAcknowledgeBuffer
                0x9d0bad5c       0xcc
 .text.DRV_ETHMAC_LibTxAcknowledgeBuffer
                0x9d0bad5c       0xcc build/pic32mz_ef_sk/production/_ext/1697634946/drv_ethmac_lib.o
                0x9d0bad5c                DRV_ETHMAC_LibTxAcknowledgeBuffer

.text.NET_PRES_SocketWrite
                0x9d0bae28       0xcc
 .text.NET_PRES_SocketWrite
                0x9d0bae28       0xcc build/pic32mz_ef_sk/production/_ext/871719959/net_pres.o
                0x9d0bae28                NET_PRES_SocketWrite

.text.NET_PRES_SocketRead
                0x9d0baef4       0xcc
 .text.NET_PRES_SocketRead
                0x9d0baef4       0xcc build/pic32mz_ef_sk/production/_ext/871719959/net_pres.o
                0x9d0baef4                NET_PRES_SocketRead

.text.SYS_FS_FileClose
                0x9d0bafc0       0xcc
 .text.SYS_FS_FileClose
                0x9d0bafc0       0xcc build/pic32mz_ef_sk/production/_ext/1750042194/sys_fs.o
                0x9d0bafc0                SYS_FS_FileClose

.text.TCPIP_NDP_PrefixListEntryCreate
                0x9d0bb08c       0xcc
 .text.TCPIP_NDP_PrefixListEntryCreate
                0x9d0bb08c       0xcc build/pic32mz_ef_sk/production/_ext/1164207549/ndp.o
                0x9d0bb08c                TCPIP_NDP_PrefixListEntryCreate

.text.TCPIP_NDP_PrefixInfoProcessForOnLinkStatus
                0x9d0bb158       0xcc
 .text.TCPIP_NDP_PrefixInfoProcessForOnLinkStatus
                0x9d0bb158       0xcc build/pic32mz_ef_sk/production/_ext/1164207549/ndp.o
                0x9d0bb158                TCPIP_NDP_PrefixInfoProcessForOnLinkStatus

.text.TCPIP_IPV6_NewRouterEntry
                0x9d0bb224       0xcc
 .text.TCPIP_IPV6_NewRouterEntry
                0x9d0bb224       0xcc build/pic32mz_ef_sk/production/_ext/1164207549/ipv6.o

.text._TCPIP_IPV6_QueuedPacketTransmitTask
                0x9d0bb2f0       0xcc
 .text._TCPIP_IPV6_QueuedPacketTransmitTask
                0x9d0bb2f0       0xcc build/pic32mz_ef_sk/production/_ext/1164207549/ipv6.o

.text.TCPIP_IPV6_AddressFind
                0x9d0bb3bc       0xcc
 .text.TCPIP_IPV6_AddressFind
                0x9d0bb3bc       0xcc build/pic32mz_ef_sk/production/_ext/1164207549/ipv6.o
                0x9d0bb3bc                TCPIP_IPV6_AddressFind

.text.TCPIP_ICMPV6_HeaderNeighborSolicitationPut
                0x9d0bb488       0xcc
 .text.TCPIP_ICMPV6_HeaderNeighborSolicitationPut
                0x9d0bb488       0xcc build/pic32mz_ef_sk/production/_ext/1164207549/icmpv6.o
                0x9d0bb488                TCPIP_ICMPV6_HeaderNeighborSolicitationPut

.text.TCPIP_ARP_EntryRemove
                0x9d0bb554       0xcc
 .text.TCPIP_ARP_EntryRemove
                0x9d0bb554       0xcc build/pic32mz_ef_sk/production/_ext/1164207549/arp.o
                0x9d0bb554                TCPIP_ARP_EntryRemove

.text.TCPIP_ZCLL_Initialize
                0x9d0bb620       0xcc
 .text.TCPIP_ZCLL_Initialize
                0x9d0bb620       0xcc build/pic32mz_ef_sk/production/_ext/1164207549/zero_conf_link_local.o
                0x9d0bb620                TCPIP_ZCLL_Initialize

.text.DRV_TMR_Tasks
                0x9d0bb6ec       0xc8
 .text.DRV_TMR_Tasks
                0x9d0bb6ec       0xc8 build/pic32mz_ef_sk/production/_ext/941160041/drv_tmr.o
                0x9d0bb6ec                DRV_TMR_Tasks

.text._TCP_PayloadSet
                0x9d0bb7b4       0xc8
 .text._TCP_PayloadSet
                0x9d0bb7b4       0xc8 build/pic32mz_ef_sk/production/_ext/1164207549/tcp.o

.text.TCPIP_OAHASH_EntryLookupOrInsert
                0x9d0bb87c       0xc8
 .text.TCPIP_OAHASH_EntryLookupOrInsert
                0x9d0bb87c       0xc8 build/pic32mz_ef_sk/production/_ext/1164207549/oahash.o
                0x9d0bb87c                TCPIP_OAHASH_EntryLookupOrInsert

.text._NetConfigStringToBuffer
                0x9d0bb944       0xc8
 .text._NetConfigStringToBuffer
                0x9d0bb944       0xc8 build/pic32mz_ef_sk/production/_ext/1164207549/tcpip_manager.o

.text.safeSend  0x9d0bba0c       0xc8
 .text.safeSend
                0x9d0bba0c       0xc8 build/pic32mz_ef_sk/production/_ext/1360937237/websocket_thread.o
                0x9d0bba0c                safeSend

.text._sbrk     0x9d0bbad4       0xc8
 .text._sbrk    0x9d0bbad4       0xc8 c:/program files (x86)/microchip/xc32/v1.44/bin/bin/../../lib/gcc/pic32mx/4.8.3/../../../../pic32mx/lib/fpu64\libpic32.a(sbrk.o)
                0x9d0bbad4                _sbrk

.text._DRV_TMR_ClockPrescaleSet
                0x9d0bbb9c       0xc4
 .text._DRV_TMR_ClockPrescaleSet
                0x9d0bbb9c       0xc4 build/pic32mz_ef_sk/production/_ext/941160041/drv_tmr.o

.text.DRV_USART_LineControlSet
                0x9d0bbc60       0xc4
 .text.DRV_USART_LineControlSet
                0x9d0bbc60       0xc4 build/pic32mz_ef_sk/production/_ext/821589181/drv_usart.o
                0x9d0bbc60                DRV_USART_LineControlSet

.text.TCPIP_IPV6_TxPacketAllocate
                0x9d0bbd24       0xc4
 .text.TCPIP_IPV6_TxPacketAllocate
                0x9d0bbd24       0xc4 build/pic32mz_ef_sk/production/_ext/1164207549/ipv6.o
                0x9d0bbd24                TCPIP_IPV6_TxPacketAllocate

.text._DHCPOptionWriteSrvIdent
                0x9d0bbde8       0xc4
 .text._DHCPOptionWriteSrvIdent
                0x9d0bbde8       0xc4 build/pic32mz_ef_sk/production/_ext/1164207549/dhcp.o

.text._DRV_MIIM_ReleaseOpDcpt
                0x9d0bbeac       0xc0
 .text._DRV_MIIM_ReleaseOpDcpt
                0x9d0bbeac       0xc0 build/pic32mz_ef_sk/production/_ext/1470245908/drv_miim.o

.text.SYS_CMD_PRINT
                0x9d0bbf6c       0xc0
 .text.SYS_CMD_PRINT
                0x9d0bbf6c       0xc0 build/pic32mz_ef_sk/production/_ext/1891376032/sys_command.o
                0x9d0bbf6c                SYS_CMD_PRINT

.text.TCPIP_NDP_DefaultRouterGet
                0x9d0bc02c       0xc0
 .text.TCPIP_NDP_DefaultRouterGet
                0x9d0bc02c       0xc0 build/pic32mz_ef_sk/production/_ext/1164207549/ndp.o
                0x9d0bc02c                TCPIP_NDP_DefaultRouterGet

.text.TCPIP_IPV6_SolicitedNodeMulticastAddressFind
                0x9d0bc0ec       0xc0
 .text.TCPIP_IPV6_SolicitedNodeMulticastAddressFind
                0x9d0bc0ec       0xc0 build/pic32mz_ef_sk/production/_ext/1164207549/ipv6.o
                0x9d0bc0ec                TCPIP_IPV6_SolicitedNodeMulticastAddressFind

.text._DHCPOptionProcessDns
                0x9d0bc1ac       0xc0
 .text._DHCPOptionProcessDns
                0x9d0bc1ac       0xc0 build/pic32mz_ef_sk/production/_ext/1164207549/dhcp.o

.text.TCPIP_ANNOUNCE_Task
                0x9d0bc26c       0xc0
 .text.TCPIP_ANNOUNCE_Task
                0x9d0bc26c       0xc0 build/pic32mz_ef_sk/production/_ext/1164207549/tcpip_announce.o
                0x9d0bc26c                TCPIP_ANNOUNCE_Task

.text._TCPIPStackIPv6AddToNet
                0x9d0bc32c       0xc0
 .text._TCPIPStackIPv6AddToNet
                0x9d0bc32c       0xc0 build/pic32mz_ef_sk/production/_ext/1164207549/tcpip_manager.o
                0x9d0bc32c                _TCPIPStackIPv6AddToNet

.text.xQueueGenericReset
                0x9d0bc3ec       0xc0
 .text.xQueueGenericReset
                0x9d0bc3ec       0xc0 build/pic32mz_ef_sk/production/_ext/373060831/queue.o
                0x9d0bc3ec                xQueueGenericReset

.text.xQueueGiveFromISR
                0x9d0bc4ac       0xc0
 .text.xQueueGiveFromISR
                0x9d0bc4ac       0xc0 build/pic32mz_ef_sk/production/_ext/373060831/queue.o
                0x9d0bc4ac                xQueueGiveFromISR

.text.SendCommandPrint
                0x9d0bc56c       0xbc
 .text.SendCommandPrint
                0x9d0bc56c       0xbc build/pic32mz_ef_sk/production/_ext/1891376032/sys_command.o

.text.SYS_CMDIO_ADD
                0x9d0bc628       0xbc
 .text.SYS_CMDIO_ADD
                0x9d0bc628       0xbc build/pic32mz_ef_sk/production/_ext/1891376032/sys_command.o
                0x9d0bc628                SYS_CMDIO_ADD

.text.TCPIP_TCP_DestinationIPAddressSet
                0x9d0bc6e4       0xbc
 .text.TCPIP_TCP_DestinationIPAddressSet
                0x9d0bc6e4       0xbc build/pic32mz_ef_sk/production/_ext/1164207549/tcp.o
                0x9d0bc6e4                TCPIP_TCP_DestinationIPAddressSet

.text.TCPIP_UDP_ArrayPut
                0x9d0bc7a0       0xbc
 .text.TCPIP_UDP_ArrayPut
                0x9d0bc7a0       0xbc build/pic32mz_ef_sk/production/_ext/1164207549/udp.o
                0x9d0bc7a0                TCPIP_UDP_ArrayPut

.text.TCPIP_UDP_SocketNetSet
                0x9d0bc85c       0xbc
 .text.TCPIP_UDP_SocketNetSet
                0x9d0bc85c       0xbc build/pic32mz_ef_sk/production/_ext/1164207549/udp.o
                0x9d0bc85c                TCPIP_UDP_SocketNetSet

.text.TCPIP_UDP_DestinationIPAddressSet
                0x9d0bc918       0xbc
 .text.TCPIP_UDP_DestinationIPAddressSet
                0x9d0bc918       0xbc build/pic32mz_ef_sk/production/_ext/1164207549/udp.o
                0x9d0bc918                TCPIP_UDP_DestinationIPAddressSet

.text._DHCPOptionWriteIPRequest
                0x9d0bc9d4       0xbc
 .text._DHCPOptionWriteIPRequest
                0x9d0bc9d4       0xbc build/pic32mz_ef_sk/production/_ext/1164207549/dhcp.o

.text.TCPIP_DNS_Disable
                0x9d0bca90       0xbc
 .text.TCPIP_DNS_Disable
                0x9d0bca90       0xbc build/pic32mz_ef_sk/production/_ext/1164207549/dns.o
                0x9d0bca90                TCPIP_DNS_Disable

.text.xTaskRemoveFromEventList
                0x9d0bcb4c       0xbc
 .text.xTaskRemoveFromEventList
                0x9d0bcb4c       0xbc build/pic32mz_ef_sk/production/_ext/373060831/tasks.o
                0x9d0bcb4c                xTaskRemoveFromEventList

.tlb.__pic32_tlb_init_ebi_sqi
                0x9d0bcc08       0xbc
 .tlb.__pic32_tlb_init_ebi_sqi
                0x9d0bcc08       0xbc c:/program files (x86)/microchip/xc32/v1.44/bin/bin/../../lib/gcc/pic32mx/4.8.3/../../../../pic32mx/lib/fpu64\libpic32.a(pic32_init_tlb_ebi_sqi.o)
                0x9d0bcc08                __pic32_tlb_init_ebi_sqi

.text._SYS_FS_DiskGet
                0x9d0bccc4       0xb8
 .text._SYS_FS_DiskGet
                0x9d0bccc4       0xb8 build/pic32mz_ef_sk/production/_ext/1750042194/sys_fs.o
                0x9d0bccc4                _SYS_FS_DiskGet

.text.TCPIP_DNS_OAHASH_DeleteEntry
                0x9d0bcd7c       0xb8
 .text.TCPIP_DNS_OAHASH_DeleteEntry
                0x9d0bcd7c       0xb8 build/pic32mz_ef_sk/production/_ext/1164207549/dns.o

.text.TCPIP_DNS_GetIPAddressesNumber
                0x9d0bce34       0xb8
 .text.TCPIP_DNS_GetIPAddressesNumber
                0x9d0bce34       0xb8 build/pic32mz_ef_sk/production/_ext/1164207549/dns.o
                0x9d0bce34                TCPIP_DNS_GetIPAddressesNumber

.text.TCPIP_PKT_DataSegmentGet
                0x9d0bceec       0xb8
 .text.TCPIP_PKT_DataSegmentGet
                0x9d0bceec       0xb8 build/pic32mz_ef_sk/production/_ext/1164207549/tcpip_packet.o
                0x9d0bceec                TCPIP_PKT_DataSegmentGet

.text._EthTxSchedBuffer
                0x9d0bcfa4       0xb4
 .text._EthTxSchedBuffer
                0x9d0bcfa4       0xb4 build/pic32mz_ef_sk/production/_ext/1697634946/drv_ethmac_lib.o

.text.Console_UART_Read
                0x9d0bd058       0xb4
 .text.Console_UART_Read
                0x9d0bd058       0xb4 build/pic32mz_ef_sk/production/_ext/1434663852/sys_console_uart.o
                0x9d0bd058                Console_UART_Read

.text.SYS_FS_MEDIA_MANAGER_MediaStatusGet
                0x9d0bd10c       0xb4
 .text.SYS_FS_MEDIA_MANAGER_MediaStatusGet
                0x9d0bd10c       0xb4 build/pic32mz_ef_sk/production/_ext/1750042194/sys_fs_media_manager.o
                0x9d0bd10c                SYS_FS_MEDIA_MANAGER_MediaStatusGet

.text.TCPIP_UDP_BcastIPV4AddressSet
                0x9d0bd1c0       0xb4
 .text.TCPIP_UDP_BcastIPV4AddressSet
                0x9d0bd1c0       0xb4 build/pic32mz_ef_sk/production/_ext/1164207549/udp.o
                0x9d0bd1c0                TCPIP_UDP_BcastIPV4AddressSet

.text._ARPNotifyClients
                0x9d0bd274       0xb4
 .text._ARPNotifyClients
                0x9d0bd274       0xb4 build/pic32mz_ef_sk/production/_ext/1164207549/arp.o

.text.TCPIP_DHCP_Disable
                0x9d0bd328       0xb4
 .text.TCPIP_DHCP_Disable
                0x9d0bd328       0xb4 build/pic32mz_ef_sk/production/_ext/1164207549/dhcp.o
                0x9d0bd328                TCPIP_DHCP_Disable

.text._DNS_DeleteHash
                0x9d0bd3dc       0xb4
 .text._DNS_DeleteHash
                0x9d0bd3dc       0xb4 build/pic32mz_ef_sk/production/_ext/1164207549/dns.o

.text.TCPIP_STACK_NetDown
                0x9d0bd490       0xb4
 .text.TCPIP_STACK_NetDown
                0x9d0bd490       0xb4 build/pic32mz_ef_sk/production/_ext/1164207549/tcpip_manager.o
                0x9d0bd490                TCPIP_STACK_NetDown

.text._TCPIPStackInsertRxPacket
                0x9d0bd544       0xb4
 .text._TCPIPStackInsertRxPacket
                0x9d0bd544       0xb4 build/pic32mz_ef_sk/production/_ext/1164207549/tcpip_manager.o
                0x9d0bd544                _TCPIPStackInsertRxPacket

.text.pvPortMalloc
                0x9d0bd5f8       0xb4
 .text.pvPortMalloc
                0x9d0bd5f8       0xb4 build/pic32mz_ef_sk/production/_ext/1107379230/heap_1.o
                0x9d0bd5f8                pvPortMalloc

.text.prvIdleTask
                0x9d0bd6ac       0xb4
 .text.prvIdleTask
                0x9d0bd6ac       0xb4 build/pic32mz_ef_sk/production/_ext/373060831/tasks.o

.text.getUptoLinefeed
                0x9d0bd760       0xb4
 .text.getUptoLinefeed
                0x9d0bd760       0xb4 build/pic32mz_ef_sk/production/_ext/1360937237/websocket.o

.text._DRV_ETHPHY_ResetPhaseWrite
                0x9d0bd814       0xb0
 .text._DRV_ETHPHY_ResetPhaseWrite
                0x9d0bd814       0xb0 build/pic32mz_ef_sk/production/_ext/521481140/drv_ethphy.o

.text.TCPIP_NDP_PrefixOnLinkStatusGet
                0x9d0bd8c4       0xb0
 .text.TCPIP_NDP_PrefixOnLinkStatusGet
                0x9d0bd8c4       0xb0 build/pic32mz_ef_sk/production/_ext/1164207549/ndp.o
                0x9d0bd8c4                TCPIP_NDP_PrefixOnLinkStatusGet

.text.TCPIP_ICMPV6_HeaderEchoRequestPut
                0x9d0bd974       0xb0
 .text.TCPIP_ICMPV6_HeaderEchoRequestPut
                0x9d0bd974       0xb0 build/pic32mz_ef_sk/production/_ext/1164207549/icmpv6.o
                0x9d0bd974                TCPIP_ICMPV6_HeaderEchoRequestPut

.text._DNS_AddSelectionIf
                0x9d0bda24       0xb0
 .text._DNS_AddSelectionIf
                0x9d0bda24       0xb0 build/pic32mz_ef_sk/production/_ext/1164207549/dns.o

.text.TCPIP_HTTP_PostValueRead
                0x9d0bdad4       0xb0
 .text.TCPIP_HTTP_PostValueRead
                0x9d0bdad4       0xb0 build/pic32mz_ef_sk/production/_ext/1164207549/http.o
                0x9d0bdad4                TCPIP_HTTP_PostValueRead

.text.BSP_LEDOff
                0x9d0bdb84       0xac
 .text.BSP_LEDOff
                0x9d0bdb84       0xac build/pic32mz_ef_sk/production/_ext/354129722/bsp.o
                0x9d0bdb84                BSP_LEDOff

.text.TCPIP_HTTP_Print_ledSelected
                0x9d0bdc30       0xac
 .text.TCPIP_HTTP_Print_ledSelected
                0x9d0bdc30       0xac build/pic32mz_ef_sk/production/_ext/1360937237/custom_http_app.o
                0x9d0bdc30                TCPIP_HTTP_Print_ledSelected

.text._DRV_ETHMAC_LinkStateWaitLinkUp
                0x9d0bdcdc       0xac
 .text._DRV_ETHMAC_LinkStateWaitLinkUp
                0x9d0bdcdc       0xac build/pic32mz_ef_sk/production/_ext/1697634946/drv_ethmac.o

.text._DRV_ETHPHY_NegCompletePhaseRead2
                0x9d0bdd88       0xac
 .text._DRV_ETHPHY_NegCompletePhaseRead2
                0x9d0bdd88       0xac build/pic32mz_ef_sk/production/_ext/521481140/drv_ethphy.o

.text._DRV_NVM_UnlockSequence
                0x9d0bde34       0xac
 .text._DRV_NVM_UnlockSequence
                0x9d0bde34       0xac build/pic32mz_ef_sk/production/_ext/184581597/drv_nvm.o
                0x9d0bde34                _DRV_NVM_UnlockSequence

.text.TCPIP_IPV6_RoutingHeaderProcess
                0x9d0bdee0       0xac
 .text.TCPIP_IPV6_RoutingHeaderProcess
                0x9d0bdee0       0xac build/pic32mz_ef_sk/production/_ext/1164207549/ipv6.o
                0x9d0bdee0                TCPIP_IPV6_RoutingHeaderProcess

.text.TCPIP_TCP_RemoteBind
                0x9d0bdf8c       0xac
 .text.TCPIP_TCP_RemoteBind
                0x9d0bdf8c       0xac build/pic32mz_ef_sk/production/_ext/1164207549/tcp.o
                0x9d0bdf8c                TCPIP_TCP_RemoteBind

.text.TCPIP_UDP_IsConnected
                0x9d0be038       0xac
 .text.TCPIP_UDP_IsConnected
                0x9d0be038       0xac build/pic32mz_ef_sk/production/_ext/1164207549/udp.o
                0x9d0be038                TCPIP_UDP_IsConnected

.text._DNS_Enable
                0x9d0be0e4       0xac
 .text._DNS_Enable
                0x9d0be0e4       0xac build/pic32mz_ef_sk/production/_ext/1164207549/dns.o

.text._TCPIP_AnnounceCleanup
                0x9d0be190       0xac
 .text._TCPIP_AnnounceCleanup
                0x9d0be190       0xac build/pic32mz_ef_sk/production/_ext/1164207549/tcpip_announce.o

.text.atol      0x9d0be23c       0xac
 .text.atol     0x9d0be23c       0xac c:/program files (x86)/microchip/xc32/v1.44/bin/bin/../../lib/gcc/pic32mx/4.8.3/../../../../pic32mx/lib/fpu64\libc.a(atol.o)
                0x9d0be23c                atol

.text.TCPIP_HTTP_Print_btn
                0x9d0be2e8       0xa8
 .text.TCPIP_HTTP_Print_btn
                0x9d0be2e8       0xa8 build/pic32mz_ef_sk/production/_ext/1360937237/custom_http_app.o
                0x9d0be2e8                TCPIP_HTTP_Print_btn

.text.DRV_ETHMAC_PIC32MACRegisterStatisticsGet
                0x9d0be390       0xa8
 .text.DRV_ETHMAC_PIC32MACRegisterStatisticsGet
                0x9d0be390       0xa8 build/pic32mz_ef_sk/production/_ext/1697634946/drv_ethmac.o
                0x9d0be390                DRV_ETHMAC_PIC32MACRegisterStatisticsGet

.text.DRV_ETHPHY_VendorSMIReadStart
                0x9d0be438       0xa8
 .text.DRV_ETHPHY_VendorSMIReadStart
                0x9d0be438       0xa8 build/pic32mz_ef_sk/production/_ext/521481140/drv_ethphy.o
                0x9d0be438                DRV_ETHPHY_VendorSMIReadStart

.text.DRV_ETHPHY_VendorSMIWriteStart
                0x9d0be4e0       0xa8
 .text.DRV_ETHPHY_VendorSMIWriteStart
                0x9d0be4e0       0xa8 build/pic32mz_ef_sk/production/_ext/521481140/drv_ethphy.o
                0x9d0be4e0                DRV_ETHPHY_VendorSMIWriteStart

.text.SYS_FS_FileNameFormat
                0x9d0be588       0xa8
 .text.SYS_FS_FileNameFormat
                0x9d0be588       0xa8 build/pic32mz_ef_sk/production/_ext/1886247299/sys_fs_wrapper.o

.text.TCPIP_IPV6_TransmitPacketStateReset
                0x9d0be630       0xa8
 .text.TCPIP_IPV6_TransmitPacketStateReset
                0x9d0be630       0xa8 build/pic32mz_ef_sk/production/_ext/1164207549/ipv6.o
                0x9d0be630                TCPIP_IPV6_TransmitPacketStateReset

.text.TCPIP_UDP_OpenClientSkt
                0x9d0be6d8       0xa8
 .text.TCPIP_UDP_OpenClientSkt
                0x9d0be6d8       0xa8 build/pic32mz_ef_sk/production/_ext/1164207549/udp.o
                0x9d0be6d8                TCPIP_UDP_OpenClientSkt

.text.TCPIP_PKT_PacketMACFormat
                0x9d0be780       0xa8
 .text.TCPIP_PKT_PacketMACFormat
                0x9d0be780       0xa8 build/pic32mz_ef_sk/production/_ext/1164207549/tcpip_packet.o
                0x9d0be780                TCPIP_PKT_PacketMACFormat

.text           0x9d0be828       0xa8
 .text          0x9d0be828       0xa8 c:/program files (x86)/microchip/xc32/v1.44/bin/bin/../../lib/gcc/pic32mx/4.8.3/../../../../pic32mx/lib/fpu64\libpic32.a(memset.o)
                0x9d0be828                memset

.text.atoi      0x9d0be8d0       0xa8
 .text.atoi     0x9d0be8d0       0xa8 c:/program files (x86)/microchip/xc32/v1.44/bin/bin/../../lib/gcc/pic32mx/4.8.3/../../../../pic32mx/lib/fpu64\libc.a(atoi.o)
                0x9d0be8d0                atoi

.text.range     0x9d0be978       0xa8
 .text.range    0x9d0be978       0xa8 c:/program files (x86)/microchip/xc32/v1.44/bin/bin/../../lib/gcc/pic32mx/4.8.3/../../../../pic32mx/lib/fpu64\libc.a(doscan_s.eo)

.text.DRV_ETHPHY_Initialize
                0x9d0bea20       0xa4
 .text.DRV_ETHPHY_Initialize
                0x9d0bea20       0xa4 build/pic32mz_ef_sk/production/_ext/521481140/drv_ethphy.o
                0x9d0bea20                DRV_ETHPHY_Initialize

.text._DRV_ETHPHY_SetupPhaseNegotiate_SubPhase6
                0x9d0beac4       0xa4
 .text._DRV_ETHPHY_SetupPhaseNegotiate_SubPhase6
                0x9d0beac4       0xa4 build/pic32mz_ef_sk/production/_ext/521481140/drv_ethphy.o

.text.TCPIP_IPV4_Initialize
                0x9d0beb68       0xa4
 .text.TCPIP_IPV4_Initialize
                0x9d0beb68       0xa4 build/pic32mz_ef_sk/production/_ext/1164207549/ipv4.o
                0x9d0beb68                TCPIP_IPV4_Initialize

.text.TCPIP_NDP_AddressConstructFromPrefix
                0x9d0bec0c       0xa4
 .text.TCPIP_NDP_AddressConstructFromPrefix
                0x9d0bec0c       0xa4 build/pic32mz_ef_sk/production/_ext/1164207549/ndp.o
                0x9d0bec0c                TCPIP_NDP_AddressConstructFromPrefix

.text._ICMPV6_NotifyClients
                0x9d0becb0       0xa4
 .text._ICMPV6_NotifyClients
                0x9d0becb0       0xa4 build/pic32mz_ef_sk/production/_ext/1164207549/icmpv6.o

.text.TCPIP_ICMPV6_Open
                0x9d0bed54       0xa4
 .text.TCPIP_ICMPV6_Open
                0x9d0bed54       0xa4 build/pic32mz_ef_sk/production/_ext/1164207549/icmpv6.o
                0x9d0bed54                TCPIP_ICMPV6_Open

.text._TCPIPStackModuleSignalRequest
                0x9d0bedf8       0xa4
 .text._TCPIPStackModuleSignalRequest
                0x9d0bedf8       0xa4 build/pic32mz_ef_sk/production/_ext/1164207549/tcpip_manager.o
                0x9d0bedf8                _TCPIPStackModuleSignalRequest

.text._DRV_ETHPHY_LinkStatPhaseRead
                0x9d0bee9c       0xa0
 .text._DRV_ETHPHY_LinkStatPhaseRead
                0x9d0bee9c       0xa0 build/pic32mz_ef_sk/production/_ext/521481140/drv_ethphy.o

.text.DRV_USART_TasksReceive
                0x9d0bef3c       0xa0
 .text.DRV_USART_TasksReceive
                0x9d0bef3c       0xa0 build/pic32mz_ef_sk/production/_ext/821589181/drv_usart.o
                0x9d0bef3c                DRV_USART_TasksReceive

.text.DRV_USART_TasksTransmit
                0x9d0befdc       0xa0
 .text.DRV_USART_TasksTransmit
                0x9d0befdc       0xa0 build/pic32mz_ef_sk/production/_ext/821589181/drv_usart.o
                0x9d0befdc                DRV_USART_TasksTransmit

.text.DRV_USART_TasksError
                0x9d0bf07c       0xa0
 .text.DRV_USART_TasksError
                0x9d0bf07c       0xa0 build/pic32mz_ef_sk/production/_ext/821589181/drv_usart.o
                0x9d0bf07c                DRV_USART_TasksError

.text.Console_UART_Status
                0x9d0bf11c       0xa0
 .text.Console_UART_Status
                0x9d0bf11c       0xa0 build/pic32mz_ef_sk/production/_ext/1434663852/sys_console_uart.o
                0x9d0bf11c                Console_UART_Status

.text.TCPIP_NDP_DupAddrDiscoveryDetect
                0x9d0bf1bc       0xa0
 .text.TCPIP_NDP_DupAddrDiscoveryDetect
                0x9d0bf1bc       0xa0 build/pic32mz_ef_sk/production/_ext/1164207549/ndp.o
                0x9d0bf1bc                TCPIP_NDP_DupAddrDiscoveryDetect

.text.TCPIP_IPV6_UpperLayerHeaderPut
                0x9d0bf25c       0xa0
 .text.TCPIP_IPV6_UpperLayerHeaderPut
                0x9d0bf25c       0xa0 build/pic32mz_ef_sk/production/_ext/1164207549/ipv6.o
                0x9d0bf25c                TCPIP_IPV6_UpperLayerHeaderPut

.text.TCPIP_ICMPV6_HeaderErrorPut
                0x9d0bf2fc       0xa0
 .text.TCPIP_ICMPV6_HeaderErrorPut
                0x9d0bf2fc       0xa0 build/pic32mz_ef_sk/production/_ext/1164207549/icmpv6.o
                0x9d0bf2fc                TCPIP_ICMPV6_HeaderErrorPut

.text._TCPSendWinIncUpdate
                0x9d0bf39c       0xa0
 .text._TCPSendWinIncUpdate
                0x9d0bf39c       0xa0 build/pic32mz_ef_sk/production/_ext/1164207549/tcp.o

.rodata         0x9d0bf43c       0xa0
 .rodata        0x9d0bf43c       0xa0 build/pic32mz_ef_sk/production/_ext/1164207549/dhcp.o

.text.TCPIP_DNS_RemoveAll
                0x9d0bf4dc       0xa0
 .text.TCPIP_DNS_RemoveAll
                0x9d0bf4dc       0xa0 build/pic32mz_ef_sk/production/_ext/1164207549/dns.o
                0x9d0bf4dc                TCPIP_DNS_RemoveAll

.text.TCPIP_Helper_FindCommonPrefix
                0x9d0bf57c       0xa0
 .text.TCPIP_Helper_FindCommonPrefix
                0x9d0bf57c       0xa0 build/pic32mz_ef_sk/production/_ext/1164207549/tcpip_helpers.o
                0x9d0bf57c                TCPIP_Helper_FindCommonPrefix

.text.TCPIP_Helper_SingleListNodeRemove
                0x9d0bf61c       0xa0
 .text.TCPIP_Helper_SingleListNodeRemove
                0x9d0bf61c       0xa0 build/pic32mz_ef_sk/production/_ext/1164207549/tcpip_helpers.o
                0x9d0bf61c                TCPIP_Helper_SingleListNodeRemove

.text._TCPIP_PKT_PacketFree
                0x9d0bf6bc       0xa0
 .text._TCPIP_PKT_PacketFree
                0x9d0bf6bc       0xa0 build/pic32mz_ef_sk/production/_ext/1164207549/tcpip_packet.o
                0x9d0bf6bc                _TCPIP_PKT_PacketFree

.text.xTaskCheckForTimeOut
                0x9d0bf75c       0xa0
 .text.xTaskCheckForTimeOut
                0x9d0bf75c       0xa0 build/pic32mz_ef_sk/production/_ext/373060831/tasks.o
                0x9d0bf75c                xTaskCheckForTimeOut

.text.fflush    0x9d0bf7fc       0xa0
 .text.fflush   0x9d0bf7fc       0xa0 c:/program files (x86)/microchip/xc32/v1.44/bin/bin/../../lib/gcc/pic32mx/4.8.3/../../../../pic32mx/lib/fpu64\libc.a(fflush.o)
                0x9d0bf7fc                fflush

.text._DRV_ETHMAC_LinkStateGetLink
                0x9d0bf89c       0x9c
 .text._DRV_ETHMAC_LinkStateGetLink
                0x9d0bf89c       0x9c build/pic32mz_ef_sk/production/_ext/1697634946/drv_ethmac.o

.text.Helper_SingleListNodeRemove
                0x9d0bf938       0x9c
 .text.Helper_SingleListNodeRemove
                0x9d0bf938       0x9c build/pic32mz_ef_sk/production/_ext/1470245908/drv_miim.o
                0x9d0bf938                Helper_SingleListNodeRemove

.text.DRV_MIIM_OperationAbort
                0x9d0bf9d4       0x9c
 .text.DRV_MIIM_OperationAbort
                0x9d0bf9d4       0x9c build/pic32mz_ef_sk/production/_ext/1470245908/drv_miim.o
                0x9d0bf9d4                DRV_MIIM_OperationAbort

.text._DRV_USART_ErrorConditionClear
                0x9d0bfa70       0x9c
 .text._DRV_USART_ErrorConditionClear
                0x9d0bfa70       0x9c build/pic32mz_ef_sk/production/_ext/821589181/drv_usart.o
                0x9d0bfa70                _DRV_USART_ErrorConditionClear

.text.SYS_FS_MEDIA_MANAGER_Read
                0x9d0bfb0c       0x9c
 .text.SYS_FS_MEDIA_MANAGER_Read
                0x9d0bfb0c       0x9c build/pic32mz_ef_sk/production/_ext/1750042194/sys_fs_media_manager.o
                0x9d0bfb0c                SYS_FS_MEDIA_MANAGER_Read

.text.TCPIP_ARP_Probe
                0x9d0bfba8       0x9c
 .text.TCPIP_ARP_Probe
                0x9d0bfba8       0x9c build/pic32mz_ef_sk/production/_ext/1164207549/arp.o
                0x9d0bfba8                TCPIP_ARP_Probe

.rodata         0x9d0bfc44       0x9c
 .rodata        0x9d0bfc44       0x9c build/pic32mz_ef_sk/production/_ext/1164207549/smtp.o

.text.TCPIP_STACK_StringToMACId
                0x9d0bfce0       0x9c
 .text.TCPIP_STACK_StringToMACId
                0x9d0bfce0       0x9c build/pic32mz_ef_sk/production/_ext/1164207549/tcpip_manager.o
                0x9d0bfce0                TCPIP_STACK_StringToMACId

.text._TCPIPStackModuleRxInsert
                0x9d0bfd7c       0x9c
 .text._TCPIPStackModuleRxInsert
                0x9d0bfd7c       0x9c build/pic32mz_ef_sk/production/_ext/1164207549/tcpip_manager.o
                0x9d0bfd7c                _TCPIPStackModuleRxInsert

.text.write     0x9d0bfe18       0x9c
 .text.write    0x9d0bfe18       0x9c c:/program files (x86)/microchip/xc32/v1.44/bin/bin/../../lib/gcc/pic32mx/4.8.3/../../../../pic32mx/lib/fpu64\libpic32.a(write.o)
                0x9d0bfe18                write

.text.DRV_ETHMAC_PIC32MACEventAcknowledge
                0x9d0bfeb4       0x98
 .text.DRV_ETHMAC_PIC32MACEventAcknowledge
                0x9d0bfeb4       0x98 build/pic32mz_ef_sk/production/_ext/1697634946/drv_ethmac.o
                0x9d0bfeb4                DRV_ETHMAC_PIC32MACEventAcknowledge

.text._EthTxSchedList
                0x9d0bff4c       0x98
 .text._EthTxSchedList
                0x9d0bff4c       0x98 build/pic32mz_ef_sk/production/_ext/1697634946/drv_ethmac_lib.o

.text.DRV_ETHMAC_LibDescriptorsPoolCleanUp
                0x9d0bffe4       0x98
 .text.DRV_ETHMAC_LibDescriptorsPoolCleanUp
                0x9d0bffe4       0x98 build/pic32mz_ef_sk/production/_ext/1697634946/drv_ethmac_lib.o
                0x9d0bffe4                DRV_ETHMAC_LibDescriptorsPoolCleanUp

.text._DRV_MIIM_GetClientAndLock
                0x9d0c007c       0x98
 .text._DRV_MIIM_GetClientAndLock
                0x9d0c007c       0x98 build/pic32mz_ef_sk/production/_ext/1470245908/drv_miim.o

.text.MPFSGetFileRecord
                0x9d0c0114       0x98
 .text.MPFSGetFileRecord
                0x9d0c0114       0x98 build/pic32mz_ef_sk/production/_ext/614935175/mpfs.o

.text.TCPIP_IPV6_MacPacketTxPutHeader
                0x9d0c01ac       0x98
 .text.TCPIP_IPV6_MacPacketTxPutHeader
                0x9d0c01ac       0x98 build/pic32mz_ef_sk/production/_ext/1164207549/ipv6.o

.text.TCPIP_IPV6_SourceAddressSet
                0x9d0c0244       0x98
 .text.TCPIP_IPV6_SourceAddressSet
                0x9d0c0244       0x98 build/pic32mz_ef_sk/production/_ext/1164207549/ipv6.o
                0x9d0c0244                TCPIP_IPV6_SourceAddressSet

.text._UDPSetSourceAddress
                0x9d0c02dc       0x98
 .text._UDPSetSourceAddress
                0x9d0c02dc       0x98 build/pic32mz_ef_sk/production/_ext/1164207549/udp.o

.text._UDPSetNewRxPacket
                0x9d0c0374       0x98
 .text._UDPSetNewRxPacket
                0x9d0c0374       0x98 build/pic32mz_ef_sk/production/_ext/1164207549/udp.o

.text._HTTP_Cleanup
                0x9d0c040c       0x98
 .text._HTTP_Cleanup
                0x9d0c040c       0x98 build/pic32mz_ef_sk/production/_ext/1164207549/http.o

.text.TCPIP_Helper_IPAddressToString
                0x9d0c04a4       0x98
 .text.TCPIP_Helper_IPAddressToString
                0x9d0c04a4       0x98 build/pic32mz_ef_sk/production/_ext/1164207549/tcpip_helpers.o
                0x9d0c04a4                TCPIP_Helper_IPAddressToString

.text.TCPIP_Helper_FormatNetBIOSName
                0x9d0c053c       0x98
 .text.TCPIP_Helper_FormatNetBIOSName
                0x9d0c053c       0x98 build/pic32mz_ef_sk/production/_ext/1164207549/tcpip_helpers.o
                0x9d0c053c                TCPIP_Helper_FormatNetBIOSName

.text.TCPIP_ICMP_Initialize
                0x9d0c05d4       0x98
 .text.TCPIP_ICMP_Initialize
                0x9d0c05d4       0x98 build/pic32mz_ef_sk/production/_ext/1164207549/icmp.o
                0x9d0c05d4                TCPIP_ICMP_Initialize

.text           0x9d0c066c       0x98
 .text          0x9d0c066c       0x98 c:/program files (x86)/microchip/xc32/v1.44/bin/bin/../../lib/gcc/pic32mx/4.8.3/../../../../pic32mx/lib/fpu64\libpic32.a(memcmp.o)
                0x9d0c066c                memcmp

.rodata         0x9d0c0704       0x94
 .rodata        0x9d0c0704       0x94 build/pic32mz_ef_sk/production/_ext/1360937237/ws_server.o

.text.TCPIP_IPV6_Deinitialize
                0x9d0c0798       0x94
 .text.TCPIP_IPV6_Deinitialize
                0x9d0c0798       0x94 build/pic32mz_ef_sk/production/_ext/1164207549/ipv6.o
                0x9d0c0798                TCPIP_IPV6_Deinitialize

.text._TcpCleanup
                0x9d0c082c       0x94
 .text._TcpCleanup
                0x9d0c082c       0x94 build/pic32mz_ef_sk/production/_ext/1164207549/tcp.o

.text.TCPIP_ARP_Deinitialize
                0x9d0c08c0       0x94
 .text.TCPIP_ARP_Deinitialize
                0x9d0c08c0       0x94 build/pic32mz_ef_sk/production/_ext/1164207549/arp.o
                0x9d0c08c0                TCPIP_ARP_Deinitialize

.text._DNS_CleanCacheEntry
                0x9d0c0954       0x94
 .text._DNS_CleanCacheEntry
                0x9d0c0954       0x94 build/pic32mz_ef_sk/production/_ext/1164207549/dns.o

.text.TCPIP_HTTP_ArgGet
                0x9d0c09e8       0x94
 .text.TCPIP_HTTP_ArgGet
                0x9d0c09e8       0x94 build/pic32mz_ef_sk/production/_ext/1164207549/http.o
                0x9d0c09e8                TCPIP_HTTP_ArgGet

.text.xQueueGenericCreate
                0x9d0c0a7c       0x94
 .text.xQueueGenericCreate
                0x9d0c0a7c       0x94 build/pic32mz_ef_sk/production/_ext/373060831/queue.o
                0x9d0c0a7c                xQueueGenericCreate

.text.TCPIP_HTTP_Print_led
                0x9d0c0b10       0x90
 .text.TCPIP_HTTP_Print_led
                0x9d0c0b10       0x90 build/pic32mz_ef_sk/production/_ext/1360937237/custom_http_app.o
                0x9d0c0b10                TCPIP_HTTP_Print_led

.text._DRV_ETHMAC_LinkStateNegComplete
                0x9d0c0ba0       0x90
 .text._DRV_ETHMAC_LinkStateNegComplete
                0x9d0c0ba0       0x90 build/pic32mz_ef_sk/production/_ext/1697634946/drv_ethmac.o

.text._DRV_ETHPHY_NegCompletePhaseAN_Complete
                0x9d0c0c30       0x90
 .text._DRV_ETHPHY_NegCompletePhaseAN_Complete
                0x9d0c0c30       0x90 build/pic32mz_ef_sk/production/_ext/521481140/drv_ethphy.o

.text.NET_PRES_SocketFlush
                0x9d0c0cc0       0x90
 .text.NET_PRES_SocketFlush
                0x9d0c0cc0       0x90 build/pic32mz_ef_sk/production/_ext/871719959/net_pres.o
                0x9d0c0cc0                NET_PRES_SocketFlush

.text.NET_PRES_SocketSignalHandlerRegister
                0x9d0c0d50       0x90
 .text.NET_PRES_SocketSignalHandlerRegister
                0x9d0c0d50       0x90 build/pic32mz_ef_sk/production/_ext/871719959/net_pres.o
                0x9d0c0d50                NET_PRES_SocketSignalHandlerRegister

.text.SYS_CONSOLE_Status
                0x9d0c0de0       0x90
 .text.SYS_CONSOLE_Status
                0x9d0c0de0       0x90 build/pic32mz_ef_sk/production/_ext/1434663852/sys_console.o
                0x9d0c0de0                SYS_CONSOLE_Status

.text.SYS_FS_FileNameGet
                0x9d0c0e70       0x90
 .text.SYS_FS_FileNameGet
                0x9d0c0e70       0x90 build/pic32mz_ef_sk/production/_ext/1750042194/sys_fs.o
                0x9d0c0e70                SYS_FS_FileNameGet

.text.SYS_FS_MEDIA_MANAGER_VolumePropertyGet
                0x9d0c0f00       0x90
 .text.SYS_FS_MEDIA_MANAGER_VolumePropertyGet
                0x9d0c0f00       0x90 build/pic32mz_ef_sk/production/_ext/1750042194/sys_fs_media_manager.o
                0x9d0c0f00                SYS_FS_MEDIA_MANAGER_VolumePropertyGet

.text.MPFSGetArray
                0x9d0c0f90       0x90
 .text.MPFSGetArray
                0x9d0c0f90       0x90 build/pic32mz_ef_sk/production/_ext/614935175/mpfs.o

.rodata         0x9d0c1020       0x90
 .rodata        0x9d0c1020       0x90 build/pic32mz_ef_sk/production/_ext/614935175/mpfs.o
                0x9d0c1028                MPFSFunctions

.text.uitoa     0x9d0c10b0       0x90
 .text.uitoa    0x9d0c10b0       0x90 build/pic32mz_ef_sk/production/_ext/1886247299/helpers.o
                0x9d0c10b0                uitoa

.text.TCPIP_NDP_DupAddrDiscoveryProcess
                0x9d0c1140       0x90
 .text.TCPIP_NDP_DupAddrDiscoveryProcess
                0x9d0c1140       0x90 build/pic32mz_ef_sk/production/_ext/1164207549/ndp.o
                0x9d0c1140                TCPIP_NDP_DupAddrDiscoveryProcess

.text.TCPIP_NDP_TentativeAddressPromote
                0x9d0c11d0       0x90
 .text.TCPIP_NDP_TentativeAddressPromote
                0x9d0c11d0       0x90 build/pic32mz_ef_sk/production/_ext/1164207549/ndp.o
                0x9d0c11d0                TCPIP_NDP_TentativeAddressPromote

.text.TCPIP_ICMPV6_HeaderRouterSolicitationPut
                0x9d0c1260       0x90
 .text.TCPIP_ICMPV6_HeaderRouterSolicitationPut
                0x9d0c1260       0x90 build/pic32mz_ef_sk/production/_ext/1164207549/icmpv6.o
                0x9d0c1260                TCPIP_ICMPV6_HeaderRouterSolicitationPut

.text._TCPSetSourceAddress
                0x9d0c12f0       0x90
 .text._TCPSetSourceAddress
                0x9d0c12f0       0x90 build/pic32mz_ef_sk/production/_ext/1164207549/tcp.o

.text._UDPFreeTxResources
                0x9d0c1380       0x90
 .text._UDPFreeTxResources
                0x9d0c1380       0x90 build/pic32mz_ef_sk/production/_ext/1164207549/udp.o

.text.TCPIP_ARP_EntryGet
                0x9d0c1410       0x90
 .text.TCPIP_ARP_EntryGet
                0x9d0c1410       0x90 build/pic32mz_ef_sk/production/_ext/1164207549/arp.o
                0x9d0c1410                TCPIP_ARP_EntryGet

.text._DHCPOptionClientId
                0x9d0c14a0       0x90
 .text._DHCPOptionClientId
                0x9d0c14a0       0x90 build/pic32mz_ef_sk/production/_ext/1164207549/dhcp.o

.text.TCPIP_DNS_ClientDeinitialize
                0x9d0c1530       0x90
 .text.TCPIP_DNS_ClientDeinitialize
                0x9d0c1530       0x90 build/pic32mz_ef_sk/production/_ext/1164207549/dns.o
                0x9d0c1530                TCPIP_DNS_ClientDeinitialize

.text._TCPIPStackIpAddFromAnyNet
                0x9d0c15c0       0x90
 .text._TCPIPStackIpAddFromAnyNet
                0x9d0c15c0       0x90 build/pic32mz_ef_sk/production/_ext/1164207549/tcpip_manager.o
                0x9d0c15c0                _TCPIPStackIpAddFromAnyNet

.text.wsSendDataCallback
                0x9d0c1650       0x90
 .text.wsSendDataCallback
                0x9d0c1650       0x90 build/pic32mz_ef_sk/production/_ext/1360937237/websocket_thread.o
                0x9d0c1650                wsSendDataCallback

.text.strstr    0x9d0c16e0       0x90
 .text.strstr   0x9d0c16e0       0x90 c:/program files (x86)/microchip/xc32/v1.44/bin/bin/../../lib/gcc/pic32mx/4.8.3/../../../../pic32mx/lib/fpu64\libc.a(strstr.o)
                0x9d0c16e0                strstr

.text._frexpx   0x9d0c1770       0x90
 .text._frexpx  0x9d0c1770       0x90 c:/program files (x86)/microchip/xc32/v1.44/bin/bin/../../lib/gcc/pic32mx/4.8.3/../../../../pic32mx/lib/fpu64\libmfd.a(s_frexp.o)
                0x9d0c1770                _frexpx

.text.OSAL_SEM_Create
                0x9d0c1800       0x8c
 .text.OSAL_SEM_Create
                0x9d0c1800       0x8c build/pic32mz_ef_sk/production/_ext/308321468/osal_freertos.o
                0x9d0c1800                OSAL_SEM_Create

.text.MPFS_DirOpen
                0x9d0c188c       0x8c
 .text.MPFS_DirOpen
                0x9d0c188c       0x8c build/pic32mz_ef_sk/production/_ext/614935175/mpfs.o
                0x9d0c188c                MPFS_DirOpen

.text.TCPIP_IPV6_AddressIsSolicitedNodeMulticast
                0x9d0c1918       0x8c
 .text.TCPIP_IPV6_AddressIsSolicitedNodeMulticast
                0x9d0c1918       0x8c build/pic32mz_ef_sk/production/_ext/1164207549/ipv6.o
                0x9d0c1918                TCPIP_IPV6_AddressIsSolicitedNodeMulticast

.text.TCPIP_UDP_TxOffsetSet
                0x9d0c19a4       0x8c
 .text.TCPIP_UDP_TxOffsetSet
                0x9d0c19a4       0x8c build/pic32mz_ef_sk/production/_ext/1164207549/udp.o
                0x9d0c19a4                TCPIP_UDP_TxOffsetSet

.text._DHCPCleanup
                0x9d0c1a30       0x8c
 .text._DHCPCleanup
                0x9d0c1a30       0x8c build/pic32mz_ef_sk/production/_ext/1164207549/dhcp.o

.text._DHCPNotifyClients
                0x9d0c1abc       0x8c
 .text._DHCPNotifyClients
                0x9d0c1abc       0x8c build/pic32mz_ef_sk/production/_ext/1164207549/dhcp.o

.text._DNSDiscardName
                0x9d0c1b48       0x8c
 .text._DNSDiscardName
                0x9d0c1b48       0x8c build/pic32mz_ef_sk/production/_ext/1164207549/dns.o

.text.TCPIP_STACK_NetAliasNameGet
                0x9d0c1bd4       0x8c
 .text.TCPIP_STACK_NetAliasNameGet
                0x9d0c1bd4       0x8c build/pic32mz_ef_sk/production/_ext/1164207549/tcpip_manager.o
                0x9d0c1bd4                TCPIP_STACK_NetAliasNameGet

.text.TCPIP_STACK_NetBiosNameSet
                0x9d0c1c60       0x8c
 .text.TCPIP_STACK_NetBiosNameSet
                0x9d0c1c60       0x8c build/pic32mz_ef_sk/production/_ext/1164207549/tcpip_manager.o
                0x9d0c1c60                TCPIP_STACK_NetBiosNameSet

.text.rand      0x9d0c1cec       0x8c
 .text.rand     0x9d0c1cec       0x8c c:/program files (x86)/microchip/xc32/v1.44/bin/bin/../../lib/gcc/pic32mx/4.8.3/../../../../pic32mx/lib/fpu64\libc.a(rand.o)
                0x9d0c1cec                rand

.text.DRV_ETHMAC_LibClose
                0x9d0c1d78       0x88
 .text.DRV_ETHMAC_LibClose
                0x9d0c1d78       0x88 build/pic32mz_ef_sk/production/_ext/1697634946/drv_ethmac_lib.o
                0x9d0c1d78                DRV_ETHMAC_LibClose

.text.MPFS_Seek
                0x9d0c1e00       0x88
 .text.MPFS_Seek
                0x9d0c1e00       0x88 build/pic32mz_ef_sk/production/_ext/614935175/mpfs.o
                0x9d0c1e00                MPFS_Seek

.text.hexatob   0x9d0c1e88       0x88
 .text.hexatob  0x9d0c1e88       0x88 build/pic32mz_ef_sk/production/_ext/1886247299/helpers.o
                0x9d0c1e88                hexatob

.rodata         0x9d0c1f10       0x88
 .rodata        0x9d0c1f10       0x88 build/pic32mz_ef_sk/production/_ext/1164207549/dns.o

.text.TCPIP_SNTP_ConnectionParamSet
                0x9d0c1f98       0x88
 .text.TCPIP_SNTP_ConnectionParamSet
                0x9d0c1f98       0x88 build/pic32mz_ef_sk/production/_ext/1164207549/sntp.o
                0x9d0c1f98                TCPIP_SNTP_ConnectionParamSet

.text.DRV_ETHPHY_VendorSMIReadResultGet
                0x9d0c2020       0x84
 .text.DRV_ETHPHY_VendorSMIReadResultGet
                0x9d0c2020       0x84 build/pic32mz_ef_sk/production/_ext/521481140/drv_ethphy.o
                0x9d0c2020                DRV_ETHPHY_VendorSMIReadResultGet

.text._DRV_MIIM_GetOpDcpt
                0x9d0c20a4       0x84
 .text._DRV_MIIM_GetOpDcpt
                0x9d0c20a4       0x84 build/pic32mz_ef_sk/production/_ext/1470245908/drv_miim.o

.text.NET_PRES_SocketOptionsSet
                0x9d0c2128       0x84
 .text.NET_PRES_SocketOptionsSet
                0x9d0c2128       0x84 build/pic32mz_ef_sk/production/_ext/871719959/net_pres.o
                0x9d0c2128                NET_PRES_SocketOptionsSet

.text.NET_PRES_SocketIsConnected
                0x9d0c21ac       0x84
 .text.NET_PRES_SocketIsConnected
                0x9d0c21ac       0x84 build/pic32mz_ef_sk/production/_ext/871719959/net_pres.o
                0x9d0c21ac                NET_PRES_SocketIsConnected

.text.TCPIP_IPV6_PayloadSet
                0x9d0c2230       0x84
 .text.TCPIP_IPV6_PayloadSet
                0x9d0c2230       0x84 build/pic32mz_ef_sk/production/_ext/1164207549/ipv6.o
                0x9d0c2230                TCPIP_IPV6_PayloadSet

.text.TCPIP_IPV6_ClientsNotify
                0x9d0c22b4       0x84
 .text.TCPIP_IPV6_ClientsNotify
                0x9d0c22b4       0x84 build/pic32mz_ef_sk/production/_ext/1164207549/ipv6.o
                0x9d0c22b4                TCPIP_IPV6_ClientsNotify

.text._TCPv6AllocateTxPacketStruct
                0x9d0c2338       0x84
 .text._TCPv6AllocateTxPacketStruct
                0x9d0c2338       0x84 build/pic32mz_ef_sk/production/_ext/1164207549/tcp.o

.text.TCPIP_UDP_RxOffsetSet
                0x9d0c23bc       0x84
 .text.TCPIP_UDP_RxOffsetSet
                0x9d0c23bc       0x84 build/pic32mz_ef_sk/production/_ext/1164207549/udp.o
                0x9d0c23bc                TCPIP_UDP_RxOffsetSet

.text._TCPIP_HEAP_MaxSize
                0x9d0c2440       0x84
 .text._TCPIP_HEAP_MaxSize
                0x9d0c2440       0x84 build/pic32mz_ef_sk/production/_ext/1164207549/tcpip_heap_internal.o

.text.TCPIP_SMTP_MailSend
                0x9d0c24c4       0x84
 .text.TCPIP_SMTP_MailSend
                0x9d0c24c4       0x84 build/pic32mz_ef_sk/production/_ext/1164207549/smtp.o
                0x9d0c24c4                TCPIP_SMTP_MailSend

.text.zgzc_wait_for
                0x9d0c2548       0x84
 .text.zgzc_wait_for
                0x9d0c2548       0x84 build/pic32mz_ef_sk/production/_ext/1164207549/zero_conf_helper.o
                0x9d0c2548                zgzc_wait_for

.text._FieldSetMacName
                0x9d0c25cc       0x84
 .text._FieldSetMacName
                0x9d0c25cc       0x84 build/pic32mz_ef_sk/production/_ext/1164207549/tcpip_announce.o
                0x9d0c25cc                _FieldSetMacName

.text.TCPIP_STACK_NetHandleGet
                0x9d0c2650       0x84
 .text.TCPIP_STACK_NetHandleGet
                0x9d0c2650       0x84 build/pic32mz_ef_sk/production/_ext/1164207549/tcpip_manager.o
                0x9d0c2650                TCPIP_STACK_NetHandleGet

.text._TCPIPStackSetConfigAddress
                0x9d0c26d4       0x84
 .text._TCPIPStackSetConfigAddress
                0x9d0c26d4       0x84 build/pic32mz_ef_sk/production/_ext/1164207549/tcpip_manager.o
                0x9d0c26d4                _TCPIPStackSetConfigAddress

.text._DRV_ETHPHY_SetupPhaseNegotiate_SubPhase1
                0x9d0c2758       0x80
 .text._DRV_ETHPHY_SetupPhaseNegotiate_SubPhase1
                0x9d0c2758       0x80 build/pic32mz_ef_sk/production/_ext/521481140/drv_ethphy.o

.text.DRV_MIIM_RegisterCallback
                0x9d0c27d8       0x80
 .text.DRV_MIIM_RegisterCallback
                0x9d0c27d8       0x80 build/pic32mz_ef_sk/production/_ext/1470245908/drv_miim.o
                0x9d0c27d8                DRV_MIIM_RegisterCallback

.text.ReadCommandCharacter
                0x9d0c2858       0x80
 .text.ReadCommandCharacter
                0x9d0c2858       0x80 build/pic32mz_ef_sk/production/_ext/1891376032/sys_command.o

.text.SYS_CONSOLE_Write
                0x9d0c28d8       0x80
 .text.SYS_CONSOLE_Write
                0x9d0c28d8       0x80 build/pic32mz_ef_sk/production/_ext/1434663852/sys_console.o
                0x9d0c28d8                SYS_CONSOLE_Write

.text._TCPIP_IPV6_Cleanup
                0x9d0c2958       0x80
 .text._TCPIP_IPV6_Cleanup
                0x9d0c2958       0x80 build/pic32mz_ef_sk/production/_ext/1164207549/ipv6.o

.text._TCPIP_HEAP_Delete
                0x9d0c29d8       0x80
 .text._TCPIP_HEAP_Delete
                0x9d0c29d8       0x80 build/pic32mz_ef_sk/production/_ext/1164207549/tcpip_heap_internal.o

.text.TCPIP_DNS_OAHASH_KeyCopy
                0x9d0c2a58       0x80
 .text.TCPIP_DNS_OAHASH_KeyCopy
                0x9d0c2a58       0x80 build/pic32mz_ef_sk/production/_ext/1164207549/dns.o

.text._ZCLLEnable
                0x9d0c2ad8       0x80
 .text._ZCLLEnable
                0x9d0c2ad8       0x80 build/pic32mz_ef_sk/production/_ext/1164207549/zero_conf_link_local.o

.text._FieldSetHostName
                0x9d0c2b58       0x80
 .text._FieldSetHostName
                0x9d0c2b58       0x80 build/pic32mz_ef_sk/production/_ext/1164207549/tcpip_announce.o
                0x9d0c2b58                _FieldSetHostName

.text.TCPIP_Helper_MACAddressToString
                0x9d0c2bd8       0x80
 .text.TCPIP_Helper_MACAddressToString
                0x9d0c2bd8       0x80 build/pic32mz_ef_sk/production/_ext/1164207549/tcpip_helpers.o
                0x9d0c2bd8                TCPIP_Helper_MACAddressToString

.text._fassert  0x9d0c2c58       0x80
 .text._fassert
                0x9d0c2c58       0x80 c:/program files (x86)/microchip/xc32/v1.44/bin/bin/../../lib/gcc/pic32mx/4.8.3/../../../../pic32mx/lib/fpu64\libc.a(fassert.o)
                0x9d0c2c58                _fassert

.text._DRV_ETHPHY_SetupPhaseNegotiate_SubPhase5
                0x9d0c2cd8       0x7c
 .text._DRV_ETHPHY_SetupPhaseNegotiate_SubPhase5
                0x9d0c2cd8       0x7c build/pic32mz_ef_sk/production/_ext/521481140/drv_ethphy.o

.text.CommandCleanup
                0x9d0c2d54       0x7c
 .text.CommandCleanup
                0x9d0c2d54       0x7c build/pic32mz_ef_sk/production/_ext/1891376032/sys_command.o

.text.TCPIP_NDP_DefaultRouterEntryCreate
                0x9d0c2dd0       0x7c
 .text.TCPIP_NDP_DefaultRouterEntryCreate
                0x9d0c2dd0       0x7c build/pic32mz_ef_sk/production/_ext/1164207549/ndp.o
                0x9d0c2dd0                TCPIP_NDP_DefaultRouterEntryCreate

.text._TCP_EphemeralPortAllocate
                0x9d0c2e4c       0x7c
 .text._TCP_EphemeralPortAllocate
                0x9d0c2e4c       0x7c build/pic32mz_ef_sk/production/_ext/1164207549/tcp.o

.text.TCPIP_TCP_FifoTxFullGet
                0x9d0c2ec8       0x7c
 .text.TCPIP_TCP_FifoTxFullGet
                0x9d0c2ec8       0x7c build/pic32mz_ef_sk/production/_ext/1164207549/tcp.o
                0x9d0c2ec8                TCPIP_TCP_FifoTxFullGet

.text._UDPAllocateEphemeralPort
                0x9d0c2f44       0x7c
 .text._UDPAllocateEphemeralPort
                0x9d0c2f44       0x7c build/pic32mz_ef_sk/production/_ext/1164207549/udp.o

.text.TCPIP_ARP_HandlerRegister
                0x9d0c2fc0       0x7c
 .text.TCPIP_ARP_HandlerRegister
                0x9d0c2fc0       0x7c build/pic32mz_ef_sk/production/_ext/1164207549/arp.o
                0x9d0c2fc0                TCPIP_ARP_HandlerRegister

.text.TCPIP_SNTP_TimeStampGet
                0x9d0c303c       0x7c
 .text.TCPIP_SNTP_TimeStampGet
                0x9d0c303c       0x7c build/pic32mz_ef_sk/production/_ext/1164207549/sntp.o
                0x9d0c303c                TCPIP_SNTP_TimeStampGet

.text._PingStop
                0x9d0c30b8       0x7c
 .text._PingStop
                0x9d0c30b8       0x7c build/pic32mz_ef_sk/production/_ext/1164207549/tcpip_commands.o

.text._TCPIP_MacEventCB
                0x9d0c3134       0x7c
 .text._TCPIP_MacEventCB
                0x9d0c3134       0x7c build/pic32mz_ef_sk/production/_ext/1164207549/tcpip_manager.o

.text._TCPIPStackModuleSignalGet
                0x9d0c31b0       0x7c
 .text._TCPIPStackModuleSignalGet
                0x9d0c31b0       0x7c build/pic32mz_ef_sk/production/_ext/1164207549/tcpip_manager.o
                0x9d0c31b0                _TCPIPStackModuleSignalGet

.text._DRV_ETHPHY_SetupPhaseNegotiate_SubPhase2
                0x9d0c322c       0x78
 .text._DRV_ETHPHY_SetupPhaseNegotiate_SubPhase2
                0x9d0c322c       0x78 build/pic32mz_ef_sk/production/_ext/521481140/drv_ethphy.o

.text._DRV_ETHPHY_NegRestartPhaseRead
                0x9d0c32a4       0x78
 .text._DRV_ETHPHY_NegRestartPhaseRead
                0x9d0c32a4       0x78 build/pic32mz_ef_sk/production/_ext/521481140/drv_ethphy.o

.text.DRV_TMR_CounterValueGet
                0x9d0c331c       0x78
 .text.DRV_TMR_CounterValueGet
                0x9d0c331c       0x78 build/pic32mz_ef_sk/production/_ext/941160041/drv_tmr.o
                0x9d0c331c                DRV_TMR_CounterValueGet

.rodata         0x9d0c3394       0x78
 .rodata        0x9d0c3394       0x78 build/pic32mz_ef_sk/production/_ext/821589181/drv_usart_read_write.o

.text.SYS_CONSOLE_Read
                0x9d0c340c       0x78
 .text.SYS_CONSOLE_Read
                0x9d0c340c       0x78 build/pic32mz_ef_sk/production/_ext/1434663852/sys_console.o
                0x9d0c340c                SYS_CONSOLE_Read

.text.TCPIP_NDP_Deinitialize
                0x9d0c3484       0x78
 .text.TCPIP_NDP_Deinitialize
                0x9d0c3484       0x78 build/pic32mz_ef_sk/production/_ext/1164207549/ndp.o
                0x9d0c3484                TCPIP_NDP_Deinitialize

.text.TCPIP_IPV6_HandlerRegister
                0x9d0c34fc       0x78
 .text.TCPIP_IPV6_HandlerRegister
                0x9d0c34fc       0x78 build/pic32mz_ef_sk/production/_ext/1164207549/ipv6.o
                0x9d0c34fc                TCPIP_IPV6_HandlerRegister

.text.TCPIP_TCP_Close
                0x9d0c3574       0x78
 .text.TCPIP_TCP_Close
                0x9d0c3574       0x78 build/pic32mz_ef_sk/production/_ext/1164207549/tcp.o
                0x9d0c3574                TCPIP_TCP_Close

.text._TxSktGetLockedV4Pkt
                0x9d0c35ec       0x78
 .text._TxSktGetLockedV4Pkt
                0x9d0c35ec       0x78 build/pic32mz_ef_sk/production/_ext/1164207549/udp.o

.text._DHCPOptionProcessRouter
                0x9d0c3664       0x78
 .text._DHCPOptionProcessRouter
                0x9d0c3664       0x78 build/pic32mz_ef_sk/production/_ext/1164207549/dhcp.o

.text.TCPIP_DHCP_IsEnabled
                0x9d0c36dc       0x78
 .text.TCPIP_DHCP_IsEnabled
                0x9d0c36dc       0x78 build/pic32mz_ef_sk/production/_ext/1164207549/dhcp.o
                0x9d0c36dc                TCPIP_DHCP_IsEnabled

.text.TCPIP_DHCP_HandlerRegister
                0x9d0c3754       0x78
 .text.TCPIP_DHCP_HandlerRegister
                0x9d0c3754       0x78 build/pic32mz_ef_sk/production/_ext/1164207549/dhcp.o
                0x9d0c3754                TCPIP_DHCP_HandlerRegister

.text.TCPIP_SNTP_TimeStampStatus
                0x9d0c37cc       0x78
 .text.TCPIP_SNTP_TimeStampStatus
                0x9d0c37cc       0x78 build/pic32mz_ef_sk/production/_ext/1164207549/sntp.o
                0x9d0c37cc                TCPIP_SNTP_TimeStampStatus

.text.TCPIP_ANNOUNCE_Deinitialize
                0x9d0c3844       0x78
 .text.TCPIP_ANNOUNCE_Deinitialize
                0x9d0c3844       0x78 build/pic32mz_ef_sk/production/_ext/1164207549/tcpip_announce.o
                0x9d0c3844                TCPIP_ANNOUNCE_Deinitialize

.text.TCPIP_PKT_Initialize
                0x9d0c38bc       0x78
 .text.TCPIP_PKT_Initialize
                0x9d0c38bc       0x78 build/pic32mz_ef_sk/production/_ext/1164207549/tcpip_packet.o
                0x9d0c38bc                TCPIP_PKT_Initialize

.text.vTaskStartScheduler
                0x9d0c3934       0x78
 .text.vTaskStartScheduler
                0x9d0c3934       0x78 build/pic32mz_ef_sk/production/_ext/373060831/tasks.o
                0x9d0c3934                vTaskStartScheduler

.text.freeHandshake
                0x9d0c39ac       0x78
 .text.freeHandshake
                0x9d0c39ac       0x78 build/pic32mz_ef_sk/production/_ext/1360937237/websocket.o
                0x9d0c39ac                freeHandshake

.text.DRV_ETHMAC_PIC32MACConfigGet
                0x9d0c3a24       0x74
 .text.DRV_ETHMAC_PIC32MACConfigGet
                0x9d0c3a24       0x74 build/pic32mz_ef_sk/production/_ext/1697634946/drv_ethmac.o
                0x9d0c3a24                DRV_ETHMAC_PIC32MACConfigGet

.text._DRV_ETHPHY_NegCompletePhaseRead1
                0x9d0c3a98       0x74
 .text._DRV_ETHPHY_NegCompletePhaseRead1
                0x9d0c3a98       0x74 build/pic32mz_ef_sk/production/_ext/521481140/drv_ethphy.o

.text.DRV_NVM_CommandStatus
                0x9d0c3b0c       0x74
 .text.DRV_NVM_CommandStatus
                0x9d0c3b0c       0x74 build/pic32mz_ef_sk/production/_ext/184581597/drv_nvm.o
                0x9d0c3b0c                DRV_NVM_CommandStatus

.text._TcpSocketSetSourceInterface
                0x9d0c3b80       0x74
 .text._TcpSocketSetSourceInterface
                0x9d0c3b80       0x74 build/pic32mz_ef_sk/production/_ext/1164207549/tcp.o

.text._TcpSwapHeader
                0x9d0c3bf4       0x74
 .text._TcpSwapHeader
                0x9d0c3bf4       0x74 build/pic32mz_ef_sk/production/_ext/1164207549/tcp.o

.text._TxSktGetLockedV6Pkt
                0x9d0c3c68       0x74
 .text._TxSktGetLockedV6Pkt
                0x9d0c3c68       0x74 build/pic32mz_ef_sk/production/_ext/1164207549/udp.o

.text._RxSktQueueAddLocked
                0x9d0c3cdc       0x74
 .text._RxSktQueueAddLocked
                0x9d0c3cdc       0x74 build/pic32mz_ef_sk/production/_ext/1164207549/udp.o

.text._DHCPOptionProcessSubNet
                0x9d0c3d50       0x74
 .text._DHCPOptionProcessSubNet
                0x9d0c3d50       0x74 build/pic32mz_ef_sk/production/_ext/1164207549/dhcp.o

.text.TCPIP_SMTP_ClientInitialize
                0x9d0c3dc4       0x74
 .text.TCPIP_SMTP_ClientInitialize
                0x9d0c3dc4       0x74 build/pic32mz_ef_sk/production/_ext/1164207549/smtp.o
                0x9d0c3dc4                TCPIP_SMTP_ClientInitialize

.text.TCPIP_Helper_StringToPowerMode
                0x9d0c3e38       0x74
 .text.TCPIP_Helper_StringToPowerMode
                0x9d0c3e38       0x74 build/pic32mz_ef_sk/production/_ext/1164207549/tcpip_helpers.o
                0x9d0c3e38                TCPIP_Helper_StringToPowerMode

.text._TCPIPStackAnyNetLinked
                0x9d0c3eac       0x74
 .text._TCPIPStackAnyNetLinked
                0x9d0c3eac       0x74 build/pic32mz_ef_sk/production/_ext/1164207549/tcpip_manager.o
                0x9d0c3eac                _TCPIPStackAnyNetLinked

.text._TCPIPStackSignalHandlerRegister
                0x9d0c3f20       0x74
 .text._TCPIPStackSignalHandlerRegister
                0x9d0c3f20       0x74 build/pic32mz_ef_sk/production/_ext/1164207549/tcpip_manager.o
                0x9d0c3f20                _TCPIPStackSignalHandlerRegister

.text.raise     0x9d0c3f94       0x74
 .text.raise    0x9d0c3f94       0x74 c:/program files (x86)/microchip/xc32/v1.44/bin/bin/../../lib/gcc/pic32mx/4.8.3/../../../../pic32mx/lib/fpu64\libc.a(signal.o)
                0x9d0c3f94                raise

.text.strncpy   0x9d0c4008       0x74
 .text.strncpy  0x9d0c4008       0x74 c:/program files (x86)/microchip/xc32/v1.44/bin/bin/../../lib/gcc/pic32mx/4.8.3/../../../../pic32mx/lib/fpu64\libc.a(strncpy.o)
                0x9d0c4008                strncpy

.text.ungetc    0x9d0c407c       0x74
 .text.ungetc   0x9d0c407c       0x74 c:/program files (x86)/microchip/xc32/v1.44/bin/bin/../../lib/gcc/pic32mx/4.8.3/../../../../pic32mx/lib/fpu64\libc.a(ungetc.o)
                0x9d0c407c                ungetc

.text.TCPIP_HTTP_Print_ddns_status_msg
                0x9d010110       0x70
 .text.TCPIP_HTTP_Print_ddns_status_msg
                0x9d010110       0x70 build/pic32mz_ef_sk/production/_ext/1360937237/custom_http_app.o
                0x9d010110                TCPIP_HTTP_Print_ddns_status_msg

.text._EnetPoolFreeDcptList
                0x9d010190       0x70
 .text._EnetPoolFreeDcptList
                0x9d010190       0x70 build/pic32mz_ef_sk/production/_ext/1697634946/drv_ethmac_lib.o

.text._DRV_ETHPHY_LinkStatPhaseRefresh
                0x9d0c40f0       0x70
 .text._DRV_ETHPHY_LinkStatPhaseRefresh
                0x9d0c40f0       0x70 build/pic32mz_ef_sk/production/_ext/521481140/drv_ethphy.o

.text.CommandQuit
                0x9d0c4160       0x70
 .text.CommandQuit
                0x9d0c4160       0x70 build/pic32mz_ef_sk/production/_ext/1891376032/sys_command.o

.text.SYS_FS_FileTell
                0x9d0c41d0       0x70
 .text.SYS_FS_FileTell
                0x9d0c41d0       0x70 build/pic32mz_ef_sk/production/_ext/1750042194/sys_fs.o
                0x9d0c41d0                SYS_FS_FileTell

.text.SYS_FS_FileSize
                0x9d0c4240       0x70
 .text.SYS_FS_FileSize
                0x9d0c4240       0x70 build/pic32mz_ef_sk/production/_ext/1750042194/sys_fs.o
                0x9d0c4240                SYS_FS_FileSize

.text.SYS_FS_MEDIA_MANAGER_IsFSFat
                0x9d0c42b0       0x70
 .text.SYS_FS_MEDIA_MANAGER_IsFSFat
                0x9d0c42b0       0x70 build/pic32mz_ef_sk/production/_ext/1750042194/sys_fs_media_manager.o

.text._SYS_TMR_ClientCheckSrvLock
                0x9d0c4320       0x70
 .text._SYS_TMR_ClientCheckSrvLock
                0x9d0c4320       0x70 build/pic32mz_ef_sk/production/_ext/2110151058/sys_tmr.o

.rodata         0x9d0c4390       0x70
 .rodata        0x9d0c4390       0x70 build/pic32mz_ef_sk/production/_ext/1164207549/ipv4.o

.text.TCPIP_IPV6_DestAddressSet
                0x9d0c4400       0x70
 .text.TCPIP_IPV6_DestAddressSet
                0x9d0c4400       0x70 build/pic32mz_ef_sk/production/_ext/1164207549/ipv6.o
                0x9d0c4400                TCPIP_IPV6_DestAddressSet

.text._UDPClose
                0x9d0c4470       0x70
 .text._UDPClose
                0x9d0c4470       0x70 build/pic32mz_ef_sk/production/_ext/1164207549/udp.o

.text._ARPSetEntry
                0x9d0c44e0       0x70
 .text._ARPSetEntry
                0x9d0c44e0       0x70 build/pic32mz_ef_sk/production/_ext/1164207549/arp.o

.text._ARPRemoveEntry
                0x9d0c4550       0x70
 .text._ARPRemoveEntry
                0x9d0c4550       0x70 build/pic32mz_ef_sk/production/_ext/1164207549/arp.o

.text.ANNOUNCE_Notify
                0x9d0c45c0       0x70
 .text.ANNOUNCE_Notify
                0x9d0c45c0       0x70 build/pic32mz_ef_sk/production/_ext/1164207549/tcpip_announce.o

.text.TCPIP_Helper_ProtectedSingleListNodeRemove
                0x9d0c4630       0x70
 .text.TCPIP_Helper_ProtectedSingleListNodeRemove
                0x9d0c4630       0x70 build/pic32mz_ef_sk/production/_ext/1164207549/tcpip_helpers.o
                0x9d0c4630                TCPIP_Helper_ProtectedSingleListNodeRemove

.text._TCPIP_PKT_PacketAcknowledge
                0x9d0c46a0       0x70
 .text._TCPIP_PKT_PacketAcknowledge
                0x9d0c46a0       0x70 build/pic32mz_ef_sk/production/_ext/1164207549/tcpip_packet.o
                0x9d0c46a0                _TCPIP_PKT_PacketAcknowledge

.rodata         0x9d0c4710       0x70
 .rodata        0x9d0c4710       0x70 c:/program files (x86)/microchip/xc32/v1.44/bin/bin/../../lib/gcc/pic32mx/4.8.3/../../../../pic32mx/lib/fpu64\libc.a(fassert.o)

.text.strncmp   0x9d0c4780       0x70
 .text.strncmp  0x9d0c4780       0x70 c:/program files (x86)/microchip/xc32/v1.44/bin/bin/../../lib/gcc/pic32mx/4.8.3/../../../../pic32mx/lib/fpu64\libc.a(strncmp.o)
                0x9d0c4780                strncmp

.text.BSP_Initialize
                0x9d0c47f0       0x6c
 .text.BSP_Initialize
                0x9d0c47f0       0x6c build/pic32mz_ef_sk/production/_ext/354129722/bsp.o
                0x9d0c47f0                BSP_Initialize

.text.TCPIP_HTTP_Print_hellomsg
                0x9d0c485c       0x6c
 .text.TCPIP_HTTP_Print_hellomsg
                0x9d0c485c       0x6c build/pic32mz_ef_sk/production/_ext/1360937237/custom_http_app.o
                0x9d0c485c                TCPIP_HTTP_Print_hellomsg

.text.TCPIP_HTTP_Print_builddate
                0x9d0c48c8       0x6c
 .text.TCPIP_HTTP_Print_builddate
                0x9d0c48c8       0x6c build/pic32mz_ef_sk/production/_ext/1360937237/custom_http_app.o
                0x9d0c48c8                TCPIP_HTTP_Print_builddate

.text.TCPIP_HTTP_Print_cookiename
                0x9d0c4934       0x6c
 .text.TCPIP_HTTP_Print_cookiename
                0x9d0c4934       0x6c build/pic32mz_ef_sk/production/_ext/1360937237/custom_http_app.o
                0x9d0c4934                TCPIP_HTTP_Print_cookiename

.text.TCPIP_HTTP_Print_cookiefav
                0x9d0c49a0       0x6c
 .text.TCPIP_HTTP_Print_cookiefav
                0x9d0c49a0       0x6c build/pic32mz_ef_sk/production/_ext/1360937237/custom_http_app.o
                0x9d0c49a0                TCPIP_HTTP_Print_cookiefav

.text._MacRxFreeCallback
                0x9d0c4a0c       0x6c
 .text._MacRxFreeCallback
                0x9d0c4a0c       0x6c build/pic32mz_ef_sk/production/_ext/1697634946/drv_ethmac.o

.text.DRV_MIIM_Deinitialize
                0x9d0c4a78       0x6c
 .text.DRV_MIIM_Deinitialize
                0x9d0c4a78       0x6c build/pic32mz_ef_sk/production/_ext/1470245908/drv_miim.o
                0x9d0c4a78                DRV_MIIM_Deinitialize

.text.SYS_CONSOLE_Initialize
                0x9d0c4ae4       0x6c
 .text.SYS_CONSOLE_Initialize
                0x9d0c4ae4       0x6c build/pic32mz_ef_sk/production/_ext/1434663852/sys_console.o
                0x9d0c4ae4                SYS_CONSOLE_Initialize

.text.TCPIP_IPV6_DataSegmentHeaderAllocate
                0x9d0c4b50       0x6c
 .text.TCPIP_IPV6_DataSegmentHeaderAllocate
                0x9d0c4b50       0x6c build/pic32mz_ef_sk/production/_ext/1164207549/ipv6.o
                0x9d0c4b50                TCPIP_IPV6_DataSegmentHeaderAllocate

.text._TcpSocketKill
                0x9d0c4bbc       0x6c
 .text._TcpSocketKill
                0x9d0c4bbc       0x6c build/pic32mz_ef_sk/production/_ext/1164207549/tcp.o

.text._DNSGetData
                0x9d0c4c28       0x6c
 .text._DNSGetData
                0x9d0c4c28       0x6c build/pic32mz_ef_sk/production/_ext/1164207549/dns.o

.text.TCPIP_SMTP_UsageBegin
                0x9d0c4c94       0x6c
 .text.TCPIP_SMTP_UsageBegin
                0x9d0c4c94       0x6c build/pic32mz_ef_sk/production/_ext/1164207549/smtp.o
                0x9d0c4c94                TCPIP_SMTP_UsageBegin

.text.TCPIP_SMTP_UsageEnd
                0x9d0c4d00       0x6c
 .text.TCPIP_SMTP_UsageEnd
                0x9d0c4d00       0x6c build/pic32mz_ef_sk/production/_ext/1164207549/smtp.o
                0x9d0c4d00                TCPIP_SMTP_UsageEnd

.text.TCPIP_SMTP_IsPutReady
                0x9d0c4d6c       0x6c
 .text.TCPIP_SMTP_IsPutReady
                0x9d0c4d6c       0x6c build/pic32mz_ef_sk/production/_ext/1164207549/smtp.o
                0x9d0c4d6c                TCPIP_SMTP_IsPutReady

.text._TCPIP_PKT_SocketAlloc
                0x9d0c4dd8       0x6c
 .text._TCPIP_PKT_SocketAlloc
                0x9d0c4dd8       0x6c build/pic32mz_ef_sk/production/_ext/1164207549/tcpip_packet.o
                0x9d0c4dd8                _TCPIP_PKT_SocketAlloc

.text.vApplicationSetupTickTimerInterrupt
                0x9d0c4e44       0x6c
 .text.vApplicationSetupTickTimerInterrupt
                0x9d0c4e44       0x6c build/pic32mz_ef_sk/production/_ext/1282498061/port.o
                0x9d0c4e44                vApplicationSetupTickTimerInterrupt

.text.strncat   0x9d0c4eb0       0x6c
 .text.strncat  0x9d0c4eb0       0x6c c:/program files (x86)/microchip/xc32/v1.44/bin/bin/../../lib/gcc/pic32mx/4.8.3/../../../../pic32mx/lib/fpu64\libc.a(strncat.o)
                0x9d0c4eb0                strncat

.text.DRV_NVM_Erase
                0x9d0c4f1c       0x68
 .text.DRV_NVM_Erase
                0x9d0c4f1c       0x68 build/pic32mz_ef_sk/production/_ext/184581597/drv_nvm.o
                0x9d0c4f1c                DRV_NVM_Erase

.text._DRV_TMR_Resume
                0x9d0c4f84       0x68
 .text._DRV_TMR_Resume
                0x9d0c4f84       0x68 build/pic32mz_ef_sk/production/_ext/941160041/drv_tmr.o

.text.Console_UART_Flush
                0x9d0c4fec       0x68
 .text.Console_UART_Flush
                0x9d0c4fec       0x68 build/pic32mz_ef_sk/production/_ext/1434663852/sys_console_uart.o
                0x9d0c4fec                Console_UART_Flush

.text.SYS_RANDOM_Initialize
                0x9d0c5054       0x68
 .text.SYS_RANDOM_Initialize
                0x9d0c5054       0x68 build/pic32mz_ef_sk/production/_ext/470001640/sys_random.o
                0x9d0c5054                SYS_RANDOM_Initialize

.text.TCPIP_ICMPV6_Initialize
                0x9d0c50bc       0x68
 .text.TCPIP_ICMPV6_Initialize
                0x9d0c50bc       0x68 build/pic32mz_ef_sk/production/_ext/1164207549/icmpv6.o
                0x9d0c50bc                TCPIP_ICMPV6_Initialize

.text.TCPIP_ARP_HashEntryDelete
                0x9d0c5124       0x68
 .text.TCPIP_ARP_HashEntryDelete
                0x9d0c5124       0x68 build/pic32mz_ef_sk/production/_ext/1164207549/arp.o
                0x9d0c5124                TCPIP_ARP_HashEntryDelete

.text._DHCPSetRunFail
                0x9d0c518c       0x68
 .text._DHCPSetRunFail
                0x9d0c518c       0x68 build/pic32mz_ef_sk/production/_ext/1164207549/dhcp.o

.text._DHCPSetTimeout
                0x9d0c51f4       0x68
 .text._DHCPSetTimeout
                0x9d0c51f4       0x68 build/pic32mz_ef_sk/production/_ext/1164207549/dhcp.o

.text.TCPIP_DNS_RemoveEntry
                0x9d0c525c       0x68
 .text.TCPIP_DNS_RemoveEntry
                0x9d0c525c       0x68 build/pic32mz_ef_sk/production/_ext/1164207549/dns.o
                0x9d0c525c                TCPIP_DNS_RemoveEntry

.text.TCPIP_ZCLL_Enable
                0x9d0c52c4       0x68
 .text.TCPIP_ZCLL_Enable
                0x9d0c52c4       0x68 build/pic32mz_ef_sk/production/_ext/1164207549/zero_conf_link_local.o
                0x9d0c52c4                TCPIP_ZCLL_Enable

.text.TCPIP_Helper_ProtectedSingleListDeinitialize
                0x9d0c532c       0x68
 .text.TCPIP_Helper_ProtectedSingleListDeinitialize
                0x9d0c532c       0x68 build/pic32mz_ef_sk/production/_ext/1164207549/tcpip_helpers.o
                0x9d0c532c                TCPIP_Helper_ProtectedSingleListDeinitialize

.text._TCPIPSignalEntrySetNotify
                0x9d0c5394       0x68
 .text._TCPIPSignalEntrySetNotify
                0x9d0c5394       0x68 build/pic32mz_ef_sk/production/_ext/1164207549/tcpip_manager.o

.text.TCPIP_STACK_IsBcastAddress
                0x9d0c53fc       0x68
 .text.TCPIP_STACK_IsBcastAddress
                0x9d0c53fc       0x68 build/pic32mz_ef_sk/production/_ext/1164207549/tcpip_manager.o
                0x9d0c53fc                TCPIP_STACK_IsBcastAddress

.text._sprintf_cdnopsuxX
                0x9d0c5464       0x68
 .text._sprintf_cdnopsuxX
                0x9d0c5464       0x68 c:/program files (x86)/microchip/xc32/v1.44/bin/bin/../../lib/gcc/pic32mx/4.8.3/../../../../pic32mx/lib/fpu64\libc.a(sprintf_cdnopsuxX.eo)
                0x9d0c5464                _sprintf_cdnopsuxX
                0x9d0c5464                _sprintf_0
                0x9d0c5464                _sprintf_cdnopuxX
                0x9d0c5464                _sprintf_s

.text.TCPIP_HTTP_Print_config_ip
                0x9d0c54cc       0x64
 .text.TCPIP_HTTP_Print_config_ip
                0x9d0c54cc       0x64 build/pic32mz_ef_sk/production/_ext/1360937237/custom_http_app.o
                0x9d0c54cc                TCPIP_HTTP_Print_config_ip

.text.TCPIP_HTTP_Print_config_gw
                0x9d0c5530       0x64
 .text.TCPIP_HTTP_Print_config_gw
                0x9d0c5530       0x64 build/pic32mz_ef_sk/production/_ext/1360937237/custom_http_app.o
                0x9d0c5530                TCPIP_HTTP_Print_config_gw

.text.TCPIP_HTTP_Print_config_subnet
                0x9d0c5594       0x64
 .text.TCPIP_HTTP_Print_config_subnet
                0x9d0c5594       0x64 build/pic32mz_ef_sk/production/_ext/1360937237/custom_http_app.o
                0x9d0c5594                TCPIP_HTTP_Print_config_subnet

.text.TCPIP_HTTP_Print_config_dns1
                0x9d0c55f8       0x64
 .text.TCPIP_HTTP_Print_config_dns1
                0x9d0c55f8       0x64 build/pic32mz_ef_sk/production/_ext/1360937237/custom_http_app.o
                0x9d0c55f8                TCPIP_HTTP_Print_config_dns1

.text.TCPIP_HTTP_Print_config_dns2
                0x9d0c565c       0x64
 .text.TCPIP_HTTP_Print_config_dns2
                0x9d0c565c       0x64 build/pic32mz_ef_sk/production/_ext/1360937237/custom_http_app.o
                0x9d0c565c                TCPIP_HTTP_Print_config_dns2

.text._MacTxFreeCallback
                0x9d0c56c0       0x64
 .text._MacTxFreeCallback
                0x9d0c56c0       0x64 build/pic32mz_ef_sk/production/_ext/1697634946/drv_ethmac.o

.text._DRV_TMR_ModuleObj
                0x9d0c5724       0x64
 .text._DRV_TMR_ModuleObj
                0x9d0c5724       0x64 build/pic32mz_ef_sk/production/_ext/941160041/drv_tmr.o

.text.DRV_TMR_AlarmDisable
                0x9d0c5788       0x64
 .text.DRV_TMR_AlarmDisable
                0x9d0c5788       0x64 build/pic32mz_ef_sk/production/_ext/941160041/drv_tmr.o
                0x9d0c5788                DRV_TMR_AlarmDisable

.text.DRV_TMR_Start
                0x9d0c57ec       0x64
 .text.DRV_TMR_Start
                0x9d0c57ec       0x64 build/pic32mz_ef_sk/production/_ext/941160041/drv_tmr.o
                0x9d0c57ec                DRV_TMR_Start

.text.SendCommandCharacter
                0x9d0c5850       0x64
 .text.SendCommandCharacter
                0x9d0c5850       0x64 build/pic32mz_ef_sk/production/_ext/1891376032/sys_command.o

.text.MPFS_EOF  0x9d0c58b4       0x64
 .text.MPFS_EOF
                0x9d0c58b4       0x64 build/pic32mz_ef_sk/production/_ext/614935175/mpfs.o
                0x9d0c58b4                MPFS_EOF

.text.TCPIP_IPV4_Cleanup
                0x9d0c5918       0x64
 .text.TCPIP_IPV4_Cleanup
                0x9d0c5918       0x64 build/pic32mz_ef_sk/production/_ext/1164207549/ipv4.o

.text.TCPIP_NDP_DestCacheUpdate
                0x9d0c597c       0x64
 .text.TCPIP_NDP_DestCacheUpdate
                0x9d0c597c       0x64 build/pic32mz_ef_sk/production/_ext/1164207549/ndp.o
                0x9d0c597c                TCPIP_NDP_DestCacheUpdate

.text.TCPIP_IPV6_RouterAddressAdd
                0x9d0c59e0       0x64
 .text.TCPIP_IPV6_RouterAddressAdd
                0x9d0c59e0       0x64 build/pic32mz_ef_sk/production/_ext/1164207549/ipv6.o
                0x9d0c59e0                TCPIP_IPV6_RouterAddressAdd

.text.TCPIP_IPV6_MaxDatagramDataSizeGet
                0x9d0c5a44       0x64
 .text.TCPIP_IPV6_MaxDatagramDataSizeGet
                0x9d0c5a44       0x64 build/pic32mz_ef_sk/production/_ext/1164207549/ipv6.o
                0x9d0c5a44                TCPIP_IPV6_MaxDatagramDataSizeGet

.text.TCPIP_TCP_SignalHandlerRegister
                0x9d0c5aa8       0x64
 .text.TCPIP_TCP_SignalHandlerRegister
                0x9d0c5aa8       0x64 build/pic32mz_ef_sk/production/_ext/1164207549/tcp.o
                0x9d0c5aa8                TCPIP_TCP_SignalHandlerRegister

.text.TCPIP_UDP_SignalHandlerRegister
                0x9d0c5b0c       0x64
 .text.TCPIP_UDP_SignalHandlerRegister
                0x9d0c5b0c       0x64 build/pic32mz_ef_sk/production/_ext/1164207549/udp.o
                0x9d0c5b0c                TCPIP_UDP_SignalHandlerRegister

.text.TCPIP_DHCP_Deinitialize
                0x9d0c5b70       0x64
 .text.TCPIP_DHCP_Deinitialize
                0x9d0c5b70       0x64 build/pic32mz_ef_sk/production/_ext/1164207549/dhcp.o
                0x9d0c5b70                TCPIP_DHCP_Deinitialize

.text.TCPIP_DNS_ClientInfoGet
                0x9d0c5bd4       0x64
 .text.TCPIP_DNS_ClientInfoGet
                0x9d0c5bd4       0x64 build/pic32mz_ef_sk/production/_ext/1164207549/dns.o
                0x9d0c5bd4                TCPIP_DNS_ClientInfoGet

.text.TCPIP_ZCLL_Disable
                0x9d0c5c38       0x64
 .text.TCPIP_ZCLL_Disable
                0x9d0c5c38       0x64 build/pic32mz_ef_sk/production/_ext/1164207549/zero_conf_link_local.o
                0x9d0c5c38                TCPIP_ZCLL_Disable

.text.IPv6_Announce_Notify
                0x9d0c5c9c       0x64
 .text.IPv6_Announce_Notify
                0x9d0c5c9c       0x64 build/pic32mz_ef_sk/production/_ext/1164207549/tcpip_announce.o

.text.TCPIP_Commands_Deinitialize
                0x9d0c5d00       0x64
 .text.TCPIP_Commands_Deinitialize
                0x9d0c5d00       0x64 build/pic32mz_ef_sk/production/_ext/1164207549/tcpip_commands.o
                0x9d0c5d00                TCPIP_Commands_Deinitialize

.text._TCPIPStackModuleRxExtract
                0x9d0c5d64       0x64
 .text._TCPIPStackModuleRxExtract
                0x9d0c5d64       0x64 build/pic32mz_ef_sk/production/_ext/1164207549/tcpip_manager.o
                0x9d0c5d64                _TCPIPStackModuleRxExtract

.text._general_exception_handler
                0x9d0c5dc8       0x60
 .text._general_exception_handler
                0x9d0c5dc8       0x60 build/pic32mz_ef_sk/production/_ext/849053718/system_exceptions.o
                0x9d0c5dc8                _general_exception_handler

.text._DRV_MIIM_GetObjectAndLock
                0x9d0c5e28       0x60
 .text._DRV_MIIM_GetObjectAndLock
                0x9d0c5e28       0x60 build/pic32mz_ef_sk/production/_ext/1470245908/drv_miim.o

.text.SYS_FS_MEDIA_MANAGER_EventHandler
                0x9d0c5e88       0x60
 .text.SYS_FS_MEDIA_MANAGER_EventHandler
                0x9d0c5e88       0x60 build/pic32mz_ef_sk/production/_ext/1750042194/sys_fs_media_manager.o
                0x9d0c5e88                SYS_FS_MEDIA_MANAGER_EventHandler

.text.MPFS_Close
                0x9d0c5ee8       0x60
 .text.MPFS_Close
                0x9d0c5ee8       0x60 build/pic32mz_ef_sk/production/_ext/614935175/mpfs.o
                0x9d0c5ee8                MPFS_Close

.text.IPv4RegisterFilter
                0x9d0c5f48       0x60
 .text.IPv4RegisterFilter
                0x9d0c5f48       0x60 build/pic32mz_ef_sk/production/_ext/1164207549/ipv4.o
                0x9d0c5f48                IPv4RegisterFilter

.text.TCPIP_IPV6_FreeConfigLists
                0x9d0c5fa8       0x60
 .text.TCPIP_IPV6_FreeConfigLists
                0x9d0c5fa8       0x60 build/pic32mz_ef_sk/production/_ext/1164207549/ipv6.o
                0x9d0c5fa8                TCPIP_IPV6_FreeConfigLists

.text.TCPIP_TCP_Connect
                0x9d0c6008       0x60
 .text.TCPIP_TCP_Connect
                0x9d0c6008       0x60 build/pic32mz_ef_sk/production/_ext/1164207549/tcp.o
                0x9d0c6008                TCPIP_TCP_Connect

.text.TCPIP_TCP_Discard
                0x9d0c6068       0x60
 .text.TCPIP_TCP_Discard
                0x9d0c6068       0x60 build/pic32mz_ef_sk/production/_ext/1164207549/tcp.o
                0x9d0c6068                TCPIP_TCP_Discard

.text._UDPUpdatePacketLock
                0x9d0c60c8       0x60
 .text._UDPUpdatePacketLock
                0x9d0c60c8       0x60 build/pic32mz_ef_sk/production/_ext/1164207549/udp.o

.text.TCPIP_UDP_GetIsReady
                0x9d0c6128       0x60
 .text.TCPIP_UDP_GetIsReady
                0x9d0c6128       0x60 build/pic32mz_ef_sk/production/_ext/1164207549/udp.o
                0x9d0c6128                TCPIP_UDP_GetIsReady

.text.TCPIP_ARP_CallbacksRegister
                0x9d0c6188       0x60
 .text.TCPIP_ARP_CallbacksRegister
                0x9d0c6188       0x60 build/pic32mz_ef_sk/production/_ext/1164207549/arp.o
                0x9d0c6188                TCPIP_ARP_CallbacksRegister

.text._DHCPOptionProcessMsgType
                0x9d0c61e8       0x60
 .text._DHCPOptionProcessMsgType
                0x9d0c61e8       0x60 build/pic32mz_ef_sk/production/_ext/1164207549/dhcp.o

.text._DNSClientCleanup
                0x9d0c6248       0x60
 .text._DNSClientCleanup
                0x9d0c6248       0x60 build/pic32mz_ef_sk/production/_ext/1164207549/dns.o

.rodata         0x9d0c62a8       0x60
 .rodata        0x9d0c62a8       0x60 build/pic32mz_ef_sk/production/_ext/1164207549/zero_conf_link_local.o

.text.TCPIP_OAHASH_EntriesRemoveAll
                0x9d0c6308       0x60
 .text.TCPIP_OAHASH_EntriesRemoveAll
                0x9d0c6308       0x60 build/pic32mz_ef_sk/production/_ext/1164207549/oahash.o
                0x9d0c6308                TCPIP_OAHASH_EntriesRemoveAll

.rodata         0x9d0c6368       0x60
 .rodata        0x9d0c6368       0x60 build/pic32mz_ef_sk/production/_ext/1164207549/tcpip_helpers.o

.text.TCPIP_Helper_ProtectedSingleListHeadAdd
                0x9d0c63c8       0x60
 .text.TCPIP_Helper_ProtectedSingleListHeadAdd
                0x9d0c63c8       0x60 build/pic32mz_ef_sk/production/_ext/1164207549/tcpip_helpers.o
                0x9d0c63c8                TCPIP_Helper_ProtectedSingleListHeadAdd

.text.TCPIP_Helper_ProtectedSingleListTailAdd
                0x9d0c6428       0x60
 .text.TCPIP_Helper_ProtectedSingleListTailAdd
                0x9d0c6428       0x60 build/pic32mz_ef_sk/production/_ext/1164207549/tcpip_helpers.o
                0x9d0c6428                TCPIP_Helper_ProtectedSingleListTailAdd

.text.TCPIP_Helper_ProtectedSingleListHeadRemove
                0x9d0c6488       0x60
 .text.TCPIP_Helper_ProtectedSingleListHeadRemove
                0x9d0c6488       0x60 build/pic32mz_ef_sk/production/_ext/1164207549/tcpip_helpers.o
                0x9d0c6488                TCPIP_Helper_ProtectedSingleListHeadRemove

.text.pxPortInitialiseStack
                0x9d0c64e8       0x60
 .text.pxPortInitialiseStack
                0x9d0c64e8       0x60 build/pic32mz_ef_sk/production/_ext/1282498061/port.o
                0x9d0c64e8                pxPortInitialiseStack

.text.vTaskExitCritical
                0x9d0c6548       0x60
 .text.vTaskExitCritical
                0x9d0c6548       0x60 build/pic32mz_ef_sk/production/_ext/373060831/tasks.o
                0x9d0c6548                vTaskExitCritical

.text.wspace    0x9d0c65a8       0x60
 .text.wspace   0x9d0c65a8       0x60 c:/program files (x86)/microchip/xc32/v1.44/bin/bin/../../lib/gcc/pic32mx/4.8.3/../../../../pic32mx/lib/fpu64\libc.a(doscan_s.eo)

.text.TCPIP_HTTP_FileAuthenticate
                0x9d0c6608       0x5c
 .text.TCPIP_HTTP_FileAuthenticate
                0x9d0c6608       0x5c build/pic32mz_ef_sk/production/_ext/1360937237/custom_http_app.o
                0x9d0c6608                TCPIP_HTTP_FileAuthenticate

.text._MacTxDiscardQueues
                0x9d0c6664       0x5c
 .text._MacTxDiscardQueues
                0x9d0c6664       0x5c build/pic32mz_ef_sk/production/_ext/1697634946/drv_ethmac.o

.text.DRV_ETHPHY_LinkStatusGet
                0x9d0c66c0       0x5c
 .text.DRV_ETHPHY_LinkStatusGet
                0x9d0c66c0       0x5c build/pic32mz_ef_sk/production/_ext/521481140/drv_ethphy.o
                0x9d0c66c0                DRV_ETHPHY_LinkStatusGet

.text.DRV_ETHPHY_NegotiationResultGet
                0x9d0c671c       0x5c
 .text.DRV_ETHPHY_NegotiationResultGet
                0x9d0c671c       0x5c build/pic32mz_ef_sk/production/_ext/521481140/drv_ethphy.o
                0x9d0c671c                DRV_ETHPHY_NegotiationResultGet

.text._DRV_ETHPHY_ClientOpReset
                0x9d0c6778       0x5c
 .text._DRV_ETHPHY_ClientOpReset
                0x9d0c6778       0x5c build/pic32mz_ef_sk/production/_ext/521481140/drv_ethphy.o

.text._DRV_ETHPHY_ClientOpLinkStat
                0x9d0c67d4       0x5c
 .text._DRV_ETHPHY_ClientOpLinkStat
                0x9d0c67d4       0x5c build/pic32mz_ef_sk/production/_ext/521481140/drv_ethphy.o

.text._DRV_ETHPHY_ClientOpNegResult
                0x9d0c6830       0x5c
 .text._DRV_ETHPHY_ClientOpNegResult
                0x9d0c6830       0x5c build/pic32mz_ef_sk/production/_ext/521481140/drv_ethphy.o

.text._DRV_ETHPHY_ClientOpNegComplete
                0x9d0c688c       0x5c
 .text._DRV_ETHPHY_ClientOpNegComplete
                0x9d0c688c       0x5c build/pic32mz_ef_sk/production/_ext/521481140/drv_ethphy.o

.text._DRV_ETHPHY_ClientOpNegRestart
                0x9d0c68e8       0x5c
 .text._DRV_ETHPHY_ClientOpNegRestart
                0x9d0c68e8       0x5c build/pic32mz_ef_sk/production/_ext/521481140/drv_ethphy.o

.text._DRV_ETHPHY_SetupPhaseNegotiate
                0x9d0c6944       0x5c
 .text._DRV_ETHPHY_SetupPhaseNegotiate
                0x9d0c6944       0x5c build/pic32mz_ef_sk/production/_ext/521481140/drv_ethphy.o

.text._DRV_ETHPHY_ClientOpSmiRead
                0x9d0c69a0       0x5c
 .text._DRV_ETHPHY_ClientOpSmiRead
                0x9d0c69a0       0x5c build/pic32mz_ef_sk/production/_ext/521481140/drv_ethphy.o

.text.DRV_TMR_AlarmEnable
                0x9d0c69fc       0x5c
 .text.DRV_TMR_AlarmEnable
                0x9d0c69fc       0x5c build/pic32mz_ef_sk/production/_ext/941160041/drv_tmr.o
                0x9d0c69fc                DRV_TMR_AlarmEnable

.text.NET_PRES_SocketIsSecure
                0x9d0c6a58       0x5c
 .text.NET_PRES_SocketIsSecure
                0x9d0c6a58       0x5c build/pic32mz_ef_sk/production/_ext/871719959/net_pres.o
                0x9d0c6a58                NET_PRES_SocketIsSecure

.text.SYS_FS_MEDIA_MANAGER_Register
                0x9d0c6ab4       0x5c
 .text.SYS_FS_MEDIA_MANAGER_Register
                0x9d0c6ab4       0x5c build/pic32mz_ef_sk/production/_ext/1750042194/sys_fs_media_manager.o
                0x9d0c6ab4                SYS_FS_MEDIA_MANAGER_Register

.text.TCPIP_IPV6_AddressUnicastRemove
                0x9d0c6b10       0x5c
 .text.TCPIP_IPV6_AddressUnicastRemove
                0x9d0c6b10       0x5c build/pic32mz_ef_sk/production/_ext/1164207549/ipv6.o
                0x9d0c6b10                TCPIP_IPV6_AddressUnicastRemove

.text._TCPSocketTxFreeSize
                0x9d0c6b6c       0x5c
 .text._TCPSocketTxFreeSize
                0x9d0c6b6c       0x5c build/pic32mz_ef_sk/production/_ext/1164207549/tcp.o

.text._TCPIP_HEAP_BufferMapNonCached
                0x9d0c6bc8       0x5c
 .text._TCPIP_HEAP_BufferMapNonCached
                0x9d0c6bc8       0x5c build/pic32mz_ef_sk/production/_ext/1164207549/tcpip_heap_alloc.o
                0x9d0c6bc8                _TCPIP_HEAP_BufferMapNonCached

.text._DNS_NetIsValid
                0x9d0c6c24       0x5c
 .text._DNS_NetIsValid
                0x9d0c6c24       0x5c build/pic32mz_ef_sk/production/_ext/1164207549/dns.o

.text.TCPIP_SNTP_Deinitialize
                0x9d0c6c80       0x5c
 .text.TCPIP_SNTP_Deinitialize
                0x9d0c6c80       0x5c build/pic32mz_ef_sk/production/_ext/1164207549/sntp.o
                0x9d0c6c80                TCPIP_SNTP_Deinitialize

.text._FieldSetMacAddr
                0x9d0c6cdc       0x5c
 .text._FieldSetMacAddr
                0x9d0c6cdc       0x5c build/pic32mz_ef_sk/production/_ext/1164207549/tcpip_announce.o
                0x9d0c6cdc                _FieldSetMacAddr

.text.fnv_32_hash
                0x9d0c6d38       0x5c
 .text.fnv_32_hash
                0x9d0c6d38       0x5c build/pic32mz_ef_sk/production/_ext/1164207549/hash_fnv.o
                0x9d0c6d38                fnv_32_hash

.text.TCPIP_STACK_MACIdToNet
                0x9d0c6d94       0x5c
 .text.TCPIP_STACK_MACIdToNet
                0x9d0c6d94       0x5c build/pic32mz_ef_sk/production/_ext/1164207549/tcpip_manager.o
                0x9d0c6d94                TCPIP_STACK_MACIdToNet

.text.xPortStartScheduler
                0x9d0c6df0       0x5c
 .text.xPortStartScheduler
                0x9d0c6df0       0x5c build/pic32mz_ef_sk/production/_ext/1282498061/port.o
                0x9d0c6df0                xPortStartScheduler

.text.vListInsert
                0x9d0c6e4c       0x5c
 .text.vListInsert
                0x9d0c6e4c       0x5c build/pic32mz_ef_sk/production/_ext/373060831/list.o
                0x9d0c6e4c                vListInsert

.text._vsnprintf_cdnopsuxX
                0x9d0c6ea8       0x5c
 .text._vsnprintf_cdnopsuxX
                0x9d0c6ea8       0x5c c:/program files (x86)/microchip/xc32/v1.44/bin/bin/../../lib/gcc/pic32mx/4.8.3/../../../../pic32mx/lib/fpu64\libc.a(vsnprintf_cdnopsuxX.eo)
                0x9d0c6ea8                _vsnprintf_cdnopsuxX

.text.vsnprintf
                0x9d0c6f04       0x5c
 .text.vsnprintf
                0x9d0c6f04       0x5c c:/program files (x86)/microchip/xc32/v1.44/bin/bin/../../lib/gcc/pic32mx/4.8.3/../../../../pic32mx/lib/fpu64\libc.a(vsnprintf.o)
                0x9d0c6f04                vsnprintf

.text.SYS_CLK_PeripheralFrequencyGet
                0x9d0c6f60       0x58
 .text.SYS_CLK_PeripheralFrequencyGet
                0x9d0c6f60       0x58 build/pic32mz_ef_sk/production/_ext/571564127/sys_clk_pic32mz.o
                0x9d0c6f60                SYS_CLK_PeripheralFrequencyGet

.text.SYS_DEVCON_SystemUnlock
                0x9d0c6fb8       0x58
 .text.SYS_DEVCON_SystemUnlock
                0x9d0c6fb8       0x58 build/pic32mz_ef_sk/production/_ext/1868830280/sys_devcon.o
                0x9d0c6fb8                SYS_DEVCON_SystemUnlock

.text.TCPIP_STACK_Init
                0x9d0c7010       0x58
 .text.TCPIP_STACK_Init
                0x9d0c7010       0x58 build/pic32mz_ef_sk/production/_ext/849053718/system_init.o
                0x9d0c7010                TCPIP_STACK_Init

.text.wc_InitMd5_ex
                0x9d0c7068       0x58
 .text.wc_InitMd5_ex
                0x9d0c7068       0x58 build/pic32mz_ef_sk/production/_ext/29024758/md5.o
                0x9d0c7068                wc_InitMd5_ex

.text._DRV_ETHPHY_ClientOpSetup
                0x9d0c70c0       0x58
 .text._DRV_ETHPHY_ClientOpSetup
                0x9d0c70c0       0x58 build/pic32mz_ef_sk/production/_ext/521481140/drv_ethphy.o

.text.DRV_TMR_Open
                0x9d0c7118       0x58
 .text.DRV_TMR_Open
                0x9d0c7118       0x58 build/pic32mz_ef_sk/production/_ext/941160041/drv_tmr.o
                0x9d0c7118                DRV_TMR_Open

.text.SendCommandMessage
                0x9d0c7170       0x58
 .text.SendCommandMessage
                0x9d0c7170       0x58 build/pic32mz_ef_sk/production/_ext/1891376032/sys_command.o

.text.MPFS_GetPosition
                0x9d0c71c8       0x58
 .text.MPFS_GetPosition
                0x9d0c71c8       0x58 build/pic32mz_ef_sk/production/_ext/614935175/mpfs.o
                0x9d0c71c8                MPFS_GetPosition

.text.TCPIP_IPV4_CheckPktTx
                0x9d0c7220       0x58
 .text.TCPIP_IPV4_CheckPktTx
                0x9d0c7220       0x58 build/pic32mz_ef_sk/production/_ext/1164207549/ipv4.o

.text.TCPIP_NDP_RouterSolicitStop
                0x9d0c7278       0x58
 .text.TCPIP_NDP_RouterSolicitStop
                0x9d0c7278       0x58 build/pic32mz_ef_sk/production/_ext/1164207549/ndp.o
                0x9d0c7278                TCPIP_NDP_RouterSolicitStop

.text.TCPIP_NDP_NborReachConfirm
                0x9d0c72d0       0x58
 .text.TCPIP_NDP_NborReachConfirm
                0x9d0c72d0       0x58 build/pic32mz_ef_sk/production/_ext/1164207549/ndp.o
                0x9d0c72d0                TCPIP_NDP_NborReachConfirm

.text._DHCPOptionProcessLease
                0x9d0c7328       0x58
 .text._DHCPOptionProcessLease
                0x9d0c7328       0x58 build/pic32mz_ef_sk/production/_ext/1164207549/dhcp.o

.text._DHCPOptionProcessRenewT
                0x9d0c7380       0x58
 .text._DHCPOptionProcessRenewT
                0x9d0c7380       0x58 build/pic32mz_ef_sk/production/_ext/1164207549/dhcp.o

.text._DHCPOptionProcessRebindT
                0x9d0c73d8       0x58
 .text._DHCPOptionProcessRebindT
                0x9d0c73d8       0x58 build/pic32mz_ef_sk/production/_ext/1164207549/dhcp.o

.text.TCPIP_HTTP_Deinitialize
                0x9d0c7430       0x58
 .text.TCPIP_HTTP_Deinitialize
                0x9d0c7430       0x58 build/pic32mz_ef_sk/production/_ext/1164207549/http.o
                0x9d0c7430                TCPIP_HTTP_Deinitialize

.text.TCPIP_HTTP_PostNameRead
                0x9d0c7488       0x58
 .text.TCPIP_HTTP_PostNameRead
                0x9d0c7488       0x58 build/pic32mz_ef_sk/production/_ext/1164207549/http.o
                0x9d0c7488                TCPIP_HTTP_PostNameRead

.text.TCPIP_ZCLL_Deinitialize
                0x9d0c74e0       0x58
 .text.TCPIP_ZCLL_Deinitialize
                0x9d0c74e0       0x58 build/pic32mz_ef_sk/production/_ext/1164207549/zero_conf_link_local.o
                0x9d0c74e0                TCPIP_ZCLL_Deinitialize

.text.TCPIP_Helper_ProtectedSingleListRemoveAll
                0x9d0c7538       0x58
 .text.TCPIP_Helper_ProtectedSingleListRemoveAll
                0x9d0c7538       0x58 build/pic32mz_ef_sk/production/_ext/1164207549/tcpip_helpers.o
                0x9d0c7538                TCPIP_Helper_ProtectedSingleListRemoveAll

.text.TCPIP_STACK_InitializeDataGet
                0x9d0c7590       0x58
 .text.TCPIP_STACK_InitializeDataGet
                0x9d0c7590       0x58 build/pic32mz_ef_sk/production/_ext/1164207549/tcpip_manager.o
                0x9d0c7590                TCPIP_STACK_InitializeDataGet

.text.TCPIP_STACK_NetByAddress
                0x9d0c75e8       0x58
 .text.TCPIP_STACK_NetByAddress
                0x9d0c75e8       0x58 build/pic32mz_ef_sk/production/_ext/1164207549/tcpip_manager.o
                0x9d0c75e8                TCPIP_STACK_NetByAddress

.text.TCPIP_Notification_Remove
                0x9d0c7640       0x58
 .text.TCPIP_Notification_Remove
                0x9d0c7640       0x58 build/pic32mz_ef_sk/production/_ext/1164207549/tcpip_notify.o
                0x9d0c7640                TCPIP_Notification_Remove

.text.xQueueCreateMutex
                0x9d0c7698       0x58
 .text.xQueueCreateMutex
                0x9d0c7698       0x58 build/pic32mz_ef_sk/production/_ext/373060831/queue.o
                0x9d0c7698                xQueueCreateMutex

.text.vTaskDelay
                0x9d0c76f0       0x58
 .text.vTaskDelay
                0x9d0c76f0       0x58 build/pic32mz_ef_sk/production/_ext/373060831/tasks.o
                0x9d0c76f0                vTaskDelay

.text.main_entry
                0x9d0c7748       0x54
 .text.main_entry
                0x9d0c7748       0x54 c:/program files (x86)/microchip/xc32/v1.44/bin/bin/../../lib/gcc/pic32mx/4.8.3/../../../../pic32mx/lib/./proc/32MZ2048EFH144/crt0_mips32r2.o
                0x9d0c777c                __crt0_exit

.text._SYS_Tasks
                0x9d0c779c       0x54
 .text._SYS_Tasks
                0x9d0c779c       0x54 build/pic32mz_ef_sk/production/_ext/849053718/system_tasks.o

.text.TCPIP_HTTP_UserAuthenticate
                0x9d0c77f0       0x54
 .text.TCPIP_HTTP_UserAuthenticate
                0x9d0c77f0       0x54 build/pic32mz_ef_sk/production/_ext/1360937237/custom_http_app.o
                0x9d0c77f0                TCPIP_HTTP_UserAuthenticate

.text.DRV_ETHMAC_PIC32MACOpen
                0x9d0c7844       0x54
 .text.DRV_ETHMAC_PIC32MACOpen
                0x9d0c7844       0x54 build/pic32mz_ef_sk/production/_ext/1697634946/drv_ethmac.o
                0x9d0c7844                DRV_ETHMAC_PIC32MACOpen

.text.DRV_ETHMAC_PIC32MACLinkCheck
                0x9d0c7898       0x54
 .text.DRV_ETHMAC_PIC32MACLinkCheck
                0x9d0c7898       0x54 build/pic32mz_ef_sk/production/_ext/1697634946/drv_ethmac.o
                0x9d0c7898                DRV_ETHMAC_PIC32MACLinkCheck

.text._DRV_ETHMAC_LinkStateStartLink
                0x9d0c78ec       0x54
 .text._DRV_ETHMAC_LinkStateStartLink
                0x9d0c78ec       0x54 build/pic32mz_ef_sk/production/_ext/1697634946/drv_ethmac.o

.text._EnetDescriptorsCount
                0x9d0c7940       0x54
 .text._EnetDescriptorsCount
                0x9d0c7940       0x54 build/pic32mz_ef_sk/production/_ext/1697634946/drv_ethmac_lib.o

.text.DRV_MIIM_DeregisterCallback
                0x9d0c7994       0x54
 .text.DRV_MIIM_DeregisterCallback
                0x9d0c7994       0x54 build/pic32mz_ef_sk/production/_ext/1470245908/drv_miim.o
                0x9d0c7994                DRV_MIIM_DeregisterCallback

.rodata         0x9d0c79e8       0x54
 .rodata        0x9d0c79e8       0x54 build/pic32mz_ef_sk/production/_ext/1470245908/drv_miim.o
                0x9d0c79e8                DRV_MIIM_OBJECT_BASE_Default

.text.SYS_FS_MEDIA_MANAGER_CommandStatusGet
                0x9d0c7a3c       0x54
 .text.SYS_FS_MEDIA_MANAGER_CommandStatusGet
                0x9d0c7a3c       0x54 build/pic32mz_ef_sk/production/_ext/1750042194/sys_fs_media_manager.o
                0x9d0c7a3c                SYS_FS_MEDIA_MANAGER_CommandStatusGet

.text.SYS_INT_SourceDisable
                0x9d0c7a90       0x54
 .text.SYS_INT_SourceDisable
                0x9d0c7a90       0x54 build/pic32mz_ef_sk/production/_ext/1042686532/sys_int_pic32.o
                0x9d0c7a90                SYS_INT_SourceDisable

.text.TCPIP_NDP_AddressResolve
                0x9d0c7ae4       0x54
 .text.TCPIP_NDP_AddressResolve
                0x9d0c7ae4       0x54 build/pic32mz_ef_sk/production/_ext/1164207549/ndp.o
                0x9d0c7ae4                TCPIP_NDP_AddressResolve

.text.TCPIP_IPV6_InitializeStop
                0x9d0c7b38       0x54
 .text.TCPIP_IPV6_InitializeStop
                0x9d0c7b38       0x54 build/pic32mz_ef_sk/production/_ext/1164207549/ipv6.o
                0x9d0c7b38                TCPIP_IPV6_InitializeStop

.text._TCP_PortIsAvailable
                0x9d0c7b8c       0x54
 .text._TCP_PortIsAvailable
                0x9d0c7b8c       0x54 build/pic32mz_ef_sk/production/_ext/1164207549/tcp.o

.text._UDPSocketBind
                0x9d0c7be0       0x54
 .text._UDPSocketBind
                0x9d0c7be0       0x54 build/pic32mz_ef_sk/production/_ext/1164207549/udp.o

.text.TCPIP_ZCLL_ServiceEnable
                0x9d0c7c34       0x54
 .text.TCPIP_ZCLL_ServiceEnable
                0x9d0c7c34       0x54 build/pic32mz_ef_sk/production/_ext/1164207549/zero_conf_link_local.o
                0x9d0c7c34                TCPIP_ZCLL_ServiceEnable

.text._TCPIP_Helper_SecurePortEntry
                0x9d0c7c88       0x54
 .text._TCPIP_Helper_SecurePortEntry
                0x9d0c7c88       0x54 build/pic32mz_ef_sk/production/_ext/1164207549/tcpip_helpers.o

.text.TCPIP_STACK_AddressServiceSelect
                0x9d0c7cdc       0x54
 .text.TCPIP_STACK_AddressServiceSelect
                0x9d0c7cdc       0x54 build/pic32mz_ef_sk/production/_ext/1164207549/tcpip_manager.o
                0x9d0c7cdc                TCPIP_STACK_AddressServiceSelect

.text.vPortIncrementTick
                0x9d0c7d30       0x54
 .text.vPortIncrementTick
                0x9d0c7d30       0x54 build/pic32mz_ef_sk/production/_ext/1282498061/port.o
                0x9d0c7d30                vPortIncrementTick

.text._sscanf_s
                0x9d0c7d84       0x54
 .text._sscanf_s
                0x9d0c7d84       0x54 c:/program files (x86)/microchip/xc32/v1.44/bin/bin/../../lib/gcc/pic32mx/4.8.3/../../../../pic32mx/lib/fpu64\libc.a(sscanf_s.eo)
                0x9d0c7d84                _sscanf_0
                0x9d0c7d84                _sscanf_s

.text._XtlEventsTcp2Eth
                0x9d0c7dd8       0x50
 .text._XtlEventsTcp2Eth
                0x9d0c7dd8       0x50 build/pic32mz_ef_sk/production/_ext/1697634946/drv_ethmac.o

.text.DRV_ETHPHY_HWConfigFlagsGet
                0x9d0c7e28       0x50
 .text.DRV_ETHPHY_HWConfigFlagsGet
                0x9d0c7e28       0x50 build/pic32mz_ef_sk/production/_ext/521481140/drv_ethphy.o
                0x9d0c7e28                DRV_ETHPHY_HWConfigFlagsGet

.text._DRV_ETHPHY_NegResultPhase_ANLPAD
                0x9d0c7e78       0x50
 .text._DRV_ETHPHY_NegResultPhase_ANLPAD
                0x9d0c7e78       0x50 build/pic32mz_ef_sk/production/_ext/521481140/drv_ethphy.o

.text._DRV_ETHPHY_NegResultPhase_ANEXP
                0x9d0c7ec8       0x50
 .text._DRV_ETHPHY_NegResultPhase_ANEXP
                0x9d0c7ec8       0x50 build/pic32mz_ef_sk/production/_ext/521481140/drv_ethphy.o

.text._DRV_TMR_Suspend
                0x9d0c7f18       0x50
 .text._DRV_TMR_Suspend
                0x9d0c7f18       0x50 build/pic32mz_ef_sk/production/_ext/941160041/drv_tmr.o

.text.MACGetArray
                0x9d0c7f68       0x50
 .text.MACGetArray
                0x9d0c7f68       0x50 build/pic32mz_ef_sk/production/_ext/1164207549/ipv6.o

.text.TCPIP_ICMPV6_Deinitialize
                0x9d0c7fb8       0x50
 .text.TCPIP_ICMPV6_Deinitialize
                0x9d0c7fb8       0x50 build/pic32mz_ef_sk/production/_ext/1164207549/icmpv6.o
                0x9d0c7fb8                TCPIP_ICMPV6_Deinitialize

.text._TCPSetHalfFlushFlag
                0x9d0c8008       0x50
 .text._TCPSetHalfFlushFlag
                0x9d0c8008       0x50 build/pic32mz_ef_sk/production/_ext/1164207549/tcp.o

.text._TcpFlush
                0x9d0c8058       0x50
 .text._TcpFlush
                0x9d0c8058       0x50 build/pic32mz_ef_sk/production/_ext/1164207549/tcp.o

.rodata         0x9d0c80a8       0x50
 .rodata        0x9d0c80a8       0x50 build/pic32mz_ef_sk/production/_ext/1164207549/tcp.o

.text.TCPIP_UDP_Close
                0x9d0c80f8       0x50
 .text.TCPIP_UDP_Close
                0x9d0c80f8       0x50 build/pic32mz_ef_sk/production/_ext/1164207549/udp.o
                0x9d0c80f8                TCPIP_UDP_Close

.text.TCPIP_UDP_SourceIPAddressSet
                0x9d0c8148       0x50
 .text.TCPIP_UDP_SourceIPAddressSet
                0x9d0c8148       0x50 build/pic32mz_ef_sk/production/_ext/1164207549/udp.o
                0x9d0c8148                TCPIP_UDP_SourceIPAddressSet

.text._DHCPOptionWriteParamRequest
                0x9d0c8198       0x50
 .text._DHCPOptionWriteParamRequest
                0x9d0c8198       0x50 build/pic32mz_ef_sk/production/_ext/1164207549/dhcp.o

.text._DHCPOptionProcessSrvIdent
                0x9d0c81e8       0x50
 .text._DHCPOptionProcessSrvIdent
                0x9d0c81e8       0x50 build/pic32mz_ef_sk/production/_ext/1164207549/dhcp.o

.text.TCPIP_DNS_OAHASH_KeyHash
                0x9d0c8238       0x50
 .text.TCPIP_DNS_OAHASH_KeyHash
                0x9d0c8238       0x50 build/pic32mz_ef_sk/production/_ext/1164207549/dns.o

.text.TCPIP_NBNS_Deinitialize
                0x9d0c8288       0x50
 .text.TCPIP_NBNS_Deinitialize
                0x9d0c8288       0x50 build/pic32mz_ef_sk/production/_ext/1164207549/nbns.o
                0x9d0c8288                TCPIP_NBNS_Deinitialize

.text.TCPIP_SMTP_ClientDeinitialize
                0x9d0c82d8       0x50
 .text.TCPIP_SMTP_ClientDeinitialize
                0x9d0c82d8       0x50 build/pic32mz_ef_sk/production/_ext/1164207549/smtp.o
                0x9d0c82d8                TCPIP_SMTP_ClientDeinitialize

.text._ZCLLDisable
                0x9d0c8328       0x50
 .text._ZCLLDisable
                0x9d0c8328       0x50 build/pic32mz_ef_sk/production/_ext/1164207549/zero_conf_link_local.o

.text.TCPIP_Helper_DoubleListNodeRemove
                0x9d0c8378       0x50
 .text.TCPIP_Helper_DoubleListNodeRemove
                0x9d0c8378       0x50 build/pic32mz_ef_sk/production/_ext/1164207549/tcpip_helpers.o
                0x9d0c8378                TCPIP_Helper_DoubleListNodeRemove

.text.TCPIP_STACK_NetMACStatisticsGet
                0x9d0c83c8       0x50
 .text.TCPIP_STACK_NetMACStatisticsGet
                0x9d0c83c8       0x50 build/pic32mz_ef_sk/production/_ext/1164207549/tcpip_manager.o
                0x9d0c83c8                TCPIP_STACK_NetMACStatisticsGet

.text.TCPIP_STACK_NetMACRegisterStatisticsGet
                0x9d0c8418       0x50
 .text.TCPIP_STACK_NetMACRegisterStatisticsGet
                0x9d0c8418       0x50 build/pic32mz_ef_sk/production/_ext/1164207549/tcpip_manager.o
                0x9d0c8418                TCPIP_STACK_NetMACRegisterStatisticsGet

.text.TCPIP_Notification_Add
                0x9d0c8468       0x50
 .text.TCPIP_Notification_Add
                0x9d0c8468       0x50 build/pic32mz_ef_sk/production/_ext/1164207549/tcpip_notify.o
                0x9d0c8468                TCPIP_Notification_Add

.text.prvCopyDataFromQueue
                0x9d0c84b8       0x50
 .text.prvCopyDataFromQueue
                0x9d0c84b8       0x50 build/pic32mz_ef_sk/production/_ext/373060831/queue.o

.text.sbrk      0x9d0c8508       0x50
 .text.sbrk     0x9d0c8508       0x50 c:/program files (x86)/microchip/xc32/v1.44/bin/bin/../../lib/gcc/pic32mx/4.8.3/../../../../pic32mx/lib/fpu64\libpic32.a(sbrk.o)
                0x9d0c8508                sbrk

.text.BSP_LEDToggle
                0x9d0c8558       0x4c
 .text.BSP_LEDToggle
                0x9d0c8558       0x4c build/pic32mz_ef_sk/production/_ext/354129722/bsp.o
                0x9d0c8558                BSP_LEDToggle

.text.SYS_RESET_SoftwareReset
                0x9d0c85a4       0x4c
 .text.SYS_RESET_SoftwareReset
                0x9d0c85a4       0x4c build/pic32mz_ef_sk/production/_ext/119080242/sys_reset.o
                0x9d0c85a4                SYS_RESET_SoftwareReset

.text.TCPIP_HTTP_Print_status_ok
                0x9d0c85f0       0x4c
 .text.TCPIP_HTTP_Print_status_ok
                0x9d0c85f0       0x4c build/pic32mz_ef_sk/production/_ext/1360937237/custom_http_app.o
                0x9d0c85f0                TCPIP_HTTP_Print_status_ok

.text.TCPIP_HTTP_Print_status_fail
                0x9d0c863c       0x4c
 .text.TCPIP_HTTP_Print_status_fail
                0x9d0c863c       0x4c build/pic32mz_ef_sk/production/_ext/1360937237/custom_http_app.o
                0x9d0c863c                TCPIP_HTTP_Print_status_fail

.text.TCPIP_HTTP_Print_config_dhcpchecked
                0x9d0c8688       0x4c
 .text.TCPIP_HTTP_Print_config_dhcpchecked
                0x9d0c8688       0x4c build/pic32mz_ef_sk/production/_ext/1360937237/custom_http_app.o
                0x9d0c8688                TCPIP_HTTP_Print_config_dhcpchecked

.text._MACTxPacketAckCallback
                0x9d0c86d4       0x4c
 .text._MACTxPacketAckCallback
                0x9d0c86d4       0x4c build/pic32mz_ef_sk/production/_ext/1697634946/drv_ethmac.o

.text.DRV_ETHPHY_Close
                0x9d0c8720       0x4c
 .text.DRV_ETHPHY_Close
                0x9d0c8720       0x4c build/pic32mz_ef_sk/production/_ext/521481140/drv_ethphy.o
                0x9d0c8720                DRV_ETHPHY_Close

.text.DRV_ETHPHY_Reset
                0x9d0c876c       0x4c
 .text.DRV_ETHPHY_Reset
                0x9d0c876c       0x4c build/pic32mz_ef_sk/production/_ext/521481140/drv_ethphy.o
                0x9d0c876c                DRV_ETHPHY_Reset

.text.DRV_ETHPHY_NegotiationIsComplete
                0x9d0c87b8       0x4c
 .text.DRV_ETHPHY_NegotiationIsComplete
                0x9d0c87b8       0x4c build/pic32mz_ef_sk/production/_ext/521481140/drv_ethphy.o
                0x9d0c87b8                DRV_ETHPHY_NegotiationIsComplete

.text._DRV_PHY_NegCompleteSetOperResult
                0x9d0c8804       0x4c
 .text._DRV_PHY_NegCompleteSetOperResult
                0x9d0c8804       0x4c build/pic32mz_ef_sk/production/_ext/521481140/drv_ethphy.o

.text._DRV_ETHPHY_SetupPhaseNegotiate_SubPhase4
                0x9d0c8850       0x4c
 .text._DRV_ETHPHY_SetupPhaseNegotiate_SubPhase4
                0x9d0c8850       0x4c build/pic32mz_ef_sk/production/_ext/521481140/drv_ethphy.o

.text.OSAL_SEM_PostISR
                0x9d0c889c       0x4c
 .text.OSAL_SEM_PostISR
                0x9d0c889c       0x4c build/pic32mz_ef_sk/production/_ext/308321468/osal_freertos.o
                0x9d0c889c                OSAL_SEM_PostISR

.text.SYS_CONSOLE_Tasks
                0x9d0c88e8       0x4c
 .text.SYS_CONSOLE_Tasks
                0x9d0c88e8       0x4c build/pic32mz_ef_sk/production/_ext/1434663852/sys_console.o
                0x9d0c88e8                SYS_CONSOLE_Tasks

.text.UARTDeviceEventHandler
                0x9d0c8934       0x4c
 .text.UARTDeviceEventHandler
                0x9d0c8934       0x4c build/pic32mz_ef_sk/production/_ext/1434663852/sys_console_uart.o
                0x9d0c8934                UARTDeviceEventHandler

.text.SYS_TMR_TickCountGetLong
                0x9d0c8980       0x4c
 .text.SYS_TMR_TickCountGetLong
                0x9d0c8980       0x4c build/pic32mz_ef_sk/production/_ext/2110151058/sys_tmr.o
                0x9d0c8980                SYS_TMR_TickCountGetLong

.text.TCPIP_NDP_RouterSolicitStart
                0x9d0c89cc       0x4c
 .text.TCPIP_NDP_RouterSolicitStart
                0x9d0c89cc       0x4c build/pic32mz_ef_sk/production/_ext/1164207549/ndp.o
                0x9d0c89cc                TCPIP_NDP_RouterSolicitStart

.text.TCPIP_IPV6_PacketDataFree
                0x9d0c8a18       0x4c
 .text.TCPIP_IPV6_PacketDataFree
                0x9d0c8a18       0x4c build/pic32mz_ef_sk/production/_ext/1164207549/ipv6.o
                0x9d0c8a18                TCPIP_IPV6_PacketDataFree

.text.TCPIP_IPV6_FragmentBufferFree
                0x9d0c8a64       0x4c
 .text.TCPIP_IPV6_FragmentBufferFree
                0x9d0c8a64       0x4c build/pic32mz_ef_sk/production/_ext/1164207549/ipv6.o
                0x9d0c8a64                TCPIP_IPV6_FragmentBufferFree

.text.TCPIP_TCP_Flush
                0x9d0c8ab0       0x4c
 .text.TCPIP_TCP_Flush
                0x9d0c8ab0       0x4c build/pic32mz_ef_sk/production/_ext/1164207549/tcp.o
                0x9d0c8ab0                TCPIP_TCP_Flush

.text.TCPIP_TCP_FifoRxFreeGet
                0x9d0c8afc       0x4c
 .text.TCPIP_TCP_FifoRxFreeGet
                0x9d0c8afc       0x4c build/pic32mz_ef_sk/production/_ext/1164207549/tcp.o
                0x9d0c8afc                TCPIP_TCP_FifoRxFreeGet

.text.TCPIP_UDP_Discard
                0x9d0c8b48       0x4c
 .text.TCPIP_UDP_Discard
                0x9d0c8b48       0x4c build/pic32mz_ef_sk/production/_ext/1164207549/udp.o
                0x9d0c8b48                TCPIP_UDP_Discard

.text._TCPIP_HEAP_Calloc
                0x9d0c8b94       0x4c
 .text._TCPIP_HEAP_Calloc
                0x9d0c8b94       0x4c build/pic32mz_ef_sk/production/_ext/1164207549/tcpip_heap_internal.o

.text._ARPRemoveCacheEntries
                0x9d0c8be0       0x4c
 .text._ARPRemoveCacheEntries
                0x9d0c8be0       0x4c build/pic32mz_ef_sk/production/_ext/1164207549/arp.o

.text.TCPIP_NBNS_Cleanup
                0x9d0c8c2c       0x4c
 .text.TCPIP_NBNS_Cleanup
                0x9d0c8c2c       0x4c build/pic32mz_ef_sk/production/_ext/1164207549/nbns.o

.text.TCPIP_SNTP_Cleanup
                0x9d0c8c78       0x4c
 .text.TCPIP_SNTP_Cleanup
                0x9d0c8c78       0x4c build/pic32mz_ef_sk/production/_ext/1164207549/sntp.o

.text.TCPIP_Helper_ProtectedSingleListInitialize
                0x9d0c8cc4       0x4c
 .text.TCPIP_Helper_ProtectedSingleListInitialize
                0x9d0c8cc4       0x4c build/pic32mz_ef_sk/production/_ext/1164207549/tcpip_helpers.o
                0x9d0c8cc4                TCPIP_Helper_ProtectedSingleListInitialize

.text.TCPIP_STACK_NetAddressMacSet
                0x9d0c8d10       0x4c
 .text.TCPIP_STACK_NetAddressMacSet
                0x9d0c8d10       0x4c build/pic32mz_ef_sk/production/_ext/1164207549/tcpip_manager.o
                0x9d0c8d10                TCPIP_STACK_NetAddressMacSet

.text.TCPIP_STACK_MACIdToString
                0x9d0c8d5c       0x4c
 .text.TCPIP_STACK_MACIdToString
                0x9d0c8d5c       0x4c build/pic32mz_ef_sk/production/_ext/1164207549/tcpip_manager.o
                0x9d0c8d5c                TCPIP_STACK_MACIdToString

.text.TCPIP_STACK_DNSServiceCanStart
                0x9d0c8da8       0x4c
 .text.TCPIP_STACK_DNSServiceCanStart
                0x9d0c8da8       0x4c build/pic32mz_ef_sk/production/_ext/1164207549/tcpip_manager.o
                0x9d0c8da8                TCPIP_STACK_DNSServiceCanStart

.text._TCPIPStackSignalHandlerSetParams
                0x9d0c8df4       0x4c
 .text._TCPIPStackSignalHandlerSetParams
                0x9d0c8df4       0x4c build/pic32mz_ef_sk/production/_ext/1164207549/tcpip_manager.o
                0x9d0c8df4                _TCPIPStackSignalHandlerSetParams

.text.TCPIP_Notification_RemoveAll
                0x9d0c8e40       0x4c
 .text.TCPIP_Notification_RemoveAll
                0x9d0c8e40       0x4c build/pic32mz_ef_sk/production/_ext/1164207549/tcpip_notify.o
                0x9d0c8e40                TCPIP_Notification_RemoveAll

.text.calloc    0x9d0c8e8c       0x4c
 .text.calloc   0x9d0c8e8c       0x4c c:/program files (x86)/microchip/xc32/v1.44/bin/bin/../../lib/gcc/pic32mx/4.8.3/../../../../pic32mx/lib/fpu64\libc.a(calloc.o)
                0x9d0c8e8c                calloc

.text.SYS_CLK_SecondaryOscillatorEnable
                0x9d0c8ed8       0x48
 .text.SYS_CLK_SecondaryOscillatorEnable
                0x9d0c8ed8       0x48 build/pic32mz_ef_sk/production/_ext/571564127/sys_clk_pic32mz.o
                0x9d0c8ed8                SYS_CLK_SecondaryOscillatorEnable

.text.SYS_DEVCON_SystemLock
                0x9d0c8f20       0x48
 .text.SYS_DEVCON_SystemLock
                0x9d0c8f20       0x48 build/pic32mz_ef_sk/production/_ext/1868830280/sys_devcon.o
                0x9d0c8f20                SYS_DEVCON_SystemLock

.rodata         0x9d0c8f68       0x48
 .rodata        0x9d0c8f68       0x48 build/pic32mz_ef_sk/production/_ext/849053718/system_tasks.o

.text.DRV_ETHPHY_RestartNegotiation
                0x9d0c8fb0       0x48
 .text.DRV_ETHPHY_RestartNegotiation
                0x9d0c8fb0       0x48 build/pic32mz_ef_sk/production/_ext/521481140/drv_ethphy.o
                0x9d0c8fb0                DRV_ETHPHY_RestartNegotiation

.text.DRV_ETHPHY_Reinitialize
                0x9d0c8ff8       0x48
 .text.DRV_ETHPHY_Reinitialize
                0x9d0c8ff8       0x48 build/pic32mz_ef_sk/production/_ext/521481140/drv_ethphy.o
                0x9d0c8ff8                DRV_ETHPHY_Reinitialize

.text._DRV_ETHPHY_ClientOpSmiWrite
                0x9d0c9040       0x48
 .text._DRV_ETHPHY_ClientOpSmiWrite
                0x9d0c9040       0x48 build/pic32mz_ef_sk/production/_ext/521481140/drv_ethphy.o

.text._DRV_ETHPHY_NegRestartPhaseWrite
                0x9d0c9088       0x48
 .text._DRV_ETHPHY_NegRestartPhaseWrite
                0x9d0c9088       0x48 build/pic32mz_ef_sk/production/_ext/521481140/drv_ethphy.o

.text._DRV_NVM_WriteBufferObjProcess
                0x9d0c90d0       0x48
 .text._DRV_NVM_WriteBufferObjProcess
                0x9d0c90d0       0x48 build/pic32mz_ef_sk/production/_ext/184581597/drv_nvm.o
                0x9d0c90d0                _DRV_NVM_WriteBufferObjProcess

.text.DRV_TMR_Close
                0x9d0c9118       0x48
 .text.DRV_TMR_Close
                0x9d0c9118       0x48 build/pic32mz_ef_sk/production/_ext/941160041/drv_tmr.o
                0x9d0c9118                DRV_TMR_Close

.text.OSAL_CRIT_Enter
                0x9d0c9160       0x48
 .text.OSAL_CRIT_Enter
                0x9d0c9160       0x48 build/pic32mz_ef_sk/production/_ext/308321468/osal_freertos.o
                0x9d0c9160                OSAL_CRIT_Enter

.text.SYS_CONSOLE_Flush
                0x9d0c91a8       0x48
 .text.SYS_CONSOLE_Flush
                0x9d0c91a8       0x48 build/pic32mz_ef_sk/production/_ext/1434663852/sys_console.o
                0x9d0c91a8                SYS_CONSOLE_Flush

.text.SYS_FS_MEDIA_MANAGER_TransferTask
                0x9d0c91f0       0x48
 .text.SYS_FS_MEDIA_MANAGER_TransferTask
                0x9d0c91f0       0x48 build/pic32mz_ef_sk/production/_ext/1750042194/sys_fs_media_manager.o
                0x9d0c91f0                SYS_FS_MEDIA_MANAGER_TransferTask

.text.SYS_FS_FileStat_Wrapper
                0x9d0c9238       0x48
 .text.SYS_FS_FileStat_Wrapper
                0x9d0c9238       0x48 build/pic32mz_ef_sk/production/_ext/1886247299/sys_fs_wrapper.o
                0x9d0c9238                SYS_FS_FileStat_Wrapper

.text.TCPIP_IPV6_ProtectedSingleListFree
                0x9d0c9280       0x48
 .text.TCPIP_IPV6_ProtectedSingleListFree
                0x9d0c9280       0x48 build/pic32mz_ef_sk/production/_ext/1164207549/ipv6.o

.text.TCPIP_IPV6_AddressesGet
                0x9d0c92c8       0x48
 .text.TCPIP_IPV6_AddressesGet
                0x9d0c92c8       0x48 build/pic32mz_ef_sk/production/_ext/1164207549/ipv6.o
                0x9d0c92c8                TCPIP_IPV6_AddressesGet

.text.TCPIP_TCP_WasReset
                0x9d0c9310       0x48
 .text.TCPIP_TCP_WasReset
                0x9d0c9310       0x48 build/pic32mz_ef_sk/production/_ext/1164207549/tcp.o
                0x9d0c9310                TCPIP_TCP_WasReset

.text.TCPIP_TCP_StringPut
                0x9d0c9358       0x48
 .text.TCPIP_TCP_StringPut
                0x9d0c9358       0x48 build/pic32mz_ef_sk/production/_ext/1164207549/tcp.o
                0x9d0c9358                TCPIP_TCP_StringPut

.text.TCPIP_TCP_SignalHandlerDeregister
                0x9d0c93a0       0x48
 .text.TCPIP_TCP_SignalHandlerDeregister
                0x9d0c93a0       0x48 build/pic32mz_ef_sk/production/_ext/1164207549/tcp.o
                0x9d0c93a0                TCPIP_TCP_SignalHandlerDeregister

.text._UDPIsAvailablePort
                0x9d0c93e8       0x48
 .text._UDPIsAvailablePort
                0x9d0c93e8       0x48 build/pic32mz_ef_sk/production/_ext/1164207549/udp.o

.text._UDPTxPktValid
                0x9d0c9430       0x48
 .text._UDPTxPktValid
                0x9d0c9430       0x48 build/pic32mz_ef_sk/production/_ext/1164207549/udp.o

.text.TCPIP_UDP_DestinationPortSet
                0x9d0c9478       0x48
 .text.TCPIP_UDP_DestinationPortSet
                0x9d0c9478       0x48 build/pic32mz_ef_sk/production/_ext/1164207549/udp.o
                0x9d0c9478                TCPIP_UDP_DestinationPortSet

.text.TCPIP_UDP_SignalHandlerDeregister
                0x9d0c94c0       0x48
 .text.TCPIP_UDP_SignalHandlerDeregister
                0x9d0c94c0       0x48 build/pic32mz_ef_sk/production/_ext/1164207549/udp.o
                0x9d0c94c0                TCPIP_UDP_SignalHandlerDeregister

.text.TCPIP_HEAP_Create
                0x9d0c9508       0x48
 .text.TCPIP_HEAP_Create
                0x9d0c9508       0x48 build/pic32mz_ef_sk/production/_ext/1164207549/tcpip_heap_alloc.o
                0x9d0c9508                TCPIP_HEAP_Create

.text.TCPIP_ARP_HandlerDeRegister
                0x9d0c9550       0x48
 .text.TCPIP_ARP_HandlerDeRegister
                0x9d0c9550       0x48 build/pic32mz_ef_sk/production/_ext/1164207549/arp.o
                0x9d0c9550                TCPIP_ARP_HandlerDeRegister

.text._DHCPOptionWriteMsgType
                0x9d0c9598       0x48
 .text._DHCPOptionWriteMsgType
                0x9d0c9598       0x48 build/pic32mz_ef_sk/production/_ext/1164207549/dhcp.o

.text.TCPIP_Helper_SingleListAppend
                0x9d0c95e0       0x48
 .text.TCPIP_Helper_SingleListAppend
                0x9d0c95e0       0x48 build/pic32mz_ef_sk/production/_ext/1164207549/tcpip_helpers.o
                0x9d0c95e0                TCPIP_Helper_SingleListAppend

.text._TCPIP_STACK_TickHandler
                0x9d0c9628       0x48
 .text._TCPIP_STACK_TickHandler
                0x9d0c9628       0x48 build/pic32mz_ef_sk/production/_ext/1164207549/tcpip_manager.o

.text.TCPIP_STACK_IPAddToNet
                0x9d0c9670       0x48
 .text.TCPIP_STACK_IPAddToNet
                0x9d0c9670       0x48 build/pic32mz_ef_sk/production/_ext/1164207549/tcpip_manager.o
                0x9d0c9670                TCPIP_STACK_IPAddToNet

.text.TCPIP_STACK_AddressServiceDefaultSet
                0x9d0c96b8       0x48
 .text.TCPIP_STACK_AddressServiceDefaultSet
                0x9d0c96b8       0x48 build/pic32mz_ef_sk/production/_ext/1164207549/tcpip_manager.o
                0x9d0c96b8                TCPIP_STACK_AddressServiceDefaultSet

.text.vTaskEnterCritical
                0x9d0c9700       0x48
 .text.vTaskEnterCritical
                0x9d0c9700       0x48 build/pic32mz_ef_sk/production/_ext/373060831/tasks.o
                0x9d0c9700                vTaskEnterCritical

.text._bootstrap_exception_handler
                0x9d0c9748       0x48
 .text._bootstrap_exception_handler
                0x9d0c9748       0x48 c:/program files (x86)/microchip/xc32/v1.44/bin/bin/../../lib/gcc/pic32mx/4.8.3/../../../../pic32mx/lib/fpu64\libpic32.a(default-bootstrap-exception-handler.o)
                0x9d0c9748                _bootstrap_exception_handler

.text._cache_err_exception_handler
                0x9d0c9790       0x48
 .text._cache_err_exception_handler
                0x9d0c9790       0x48 c:/program files (x86)/microchip/xc32/v1.44/bin/bin/../../lib/gcc/pic32mx/4.8.3/../../../../pic32mx/lib/fpu64\libpic32.a(default-cache-err-exception-handler.o)
                0x9d0c9790                _cache_err_exception_handler

.text._simple_tlb_refill_exception_handler
                0x9d0c97d8       0x48
 .text._simple_tlb_refill_exception_handler
                0x9d0c97d8       0x48 c:/program files (x86)/microchip/xc32/v1.44/bin/bin/../../lib/gcc/pic32mx/4.8.3/../../../../pic32mx/lib/fpu64\libpic32.a(default-simple-tlb-refill-exception-handler.o)
                0x9d0c97d8                _simple_tlb_refill_exception_handler

.text.BSP_SwitchStateGet
                0x9d0c9820       0x44
 .text.BSP_SwitchStateGet
                0x9d0c9820       0x44 build/pic32mz_ef_sk/production/_ext/354129722/bsp.o
                0x9d0c9820                BSP_SwitchStateGet

.text.BSP_LEDStateGet
                0x9d0c9864       0x44
 .text.BSP_LEDStateGet
                0x9d0c9864       0x44 build/pic32mz_ef_sk/production/_ext/354129722/bsp.o
                0x9d0c9864                BSP_LEDStateGet

.text.TCPIP_HTTP_Print_pot
                0x9d0c98a8       0x44
 .text.TCPIP_HTTP_Print_pot
                0x9d0c98a8       0x44 build/pic32mz_ef_sk/production/_ext/1360937237/custom_http_app.o
                0x9d0c98a8                TCPIP_HTTP_Print_pot

.text.TCPIP_HTTP_Print_rebootaddr
                0x9d0c98ec       0x44
 .text.TCPIP_HTTP_Print_rebootaddr
                0x9d0c98ec       0x44 build/pic32mz_ef_sk/production/_ext/1360937237/custom_http_app.o
                0x9d0c98ec                TCPIP_HTTP_Print_rebootaddr

.text.DRV_ETHPHY_Tasks
                0x9d0c9930       0x44
 .text.DRV_ETHPHY_Tasks
                0x9d0c9930       0x44 build/pic32mz_ef_sk/production/_ext/521481140/drv_ethphy.o
                0x9d0c9930                DRV_ETHPHY_Tasks

.text._DRV_NVM_ClientHandleValidate
                0x9d0c9974       0x44
 .text._DRV_NVM_ClientHandleValidate
                0x9d0c9974       0x44 build/pic32mz_ef_sk/production/_ext/184581597/drv_nvm.o
                0x9d0c9974                _DRV_NVM_ClientHandleValidate

.text.OSAL_CRIT_Leave
                0x9d0c99b8       0x44
 .text.OSAL_CRIT_Leave
                0x9d0c99b8       0x44 build/pic32mz_ef_sk/production/_ext/308321468/osal_freertos.o
                0x9d0c99b8                OSAL_CRIT_Leave

.text.IsCommandReady
                0x9d0c99fc       0x44
 .text.IsCommandReady
                0x9d0c99fc       0x44 build/pic32mz_ef_sk/production/_ext/1891376032/sys_command.o

.text.MPFS_Unmount
                0x9d0c9a40       0x44
 .text.MPFS_Unmount
                0x9d0c9a40       0x44 build/pic32mz_ef_sk/production/_ext/614935175/mpfs.o
                0x9d0c9a40                MPFS_Unmount

.text.Ipv4DeRegisterFilter
                0x9d0c9a84       0x44
 .text.Ipv4DeRegisterFilter
                0x9d0c9a84       0x44 build/pic32mz_ef_sk/production/_ext/1164207549/ipv4.o
                0x9d0c9a84                Ipv4DeRegisterFilter

.text.TCPIP_IPV6_HeaderPut
                0x9d0c9ac8       0x44
 .text.TCPIP_IPV6_HeaderPut
                0x9d0c9ac8       0x44 build/pic32mz_ef_sk/production/_ext/1164207549/ipv6.o
                0x9d0c9ac8                TCPIP_IPV6_HeaderPut

.text.TCPIP_IPV6_HandlerDeregister
                0x9d0c9b0c       0x44
 .text.TCPIP_IPV6_HandlerDeregister
                0x9d0c9b0c       0x44 build/pic32mz_ef_sk/production/_ext/1164207549/ipv6.o
                0x9d0c9b0c                TCPIP_IPV6_HandlerDeregister

.text._TcpSocketBind
                0x9d0c9b50       0x44
 .text._TcpSocketBind
                0x9d0c9b50       0x44 build/pic32mz_ef_sk/production/_ext/1164207549/tcp.o

.text.TCPIP_TCP_IsConnected
                0x9d0c9b94       0x44
 .text.TCPIP_TCP_IsConnected
                0x9d0c9b94       0x44 build/pic32mz_ef_sk/production/_ext/1164207549/tcp.o
                0x9d0c9b94                TCPIP_TCP_IsConnected

.text._UDPv6FreePacket
                0x9d0c9bd8       0x44
 .text._UDPv6FreePacket
                0x9d0c9bd8       0x44 build/pic32mz_ef_sk/production/_ext/1164207549/udp.o

.rodata         0x9d0c9c1c       0x44
 .rodata        0x9d0c9c1c       0x44 build/pic32mz_ef_sk/production/_ext/1164207549/udp.o

.text.TCPIP_UDP_TxPointerGet
                0x9d0c9c60       0x44
 .text.TCPIP_UDP_TxPointerGet
                0x9d0c9c60       0x44 build/pic32mz_ef_sk/production/_ext/1164207549/udp.o
                0x9d0c9c60                TCPIP_UDP_TxPointerGet

.text._SwapARPPacket
                0x9d0c9ca4       0x44
 .text._SwapARPPacket
                0x9d0c9ca4       0x44 build/pic32mz_ef_sk/production/_ext/1164207549/arp.o

.text.TCPIP_DHCP_HandlerDeRegister
                0x9d0c9ce8       0x44
 .text.TCPIP_DHCP_HandlerDeRegister
                0x9d0c9ce8       0x44 build/pic32mz_ef_sk/production/_ext/1164207549/dhcp.o
                0x9d0c9ce8                TCPIP_DHCP_HandlerDeRegister

.text.TCPIP_Helper_DoubleListTailAdd
                0x9d0c9d2c       0x44
 .text.TCPIP_Helper_DoubleListTailAdd
                0x9d0c9d2c       0x44 build/pic32mz_ef_sk/production/_ext/1164207549/tcpip_helpers.o
                0x9d0c9d2c                TCPIP_Helper_DoubleListTailAdd

.text._TCPIPSignalEntryNotify
                0x9d0c9d70       0x44
 .text._TCPIPSignalEntryNotify
                0x9d0c9d70       0x44 build/pic32mz_ef_sk/production/_ext/1164207549/tcpip_manager.o

.text.TCPIP_STACK_NetMask
                0x9d0c9db4       0x44
 .text.TCPIP_STACK_NetMask
                0x9d0c9db4       0x44 build/pic32mz_ef_sk/production/_ext/1164207549/tcpip_manager.o
                0x9d0c9db4                TCPIP_STACK_NetMask

.text.TCPIP_STACK_NetIsBcastAddress
                0x9d0c9df8       0x44
 .text.TCPIP_STACK_NetIsBcastAddress
                0x9d0c9df8       0x44 build/pic32mz_ef_sk/production/_ext/1164207549/tcpip_manager.o
                0x9d0c9df8                TCPIP_STACK_NetIsBcastAddress

.text.TCPIP_STACK_NetIsLinked
                0x9d0c9e3c       0x44
 .text.TCPIP_STACK_NetIsLinked
                0x9d0c9e3c       0x44 build/pic32mz_ef_sk/production/_ext/1164207549/tcpip_manager.o
                0x9d0c9e3c                TCPIP_STACK_NetIsLinked

.text.TCPIP_STACK_NetAddressMac
                0x9d0c9e80       0x44
 .text.TCPIP_STACK_NetAddressMac
                0x9d0c9e80       0x44 build/pic32mz_ef_sk/production/_ext/1164207549/tcpip_manager.o
                0x9d0c9e80                TCPIP_STACK_NetAddressMac

.text.uxListRemove
                0x9d0c9ec4       0x44
 .text.uxListRemove
                0x9d0c9ec4       0x44 build/pic32mz_ef_sk/production/_ext/373060831/list.o
                0x9d0c9ec4                uxListRemove

.text           0x9d0c9f08       0x44
 .text          0x9d0c9f08       0x44 c:/program files (x86)/microchip/xc32/v1.44/bin/bin/../../lib/gcc/pic32mx/4.8.3/../../../../pic32mx/lib/fpu64\pic32_software_reset.o
                0x9d0c9f08                __pic32_software_reset

.text.strcat    0x9d0c9f4c       0x44
 .text.strcat   0x9d0c9f4c       0x44 c:/program files (x86)/microchip/xc32/v1.44/bin/bin/../../lib/gcc/pic32mx/4.8.3/../../../../pic32mx/lib/fpu64\libc.a(strcat.o)
                0x9d0c9f4c                strcat

.text.TCPIP_HTTP_Print_config_hostname
                0x9d0c9f90       0x40
 .text.TCPIP_HTTP_Print_config_hostname
                0x9d0c9f90       0x40 build/pic32mz_ef_sk/production/_ext/1360937237/custom_http_app.o
                0x9d0c9f90                TCPIP_HTTP_Print_config_hostname

.text.CRYPT_MD5_DataAdd
                0x9d0c9fd0       0x40
 .text.CRYPT_MD5_DataAdd
                0x9d0c9fd0       0x40 build/pic32mz_ef_sk/production/_ext/29024758/crypto.o
                0x9d0c9fd0                CRYPT_MD5_DataAdd

.text.CRYPT_MD5_Finalize
                0x9d0ca010       0x40
 .text.CRYPT_MD5_Finalize
                0x9d0ca010       0x40 build/pic32mz_ef_sk/production/_ext/29024758/crypto.o
                0x9d0ca010                CRYPT_MD5_Finalize

.text._DRV_ETHPHY_NegCompletePhaseResultNoWait
                0x9d0ca050       0x40
 .text._DRV_ETHPHY_NegCompletePhaseResultNoWait
                0x9d0ca050       0x40 build/pic32mz_ef_sk/production/_ext/521481140/drv_ethphy.o

.text.DRV_NVM_EventHandlerSet
                0x9d0ca090       0x40
 .text.DRV_NVM_EventHandlerSet
                0x9d0ca090       0x40 build/pic32mz_ef_sk/production/_ext/184581597/drv_nvm.o
                0x9d0ca090                DRV_NVM_EventHandlerSet

.text.OSAL_SEM_Pend
                0x9d0ca0d0       0x40
 .text.OSAL_SEM_Pend
                0x9d0ca0d0       0x40 build/pic32mz_ef_sk/production/_ext/308321468/osal_freertos.o
                0x9d0ca0d0                OSAL_SEM_Pend

.text.OSAL_MUTEX_Lock
                0x9d0ca110       0x40
 .text.OSAL_MUTEX_Lock
                0x9d0ca110       0x40 build/pic32mz_ef_sk/production/_ext/308321468/osal_freertos.o
                0x9d0ca110                OSAL_MUTEX_Lock

.text.MPFS_GetSize
                0x9d0ca150       0x40
 .text.MPFS_GetSize
                0x9d0ca150       0x40 build/pic32mz_ef_sk/production/_ext/614935175/mpfs.o
                0x9d0ca150                MPFS_GetSize

.text.SYS_FS_FileOpen_Wrapper
                0x9d0ca190       0x40
 .text.SYS_FS_FileOpen_Wrapper
                0x9d0ca190       0x40 build/pic32mz_ef_sk/production/_ext/1886247299/sys_fs_wrapper.o
                0x9d0ca190                SYS_FS_FileOpen_Wrapper

.text.TCPIP_IPV6_DoubleListFree
                0x9d0ca1d0       0x40
 .text.TCPIP_IPV6_DoubleListFree
                0x9d0ca1d0       0x40 build/pic32mz_ef_sk/production/_ext/1164207549/ipv6.o
                0x9d0ca1d0                TCPIP_IPV6_DoubleListFree

.text.TCPIP_IPV6_SingleListFree
                0x9d0ca210       0x40
 .text.TCPIP_IPV6_SingleListFree
                0x9d0ca210       0x40 build/pic32mz_ef_sk/production/_ext/1164207549/ipv6.o
                0x9d0ca210                TCPIP_IPV6_SingleListFree

.text.TCPIP_TCP_PutIsReady
                0x9d0ca250       0x40
 .text.TCPIP_TCP_PutIsReady
                0x9d0ca250       0x40 build/pic32mz_ef_sk/production/_ext/1164207549/tcp.o
                0x9d0ca250                TCPIP_TCP_PutIsReady

.text._UDPFreeRxQueue
                0x9d0ca290       0x40
 .text._UDPFreeRxQueue
                0x9d0ca290       0x40 build/pic32mz_ef_sk/production/_ext/1164207549/udp.o

.text._ZCLLCleanup
                0x9d0ca2d0       0x40
 .text._ZCLLCleanup
                0x9d0ca2d0       0x40 build/pic32mz_ef_sk/production/_ext/1164207549/zero_conf_link_local.o

.text.TCPIP_Helper_DoubleListHeadAdd
                0x9d0ca310       0x40
 .text.TCPIP_Helper_DoubleListHeadAdd
                0x9d0ca310       0x40 build/pic32mz_ef_sk/production/_ext/1164207549/tcpip_helpers.o
                0x9d0ca310                TCPIP_Helper_DoubleListHeadAdd

.text.TCPIP_Helper_DoubleListHeadRemove
                0x9d0ca350       0x40
 .text.TCPIP_Helper_DoubleListHeadRemove
                0x9d0ca350       0x40 build/pic32mz_ef_sk/production/_ext/1164207549/tcpip_helpers.o
                0x9d0ca350                TCPIP_Helper_DoubleListHeadRemove

.text.TCPIP_Helper_DoubleListTailRemove
                0x9d0ca390       0x40
 .text.TCPIP_Helper_DoubleListTailRemove
                0x9d0ca390       0x40 build/pic32mz_ef_sk/production/_ext/1164207549/tcpip_helpers.o
                0x9d0ca390                TCPIP_Helper_DoubleListTailRemove

.text.TCPIP_ICMP_Cleanup
                0x9d0ca3d0       0x40
 .text.TCPIP_ICMP_Cleanup
                0x9d0ca3d0       0x40 build/pic32mz_ef_sk/production/_ext/1164207549/icmp.o

.text.TCPIP_ICMP_Deinitialize
                0x9d0ca410       0x40
 .text.TCPIP_ICMP_Deinitialize
                0x9d0ca410       0x40 build/pic32mz_ef_sk/production/_ext/1164207549/icmp.o
                0x9d0ca410                TCPIP_ICMP_Deinitialize

.text           0x9d0ca450       0x40
 .text          0x9d0ca450       0x40 c:/program files (x86)/microchip/xc32/v1.44/bin/bin/../../lib/gcc/pic32mx/4.8.3/fpu64\libgcc.a(_cmpdi2.o)
                0x9d0ca450                __cmpdi2

.text._DRV_ETHMAC_LinkStateDown
                0x9d0ca490       0x3c
 .text._DRV_ETHMAC_LinkStateDown
                0x9d0ca490       0x3c build/pic32mz_ef_sk/production/_ext/1697634946/drv_ethmac.o

.text.DRV_ETHMAC_SingleListHeadRemove
                0x9d0ca4cc       0x3c
 .text.DRV_ETHMAC_SingleListHeadRemove
                0x9d0ca4cc       0x3c build/pic32mz_ef_sk/production/_ext/1697634946/drv_ethmac_lib.o
                0x9d0ca4cc                DRV_ETHMAC_SingleListHeadRemove

.text.DRV_MIIM_Status
                0x9d0ca508       0x3c
 .text.DRV_MIIM_Status
                0x9d0ca508       0x3c build/pic32mz_ef_sk/production/_ext/1470245908/drv_miim.o
                0x9d0ca508                DRV_MIIM_Status

.text.Helper_SingleListHeadRemove
                0x9d0ca544       0x3c
 .text.Helper_SingleListHeadRemove
                0x9d0ca544       0x3c build/pic32mz_ef_sk/production/_ext/1470245908/drv_miim.o
                0x9d0ca544                Helper_SingleListHeadRemove

.text.DRV_MIIM_Close
                0x9d0ca580       0x3c
 .text.DRV_MIIM_Close
                0x9d0ca580       0x3c build/pic32mz_ef_sk/production/_ext/1470245908/drv_miim.o
                0x9d0ca580                DRV_MIIM_Close

.text.DRV_USART_ClientStatus
                0x9d0ca5bc       0x3c
 .text.DRV_USART_ClientStatus
                0x9d0ca5bc       0x3c build/pic32mz_ef_sk/production/_ext/821589181/drv_usart.o
                0x9d0ca5bc                DRV_USART_ClientStatus

.text.OSAL_MUTEX_Create
                0x9d0ca5f8       0x3c
 .text.OSAL_MUTEX_Create
                0x9d0ca5f8       0x3c build/pic32mz_ef_sk/production/_ext/308321468/osal_freertos.o
                0x9d0ca5f8                OSAL_MUTEX_Create

.text.Console_UART_ReadC
                0x9d0ca634       0x3c
 .text.Console_UART_ReadC
                0x9d0ca634       0x3c build/pic32mz_ef_sk/production/_ext/1434663852/sys_console_uart.o
                0x9d0ca634                Console_UART_ReadC

.text.SYS_DEBUG_Message
                0x9d0ca670       0x3c
 .text.SYS_DEBUG_Message
                0x9d0ca670       0x3c build/pic32mz_ef_sk/production/_ext/2137108136/sys_debug.o
                0x9d0ca670                SYS_DEBUG_Message

.text.MPFS_DirClose
                0x9d0ca6ac       0x3c
 .text.MPFS_DirClose
                0x9d0ca6ac       0x3c build/pic32mz_ef_sk/production/_ext/614935175/mpfs.o
                0x9d0ca6ac                MPFS_DirClose

.text.SYS_TMR_ObjectDelete
                0x9d0ca6e8       0x3c
 .text.SYS_TMR_ObjectDelete
                0x9d0ca6e8       0x3c build/pic32mz_ef_sk/production/_ext/2110151058/sys_tmr.o
                0x9d0ca6e8                SYS_TMR_ObjectDelete

.text.TCPIP_IPV6_PacketFree
                0x9d0ca724       0x3c
 .text.TCPIP_IPV6_PacketFree
                0x9d0ca724       0x3c build/pic32mz_ef_sk/production/_ext/1164207549/ipv6.o
                0x9d0ca724                TCPIP_IPV6_PacketFree

.text._TCPIsGetReady
                0x9d0ca760       0x3c
 .text._TCPIsGetReady
                0x9d0ca760       0x3c build/pic32mz_ef_sk/production/_ext/1164207549/tcp.o

.text.TCPIP_TCP_Disconnect
                0x9d0ca79c       0x3c
 .text.TCPIP_TCP_Disconnect
                0x9d0ca79c       0x3c build/pic32mz_ef_sk/production/_ext/1164207549/tcp.o
                0x9d0ca79c                TCPIP_TCP_Disconnect

.text._ARPTxAckFnc
                0x9d0ca7d8       0x3c
 .text._ARPTxAckFnc
                0x9d0ca7d8       0x3c build/pic32mz_ef_sk/production/_ext/1164207549/arp.o

.text.TCPIP_ARP_HashKeyHash
                0x9d0ca814       0x3c
 .text.TCPIP_ARP_HashKeyHash
                0x9d0ca814       0x3c build/pic32mz_ef_sk/production/_ext/1164207549/arp.o
                0x9d0ca814                TCPIP_ARP_HashKeyHash

.text.TCPIP_DNS_IsResolved
                0x9d0ca850       0x3c
 .text.TCPIP_DNS_IsResolved
                0x9d0ca850       0x3c build/pic32mz_ef_sk/production/_ext/1164207549/dns.o
                0x9d0ca850                TCPIP_DNS_IsResolved

.text.TCPIP_OAHASH_Initialize
                0x9d0ca88c       0x3c
 .text.TCPIP_OAHASH_Initialize
                0x9d0ca88c       0x3c build/pic32mz_ef_sk/production/_ext/1164207549/oahash.o
                0x9d0ca88c                TCPIP_OAHASH_Initialize

.text.TCPIP_Helper_SingleListHeadRemove
                0x9d0ca8c8       0x3c
 .text.TCPIP_Helper_SingleListHeadRemove
                0x9d0ca8c8       0x3c build/pic32mz_ef_sk/production/_ext/1164207549/tcpip_helpers.o
                0x9d0ca8c8                TCPIP_Helper_SingleListHeadRemove

.text.TCPIP_STACK_IndexToNet
                0x9d0ca904       0x3c
 .text.TCPIP_STACK_IndexToNet
                0x9d0ca904       0x3c build/pic32mz_ef_sk/production/_ext/1164207549/tcpip_manager.o
                0x9d0ca904                TCPIP_STACK_IndexToNet

.text.TCPIP_STACK_Deinitialize
                0x9d0ca940       0x3c
 .text.TCPIP_STACK_Deinitialize
                0x9d0ca940       0x3c build/pic32mz_ef_sk/production/_ext/1164207549/tcpip_manager.o
                0x9d0ca940                TCPIP_STACK_Deinitialize

.text._TCPIPStackPacketTx
                0x9d0ca97c       0x3c
 .text._TCPIPStackPacketTx
                0x9d0ca97c       0x3c build/pic32mz_ef_sk/production/_ext/1164207549/tcpip_manager.o
                0x9d0ca97c                _TCPIPStackPacketTx

.text.uxPortSetInterruptMaskFromISR
                0x9d0ca9b8       0x3c
 .text.uxPortSetInterruptMaskFromISR
                0x9d0ca9b8       0x3c build/pic32mz_ef_sk/production/_ext/1282498061/port.o
                0x9d0ca9b8                uxPortSetInterruptMaskFromISR

.text._ICMPAllocateTxPacketStruct
                0x9d0ca9f4       0x3c
 .text._ICMPAllocateTxPacketStruct
                0x9d0ca9f4       0x3c build/pic32mz_ef_sk/production/_ext/1164207549/icmp.o

.text.DRV_ETHMAC_LibDescriptorGetBuffer
                0x9d0caa30       0x38
 .text.DRV_ETHMAC_LibDescriptorGetBuffer
                0x9d0caa30       0x38 build/pic32mz_ef_sk/production/_ext/1697634946/drv_ethmac_lib.o
                0x9d0caa30                DRV_ETHMAC_LibDescriptorGetBuffer

.text.DRV_ETHMAC_LibRxPendingBuffersGet
                0x9d0caa68       0x38
 .text.DRV_ETHMAC_LibRxPendingBuffersGet
                0x9d0caa68       0x38 build/pic32mz_ef_sk/production/_ext/1697634946/drv_ethmac_lib.o
                0x9d0caa68                DRV_ETHMAC_LibRxPendingBuffersGet

.text.DRV_ETHMAC_LibRxScheduledBuffersGet
                0x9d0caaa0       0x38
 .text.DRV_ETHMAC_LibRxScheduledBuffersGet
                0x9d0caaa0       0x38 build/pic32mz_ef_sk/production/_ext/1697634946/drv_ethmac_lib.o
                0x9d0caaa0                DRV_ETHMAC_LibRxScheduledBuffersGet

.text.DRV_ETHMAC_LibTxPendingBuffersGet
                0x9d0caad8       0x38
 .text.DRV_ETHMAC_LibTxPendingBuffersGet
                0x9d0caad8       0x38 build/pic32mz_ef_sk/production/_ext/1697634946/drv_ethmac_lib.o
                0x9d0caad8                DRV_ETHMAC_LibTxPendingBuffersGet

.text._DRV_PHY_SMIReadStart
                0x9d0cab10       0x38
 .text._DRV_PHY_SMIReadStart
                0x9d0cab10       0x38 build/pic32mz_ef_sk/production/_ext/521481140/drv_ethphy.o

.text._DRV_PHY_SMIWriteStart
                0x9d0cab48       0x38
 .text._DRV_PHY_SMIWriteStart
                0x9d0cab48       0x38 build/pic32mz_ef_sk/production/_ext/521481140/drv_ethphy.o

.text._DRV_ETHPHY_ResetPhaseIdle
                0x9d0cab80       0x38
 .text._DRV_ETHPHY_ResetPhaseIdle
                0x9d0cab80       0x38 build/pic32mz_ef_sk/production/_ext/521481140/drv_ethphy.o

.text.DRV_NVM_AddressGet
                0x9d0cabb8       0x38
 .text.DRV_NVM_AddressGet
                0x9d0cabb8       0x38 build/pic32mz_ef_sk/production/_ext/184581597/drv_nvm.o
                0x9d0cabb8                DRV_NVM_AddressGet

.text._DRV_NVM_EraseBufferObjProcess
                0x9d0cabf0       0x38
 .text._DRV_NVM_EraseBufferObjProcess
                0x9d0cabf0       0x38 build/pic32mz_ef_sk/production/_ext/184581597/drv_nvm.o
                0x9d0cabf0                _DRV_NVM_EraseBufferObjProcess

.text.CommandReset
                0x9d0cac28       0x38
 .text.CommandReset
                0x9d0cac28       0x38 build/pic32mz_ef_sk/production/_ext/1891376032/sys_command.o

.text.SYS_FS_MEDIA_MANAGER_AddressGet
                0x9d0cac60       0x38
 .text.SYS_FS_MEDIA_MANAGER_AddressGet
                0x9d0cac60       0x38 build/pic32mz_ef_sk/production/_ext/1750042194/sys_fs_media_manager.o
                0x9d0cac60                SYS_FS_MEDIA_MANAGER_AddressGet

.text.MPFSIsHandleValid
                0x9d0cac98       0x38
 .text.MPFSIsHandleValid
                0x9d0cac98       0x38 build/pic32mz_ef_sk/production/_ext/614935175/mpfs.o

.text._TCP_TxPktValid
                0x9d0cacd0       0x38
 .text._TCP_TxPktValid
                0x9d0cacd0       0x38 build/pic32mz_ef_sk/production/_ext/1164207549/tcp.o

.text.TCPIP_TCP_ClientOpen
                0x9d0cad08       0x38
 .text.TCPIP_TCP_ClientOpen
                0x9d0cad08       0x38 build/pic32mz_ef_sk/production/_ext/1164207549/tcp.o
                0x9d0cad08                TCPIP_TCP_ClientOpen

.text.TCPIP_TCP_Find
                0x9d0cad40       0x38
 .text.TCPIP_TCP_Find
                0x9d0cad40       0x38 build/pic32mz_ef_sk/production/_ext/1164207549/tcp.o
                0x9d0cad40                TCPIP_TCP_Find

.text._ARPAllocateTxPacket
                0x9d0cad78       0x38
 .text._ARPAllocateTxPacket
                0x9d0cad78       0x38 build/pic32mz_ef_sk/production/_ext/1164207549/arp.o

.text.TCPIP_ARP_CallbacksDeregister
                0x9d0cadb0       0x38
 .text.TCPIP_ARP_CallbacksDeregister
                0x9d0cadb0       0x38 build/pic32mz_ef_sk/production/_ext/1164207549/arp.o
                0x9d0cadb0                TCPIP_ARP_CallbacksDeregister

.text.TCPIP_DHCP_Enable
                0x9d0cade8       0x38
 .text.TCPIP_DHCP_Enable
                0x9d0cade8       0x38 build/pic32mz_ef_sk/production/_ext/1164207549/dhcp.o
                0x9d0cade8                TCPIP_DHCP_Enable

.text.TCPIP_DHCP_Renew
                0x9d0cae20       0x38
 .text.TCPIP_DHCP_Renew
                0x9d0cae20       0x38 build/pic32mz_ef_sk/production/_ext/1164207549/dhcp.o
                0x9d0cae20                TCPIP_DHCP_Renew

.text.TCPIP_DHCP_Request
                0x9d0cae58       0x38
 .text.TCPIP_DHCP_Request
                0x9d0cae58       0x38 build/pic32mz_ef_sk/production/_ext/1164207549/dhcp.o
                0x9d0cae58                TCPIP_DHCP_Request

.text._FieldSetIpv4Addr
                0x9d0cae90       0x38
 .text._FieldSetIpv4Addr
                0x9d0cae90       0x38 build/pic32mz_ef_sk/production/_ext/1164207549/tcpip_announce.o
                0x9d0cae90                _FieldSetIpv4Addr

.text.TCPIP_PKT_PayloadLen
                0x9d0caec8       0x38
 .text.TCPIP_PKT_PayloadLen
                0x9d0caec8       0x38 build/pic32mz_ef_sk/production/_ext/1164207549/tcpip_packet.o
                0x9d0caec8                TCPIP_PKT_PayloadLen

.text.prvResetNextTaskUnblockTime
                0x9d0caf00       0x38
 .text.prvResetNextTaskUnblockTime
                0x9d0caf00       0x38 build/pic32mz_ef_sk/production/_ext/373060831/tasks.o

.text.vTaskPlaceOnEventList
                0x9d0caf38       0x38
 .text.vTaskPlaceOnEventList
                0x9d0caf38       0x38 build/pic32mz_ef_sk/production/_ext/373060831/tasks.o
                0x9d0caf38                vTaskPlaceOnEventList

.rodata         0x9d0caf70       0x34
 .rodata        0x9d0caf70       0x34 build/pic32mz_ef_sk/production/_ext/354129722/bsp.o

.text.CRYPT_MD5_Initialize
                0x9d0cafa4       0x34
 .text.CRYPT_MD5_Initialize
                0x9d0cafa4       0x34 build/pic32mz_ef_sk/production/_ext/29024758/crypto.o
                0x9d0cafa4                CRYPT_MD5_Initialize

.text.DRV_ETHPHY_PhyAddressGet
                0x9d0cafd8       0x34
 .text.DRV_ETHPHY_PhyAddressGet
                0x9d0cafd8       0x34 build/pic32mz_ef_sk/production/_ext/521481140/drv_ethphy.o
                0x9d0cafd8                DRV_ETHPHY_PhyAddressGet

.text.DRV_ETHPHY_ClientOperationAbort
                0x9d0cb00c       0x34
 .text.DRV_ETHPHY_ClientOperationAbort
                0x9d0cb00c       0x34 build/pic32mz_ef_sk/production/_ext/521481140/drv_ethphy.o
                0x9d0cb00c                DRV_ETHPHY_ClientOperationAbort

.text._DRV_ETHPHY_NegRestartPhaseIdle
                0x9d0cb040       0x34
 .text._DRV_ETHPHY_NegRestartPhaseIdle
                0x9d0cb040       0x34 build/pic32mz_ef_sk/production/_ext/521481140/drv_ethphy.o

.text._DRV_ETHPHY_NegResultPhaseIdle
                0x9d0cb074       0x34
 .text._DRV_ETHPHY_NegResultPhaseIdle
                0x9d0cb074       0x34 build/pic32mz_ef_sk/production/_ext/521481140/drv_ethphy.o

.text._DRV_ETHPHY_NegCompletePhaseIdle
                0x9d0cb0a8       0x34
 .text._DRV_ETHPHY_NegCompletePhaseIdle
                0x9d0cb0a8       0x34 build/pic32mz_ef_sk/production/_ext/521481140/drv_ethphy.o

.text._DRV_ETHPHY_LinkStatPhaseIdle
                0x9d0cb0dc       0x34
 .text._DRV_ETHPHY_LinkStatPhaseIdle
                0x9d0cb0dc       0x34 build/pic32mz_ef_sk/production/_ext/521481140/drv_ethphy.o

.text.TCPIP_IPV6_InterfaceIsReady
                0x9d0cb110       0x34
 .text.TCPIP_IPV6_InterfaceIsReady
                0x9d0cb110       0x34 build/pic32mz_ef_sk/production/_ext/1164207549/ipv6.o
                0x9d0cb110                TCPIP_IPV6_InterfaceIsReady

.text.TCPIP_IPV6_InterfaceConfigGet
                0x9d0cb144       0x34
 .text.TCPIP_IPV6_InterfaceConfigGet
                0x9d0cb144       0x34 build/pic32mz_ef_sk/production/_ext/1164207549/ipv6.o
                0x9d0cb144                TCPIP_IPV6_InterfaceConfigGet

.text._TcpSocketChk
                0x9d0cb178       0x34
 .text._TcpSocketChk
                0x9d0cb178       0x34 build/pic32mz_ef_sk/production/_ext/1164207549/tcp.o

.text.TCPIP_TCP_GetIsReady
                0x9d0cb1ac       0x34
 .text.TCPIP_TCP_GetIsReady
                0x9d0cb1ac       0x34 build/pic32mz_ef_sk/production/_ext/1164207549/tcp.o
                0x9d0cb1ac                TCPIP_TCP_GetIsReady

.text._UDPSocketDcpt
                0x9d0cb1e0       0x34
 .text._UDPSocketDcpt
                0x9d0cb1e0       0x34 build/pic32mz_ef_sk/production/_ext/1164207549/udp.o

.text.TCPIP_SNTP_ConnectionInitiate
                0x9d0cb214       0x34
 .text.TCPIP_SNTP_ConnectionInitiate
                0x9d0cb214       0x34 build/pic32mz_ef_sk/production/_ext/1164207549/sntp.o
                0x9d0cb214                TCPIP_SNTP_ConnectionInitiate

.text.TCPIP_Helper_ProtectedSingleListLock
                0x9d0cb248       0x34
 .text.TCPIP_Helper_ProtectedSingleListLock
                0x9d0cb248       0x34 build/pic32mz_ef_sk/production/_ext/1164207549/tcpip_helpers.o
                0x9d0cb248                TCPIP_Helper_ProtectedSingleListLock

.text.TCPIP_Helper_ProtectedSingleListUnlock
                0x9d0cb27c       0x34
 .text.TCPIP_Helper_ProtectedSingleListUnlock
                0x9d0cb27c       0x34 build/pic32mz_ef_sk/production/_ext/1164207549/tcpip_helpers.o
                0x9d0cb27c                TCPIP_Helper_ProtectedSingleListUnlock

.text.TCPIP_STACK_NetAddressBcast
                0x9d0cb2b0       0x34
 .text.TCPIP_STACK_NetAddressBcast
                0x9d0cb2b0       0x34 build/pic32mz_ef_sk/production/_ext/1164207549/tcpip_manager.o
                0x9d0cb2b0                TCPIP_STACK_NetAddressBcast

.text.TCPIP_STACK_DNSServiceSelect
                0x9d0cb2e4       0x34
 .text.TCPIP_STACK_DNSServiceSelect
                0x9d0cb2e4       0x34 build/pic32mz_ef_sk/production/_ext/1164207549/tcpip_manager.o
                0x9d0cb2e4                TCPIP_STACK_DNSServiceSelect

.text.TCPIP_STACK_NetAddress
                0x9d0cb318       0x34
 .text.TCPIP_STACK_NetAddress
                0x9d0cb318       0x34 build/pic32mz_ef_sk/production/_ext/1164207549/tcpip_manager.o
                0x9d0cb318                TCPIP_STACK_NetAddress

.text.TCPIP_STACK_NetStaticIPv6AddressGet
                0x9d0cb34c       0x34
 .text.TCPIP_STACK_NetStaticIPv6AddressGet
                0x9d0cb34c       0x34 build/pic32mz_ef_sk/production/_ext/1164207549/tcpip_manager.o
                0x9d0cb34c                TCPIP_STACK_NetStaticIPv6AddressGet

.text._TCPIPStackHandleToNetLinked
                0x9d0cb380       0x34
 .text._TCPIPStackHandleToNetLinked
                0x9d0cb380       0x34 build/pic32mz_ef_sk/production/_ext/1164207549/tcpip_manager.o
                0x9d0cb380                _TCPIPStackHandleToNetLinked

.text.TCPIP_STACK_NetIsReady
                0x9d0cb3b4       0x34
 .text.TCPIP_STACK_NetIsReady
                0x9d0cb3b4       0x34 build/pic32mz_ef_sk/production/_ext/1164207549/tcpip_manager.o
                0x9d0cb3b4                TCPIP_STACK_NetIsReady

.text.xQueueCreateCountingSemaphore
                0x9d0cb3e8       0x34
 .text.xQueueCreateCountingSemaphore
                0x9d0cb3e8       0x34 build/pic32mz_ef_sk/production/_ext/373060831/queue.o
                0x9d0cb3e8                xQueueCreateCountingSemaphore

.text.exit      0x9d0cb41c       0x34
 .text.exit     0x9d0cb41c       0x34 c:/program files (x86)/microchip/xc32/v1.44/bin/bin/../../lib/gcc/pic32mx/4.8.3/../../../../pic32mx/lib/fpu64\libc.a(exit.o)
                0x9d0cb41c                exit

.text.wc_InitMd5
                0x9d0cb450       0x30
 .text.wc_InitMd5
                0x9d0cb450       0x30 build/pic32mz_ef_sk/production/_ext/29024758/md5.o
                0x9d0cb450                wc_InitMd5

.text._MacCallocCallback
                0x9d0cb480       0x30
 .text._MacCallocCallback
                0x9d0cb480       0x30 build/pic32mz_ef_sk/production/_ext/1697634946/drv_ethmac.o

.text.DRV_ETHMAC_PIC32MACDeinitialize
                0x9d0cb4b0       0x30
 .text.DRV_ETHMAC_PIC32MACDeinitialize
                0x9d0cb4b0       0x30 build/pic32mz_ef_sk/production/_ext/1697634946/drv_ethmac.o
                0x9d0cb4b0                DRV_ETHMAC_PIC32MACDeinitialize

.text.DRV_ETHMAC_SingleListTailAdd
                0x9d0cb4e0       0x30
 .text.DRV_ETHMAC_SingleListTailAdd
                0x9d0cb4e0       0x30 build/pic32mz_ef_sk/production/_ext/1697634946/drv_ethmac_lib.o
                0x9d0cb4e0                DRV_ETHMAC_SingleListTailAdd

.text.DRV_ETHPHY_VendorDataGet
                0x9d0cb510       0x30
 .text.DRV_ETHPHY_VendorDataGet
                0x9d0cb510       0x30 build/pic32mz_ef_sk/production/_ext/521481140/drv_ethphy.o
                0x9d0cb510                DRV_ETHPHY_VendorDataGet

.text.Helper_SingleListTailAdd
                0x9d0cb540       0x30
 .text.Helper_SingleListTailAdd
                0x9d0cb540       0x30 build/pic32mz_ef_sk/production/_ext/1470245908/drv_miim.o
                0x9d0cb540                Helper_SingleListTailAdd

.text.DRV_MIIM_Read
                0x9d0cb570       0x30
 .text.DRV_MIIM_Read
                0x9d0cb570       0x30 build/pic32mz_ef_sk/production/_ext/1470245908/drv_miim.o
                0x9d0cb570                DRV_MIIM_Read

.text.DRV_MIIM_Write
                0x9d0cb5a0       0x30
 .text.DRV_MIIM_Write
                0x9d0cb5a0       0x30 build/pic32mz_ef_sk/production/_ext/1470245908/drv_miim.o
                0x9d0cb5a0                DRV_MIIM_Write

.text.DRV_MIIM_Scan
                0x9d0cb5d0       0x30
 .text.DRV_MIIM_Scan
                0x9d0cb5d0       0x30 build/pic32mz_ef_sk/production/_ext/1470245908/drv_miim.o
                0x9d0cb5d0                DRV_MIIM_Scan

.rodata         0x9d0cb600       0x30
 .rodata        0x9d0cb600       0x30 build/pic32mz_ef_sk/production/_ext/184581597/drv_nvm.o
                0x9d0cb600                nvmMediaFunctions

.text.OSAL_SEM_Delete
                0x9d0cb630       0x30
 .text.OSAL_SEM_Delete
                0x9d0cb630       0x30 build/pic32mz_ef_sk/production/_ext/308321468/osal_freertos.o
                0x9d0cb630                OSAL_SEM_Delete

.text.OSAL_SEM_Post
                0x9d0cb660       0x30
 .text.OSAL_SEM_Post
                0x9d0cb660       0x30 build/pic32mz_ef_sk/production/_ext/308321468/osal_freertos.o
                0x9d0cb660                OSAL_SEM_Post

.text.OSAL_MUTEX_Unlock
                0x9d0cb690       0x30
 .text.OSAL_MUTEX_Unlock
                0x9d0cb690       0x30 build/pic32mz_ef_sk/production/_ext/308321468/osal_freertos.o
                0x9d0cb690                OSAL_MUTEX_Unlock

.text.SYS_CMDIO_GET_HANDLE
                0x9d0cb6c0       0x30
 .text.SYS_CMDIO_GET_HANDLE
                0x9d0cb6c0       0x30 build/pic32mz_ef_sk/production/_ext/1891376032/sys_command.o
                0x9d0cb6c0                SYS_CMDIO_GET_HANDLE

.text.popQueue  0x9d0cb6f0       0x30
 .text.popQueue
                0x9d0cb6f0       0x30 build/pic32mz_ef_sk/production/_ext/1434663852/sys_console_uart.o

.text.SYS_DEBUG_Initialize
                0x9d0cb720       0x30
 .text.SYS_DEBUG_Initialize
                0x9d0cb720       0x30 build/pic32mz_ef_sk/production/_ext/2137108136/sys_debug.o
                0x9d0cb720                SYS_DEBUG_Initialize

.rodata         0x9d0cb750       0x30
 .rodata        0x9d0cb750       0x30 build/pic32mz_ef_sk/production/_ext/1750042194/sys_fs_media_manager.o
                0x9d0cb760                gPartitionTypeOffset

.text._ICMPV6_AckPacket
                0x9d0cb780       0x30
 .text._ICMPV6_AckPacket
                0x9d0cb780       0x30 build/pic32mz_ef_sk/production/_ext/1164207549/icmpv6.o

.text._TCPIP_HEAP_FreeSize
                0x9d0cb7b0       0x30
 .text._TCPIP_HEAP_FreeSize
                0x9d0cb7b0       0x30 build/pic32mz_ef_sk/production/_ext/1164207549/tcpip_heap_internal.o

.text._DHCPSocketRxSignalHandler
                0x9d0cb7e0       0x30
 .text._DHCPSocketRxSignalHandler
                0x9d0cb7e0       0x30 build/pic32mz_ef_sk/production/_ext/1164207549/dhcp.o

.text.TCPIP_DHCP_IsActive
                0x9d0cb810       0x30
 .text.TCPIP_DHCP_IsActive
                0x9d0cb810       0x30 build/pic32mz_ef_sk/production/_ext/1164207549/dhcp.o
                0x9d0cb810                TCPIP_DHCP_IsActive

.text._DNSSocketRxSignalHandler
                0x9d0cb840       0x30
 .text._DNSSocketRxSignalHandler
                0x9d0cb840       0x30 build/pic32mz_ef_sk/production/_ext/1164207549/dns.o

.text._HTTPSocketRxSignalHandler
                0x9d0cb870       0x30
 .text._HTTPSocketRxSignalHandler
                0x9d0cb870       0x30 build/pic32mz_ef_sk/production/_ext/1164207549/http.o

.text.NBNSSocketRxSignalHandler
                0x9d0cb8a0       0x30
 .text.NBNSSocketRxSignalHandler
                0x9d0cb8a0       0x30 build/pic32mz_ef_sk/production/_ext/1164207549/nbns.o

.text._SMTPSocketRxSignalHandler
                0x9d0cb8d0       0x30
 .text._SMTPSocketRxSignalHandler
                0x9d0cb8d0       0x30 build/pic32mz_ef_sk/production/_ext/1164207549/smtp.o

.text.TCPIP_SMTP_StringPut
                0x9d0cb900       0x30
 .text.TCPIP_SMTP_StringPut
                0x9d0cb900       0x30 build/pic32mz_ef_sk/production/_ext/1164207549/smtp.o
                0x9d0cb900                TCPIP_SMTP_StringPut

.text.TCPIP_SNTP_SocketRxSignalHandler
                0x9d0cb930       0x30
 .text.TCPIP_SNTP_SocketRxSignalHandler
                0x9d0cb930       0x30 build/pic32mz_ef_sk/production/_ext/1164207549/sntp.o

.text._TCPIP_AnnounceSocketRxSignalHandler
                0x9d0cb960       0x30
 .text._TCPIP_AnnounceSocketRxSignalHandler
                0x9d0cb960       0x30 build/pic32mz_ef_sk/production/_ext/1164207549/tcpip_announce.o

.text.TCPIP_OAHASH_EntryRemove
                0x9d0cb990       0x30
 .text.TCPIP_OAHASH_EntryRemove
                0x9d0cb990       0x30 build/pic32mz_ef_sk/production/_ext/1164207549/oahash.o
                0x9d0cb990                TCPIP_OAHASH_EntryRemove

.text.TCPIP_Helper_SingleListTailAdd
                0x9d0cb9c0       0x30
 .text.TCPIP_Helper_SingleListTailAdd
                0x9d0cb9c0       0x30 build/pic32mz_ef_sk/production/_ext/1164207549/tcpip_helpers.o
                0x9d0cb9c0                TCPIP_Helper_SingleListTailAdd

.text.TCPIP_STACK_NetAddressGatewaySet
                0x9d0cb9f0       0x30
 .text.TCPIP_STACK_NetAddressGatewaySet
                0x9d0cb9f0       0x30 build/pic32mz_ef_sk/production/_ext/1164207549/tcpip_manager.o
                0x9d0cb9f0                TCPIP_STACK_NetAddressGatewaySet

.text.TCPIP_STACK_NetAddressGet
                0x9d0cba20       0x30
 .text.TCPIP_STACK_NetAddressGet
                0x9d0cba20       0x30 build/pic32mz_ef_sk/production/_ext/1164207549/tcpip_manager.o
                0x9d0cba20                TCPIP_STACK_NetAddressGet

.text.TCPIP_STACK_NetMaskGet
                0x9d0cba50       0x30
 .text.TCPIP_STACK_NetMaskGet
                0x9d0cba50       0x30 build/pic32mz_ef_sk/production/_ext/1164207549/tcpip_manager.o
                0x9d0cba50                TCPIP_STACK_NetMaskGet

.text.TCPIP_STACK_NetworkIsLinked
                0x9d0cba80       0x30
 .text.TCPIP_STACK_NetworkIsLinked
                0x9d0cba80       0x30 build/pic32mz_ef_sk/production/_ext/1164207549/tcpip_manager.o
                0x9d0cba80                TCPIP_STACK_NetworkIsLinked

.text.vListInsertEnd
                0x9d0cbab0       0x30
 .text.vListInsertEnd
                0x9d0cbab0       0x30 build/pic32mz_ef_sk/production/_ext/373060831/list.o
                0x9d0cbab0                vListInsertEnd

.text.TCPIP_ICMP_EchoRequestCancel
                0x9d0cbae0       0x30
 .text.TCPIP_ICMP_EchoRequestCancel
                0x9d0cbae0       0x30 build/pic32mz_ef_sk/production/_ext/1164207549/icmp.o
                0x9d0cbae0                TCPIP_ICMP_EchoRequestCancel

.text.free      0x9d0cbb10       0x30
 .text.free     0x9d0cbb10       0x30 c:/program files (x86)/microchip/xc32/v1.44/bin/bin/../../lib/gcc/pic32mx/4.8.3/../../../../pic32mx/lib/fpu64\libc.a(malloc.o)
                0x9d0cbb10                free

.text.SYS_INT_SourceRestore
                0x9d0cbb40       0x2c
 .text.SYS_INT_SourceRestore
                0x9d0cbb40       0x2c build/pic32mz_ef_sk/production/_ext/849053718/system_interrupt.o
                0x9d0cbb40                SYS_INT_SourceRestore

.text._NET_PRES_Tasks
                0x9d0cbb6c       0x2c
 .text._NET_PRES_Tasks
                0x9d0cbb6c       0x2c build/pic32mz_ef_sk/production/_ext/849053718/system_tasks.o
                0x9d0cbb6c                _NET_PRES_Tasks

.text.TCPIP_HTTP_Print_version
                0x9d0cbb98       0x2c
 .text.TCPIP_HTTP_Print_version
                0x9d0cbb98       0x2c build/pic32mz_ef_sk/production/_ext/1360937237/custom_http_app.o
                0x9d0cbb98                TCPIP_HTTP_Print_version

.text.TCPIP_HTTP_Print_drive
                0x9d0cbbc4       0x2c
 .text.TCPIP_HTTP_Print_drive
                0x9d0cbbc4       0x2c build/pic32mz_ef_sk/production/_ext/1360937237/custom_http_app.o
                0x9d0cbbc4                TCPIP_HTTP_Print_drive

.text.TCPIP_HTTP_Print_fstype
                0x9d0cbbf0       0x2c
 .text.TCPIP_HTTP_Print_fstype
                0x9d0cbbf0       0x2c build/pic32mz_ef_sk/production/_ext/1360937237/custom_http_app.o
                0x9d0cbbf0                TCPIP_HTTP_Print_fstype

.text.TCPIP_HTTP_Print_ddns_status
                0x9d0cbc1c       0x2c
 .text.TCPIP_HTTP_Print_ddns_status
                0x9d0cbc1c       0x2c build/pic32mz_ef_sk/production/_ext/1360937237/custom_http_app.o
                0x9d0cbc1c                TCPIP_HTTP_Print_ddns_status

.text.TCPIP_HTTP_Print_smtps_en
                0x9d0cbc48       0x2c
 .text.TCPIP_HTTP_Print_smtps_en
                0x9d0cbc48       0x2c build/pic32mz_ef_sk/production/_ext/1360937237/custom_http_app.o
                0x9d0cbc48                TCPIP_HTTP_Print_smtps_en

.text.TCPIP_HTTP_Print_snmp_en
                0x9d0cbc74       0x2c
 .text.TCPIP_HTTP_Print_snmp_en
                0x9d0cbc74       0x2c build/pic32mz_ef_sk/production/_ext/1360937237/custom_http_app.o
                0x9d0cbc74                TCPIP_HTTP_Print_snmp_en

.text.DRV_USART_BufferEventHandlerSet
                0x9d0cbca0       0x2c
 .text.DRV_USART_BufferEventHandlerSet
                0x9d0cbca0       0x2c build/pic32mz_ef_sk/production/_ext/821589181/drv_usart_buffer_queue.o
                0x9d0cbca0                DRV_USART_BufferEventHandlerSet

.text.TCPIP_IPV4_MaxDatagramDataSizeGet
                0x9d0cbccc       0x2c
 .text.TCPIP_IPV4_MaxDatagramDataSizeGet
                0x9d0cbccc       0x2c build/pic32mz_ef_sk/production/_ext/1164207549/ipv4.o
                0x9d0cbccc                TCPIP_IPV4_MaxDatagramDataSizeGet

.text._TCPIP_NDP_Cleanup
                0x9d0cbcf8       0x2c
 .text._TCPIP_NDP_Cleanup
                0x9d0cbcf8       0x2c build/pic32mz_ef_sk/production/_ext/1164207549/ndp.o

.text.TCPIP_IPV6_HopLimitSet
                0x9d0cbd24       0x2c
 .text.TCPIP_IPV6_HopLimitSet
                0x9d0cbd24       0x2c build/pic32mz_ef_sk/production/_ext/1164207549/ipv6.o
                0x9d0cbd24                TCPIP_IPV6_HopLimitSet

.rodata         0x9d0cbd50       0x2c
 .rodata        0x9d0cbd50       0x2c build/pic32mz_ef_sk/production/_ext/1164207549/tcpip_announce.o

.text.TCPIP_OAHASH_EntryGet
                0x9d0cbd7c       0x2c
 .text.TCPIP_OAHASH_EntryGet
                0x9d0cbd7c       0x2c build/pic32mz_ef_sk/production/_ext/1164207549/oahash.o
                0x9d0cbd7c                TCPIP_OAHASH_EntryGet

.text.TCPIP_Helper_TCPSecurePortGet
                0x9d0cbda8       0x2c
 .text.TCPIP_Helper_TCPSecurePortGet
                0x9d0cbda8       0x2c build/pic32mz_ef_sk/production/_ext/1164207549/tcpip_helpers.o
                0x9d0cbda8                TCPIP_Helper_TCPSecurePortGet

.text.TCPIP_Helper_UDPSecurePortGet
                0x9d0cbdd4       0x2c
 .text.TCPIP_Helper_UDPSecurePortGet
                0x9d0cbdd4       0x2c build/pic32mz_ef_sk/production/_ext/1164207549/tcpip_helpers.o
                0x9d0cbdd4                TCPIP_Helper_UDPSecurePortGet

.text.TCPIP_STACK_NetDefaultSet
                0x9d0cbe00       0x2c
 .text.TCPIP_STACK_NetDefaultSet
                0x9d0cbe00       0x2c build/pic32mz_ef_sk/production/_ext/1164207549/tcpip_manager.o
                0x9d0cbe00                TCPIP_STACK_NetDefaultSet

.text.TCPIP_STACK_NetNameGet
                0x9d0cbe2c       0x2c
 .text.TCPIP_STACK_NetNameGet
                0x9d0cbe2c       0x2c build/pic32mz_ef_sk/production/_ext/1164207549/tcpip_manager.o
                0x9d0cbe2c                TCPIP_STACK_NetNameGet

.text.TCPIP_STACK_NetAddressDnsPrimarySet
                0x9d0cbe58       0x2c
 .text.TCPIP_STACK_NetAddressDnsPrimarySet
                0x9d0cbe58       0x2c build/pic32mz_ef_sk/production/_ext/1164207549/tcpip_manager.o
                0x9d0cbe58                TCPIP_STACK_NetAddressDnsPrimarySet

.text.TCPIP_Notification_Deinitialize
                0x9d0cbe84       0x2c
 .text.TCPIP_Notification_Deinitialize
                0x9d0cbe84       0x2c build/pic32mz_ef_sk/production/_ext/1164207549/tcpip_notify.o
                0x9d0cbe84                TCPIP_Notification_Deinitialize

.text.strchr    0x9d0cbeb0       0x2c
 .text.strchr   0x9d0cbeb0       0x2c c:/program files (x86)/microchip/xc32/v1.44/bin/bin/../../lib/gcc/pic32mx/4.8.3/../../../../pic32mx/lib/fpu64\libc.a(strchr.o)
                0x9d0cbeb0                strchr

.text._fprintf_cdnopsuxX
                0x9d0cbedc       0x2c
 .text._fprintf_cdnopsuxX
                0x9d0cbedc       0x2c c:/program files (x86)/microchip/xc32/v1.44/bin/bin/../../lib/gcc/pic32mx/4.8.3/../../../../pic32mx/lib/fpu64\libc.a(fprintf_cdnopsuxX.eo)
                0x9d0cbedc                _fprintf_cdnopsuxX

.text._stub_sbd_memlayout
                0x9d0cbf08       0x2c
 .text._stub_sbd_memlayout
                0x9d0cbf08       0x2c c:/program files (x86)/microchip/xc32/v1.44/bin/bin/../../lib/gcc/pic32mx/4.8.3/../../../../pic32mx/lib/fpu64\libpic32.a(sbrk.o)
                0x9d0cbf08                _sbd_memlayout
                0x9d0cbf08                _stub_sbd_memlayout

.text.TCPIP_HTTP_Print_myVariable
                0x9d0cbf34       0x28
 .text.TCPIP_HTTP_Print_myVariable
                0x9d0cbf34       0x28 build/pic32mz_ef_sk/production/_ext/1360937237/http_print.o
                0x9d0cbf34                TCPIP_HTTP_Print_myVariable

.text.DRV_MIIM_ClientStatus
                0x9d0cbf5c       0x28
 .text.DRV_MIIM_ClientStatus
                0x9d0cbf5c       0x28 build/pic32mz_ef_sk/production/_ext/1470245908/drv_miim.o
                0x9d0cbf5c                DRV_MIIM_ClientStatus

.text.DRV_NVM_GeometryGet
                0x9d0cbf84       0x28
 .text.DRV_NVM_GeometryGet
                0x9d0cbf84       0x28 build/pic32mz_ef_sk/production/_ext/184581597/drv_nvm.o
                0x9d0cbf84                DRV_NVM_GeometryGet

.text._DRV_USART_DriverHandleValidate
                0x9d0cbfac       0x28
 .text._DRV_USART_DriverHandleValidate
                0x9d0cbfac       0x28 build/pic32mz_ef_sk/production/_ext/821589181/drv_usart.o
                0x9d0cbfac                _DRV_USART_DriverHandleValidate

.text.Console_UART_RegisterCallback
                0x9d0cbfd4       0x28
 .text.Console_UART_RegisterCallback
                0x9d0cbfd4       0x28 build/pic32mz_ef_sk/production/_ext/1434663852/sys_console_uart.o
                0x9d0cbfd4                Console_UART_RegisterCallback

.text._SYS_FS_MEDIA_MANAGER_HandleMediaDetach
                0x9d0cbffc       0x28
 .text._SYS_FS_MEDIA_MANAGER_HandleMediaDetach
                0x9d0cbffc       0x28 build/pic32mz_ef_sk/production/_ext/1750042194/sys_fs_media_manager.o

.text.SYS_TMR_TickCountGet
                0x9d0cc024       0x28
 .text.SYS_TMR_TickCountGet
                0x9d0cc024       0x28 build/pic32mz_ef_sk/production/_ext/2110151058/sys_tmr.o
                0x9d0cc024                SYS_TMR_TickCountGet

.text.TCPIP_IPV6_DataSegmentContentsGetByType
                0x9d0cc04c       0x28
 .text.TCPIP_IPV6_DataSegmentContentsGetByType
                0x9d0cc04c       0x28 build/pic32mz_ef_sk/production/_ext/1164207549/ipv6.o
                0x9d0cc04c                TCPIP_IPV6_DataSegmentContentsGetByType

.text.TCPIP_IPV6_SetRemoteMacAddress
                0x9d0cc074       0x28
 .text.TCPIP_IPV6_SetRemoteMacAddress
                0x9d0cc074       0x28 build/pic32mz_ef_sk/production/_ext/1164207549/ipv6.o
                0x9d0cc074                TCPIP_IPV6_SetRemoteMacAddress

.text.TCPIP_TCP_SocketNetGet
                0x9d0cc09c       0x28
 .text.TCPIP_TCP_SocketNetGet
                0x9d0cc09c       0x28 build/pic32mz_ef_sk/production/_ext/1164207549/tcp.o
                0x9d0cc09c                TCPIP_TCP_SocketNetGet

.text._TCPIP_HEAP_Size
                0x9d0cc0c4       0x28
 .text._TCPIP_HEAP_Size
                0x9d0cc0c4       0x28 build/pic32mz_ef_sk/production/_ext/1164207549/tcpip_heap_internal.o

.text._TCPIP_HEAP_LastError
                0x9d0cc0ec       0x28
 .text._TCPIP_HEAP_LastError
                0x9d0cc0ec       0x28 build/pic32mz_ef_sk/production/_ext/1164207549/tcpip_heap_internal.o

.text.TCPIP_SNTP_Event
                0x9d0cc114       0x28
 .text.TCPIP_SNTP_Event
                0x9d0cc114       0x28 build/pic32mz_ef_sk/production/_ext/1164207549/sntp.o

.text._FieldSetTruncated
                0x9d0cc13c       0x28
 .text._FieldSetTruncated
                0x9d0cc13c       0x28 build/pic32mz_ef_sk/production/_ext/1164207549/tcpip_announce.o
                0x9d0cc13c                _FieldSetTruncated

.text.TCPIP_Helper_PowerModeToString
                0x9d0cc164       0x28
 .text.TCPIP_Helper_PowerModeToString
                0x9d0cc164       0x28 build/pic32mz_ef_sk/production/_ext/1164207549/tcpip_helpers.o
                0x9d0cc164                TCPIP_Helper_PowerModeToString

.text.TCPIP_Helper_SingleListHeadAdd
                0x9d0cc18c       0x28
 .text.TCPIP_Helper_SingleListHeadAdd
                0x9d0cc18c       0x28 build/pic32mz_ef_sk/production/_ext/1164207549/tcpip_helpers.o
                0x9d0cc18c                TCPIP_Helper_SingleListHeadAdd

.text.TCPIP_Helper_DoubleListMidAdd
                0x9d0cc1b4       0x28
 .text.TCPIP_Helper_DoubleListMidAdd
                0x9d0cc1b4       0x28 build/pic32mz_ef_sk/production/_ext/1164207549/tcpip_helpers.o
                0x9d0cc1b4                TCPIP_Helper_DoubleListMidAdd

.text.TCPIP_Helper_DoubleListMidRemove
                0x9d0cc1dc       0x28
 .text.TCPIP_Helper_DoubleListMidRemove
                0x9d0cc1dc       0x28 build/pic32mz_ef_sk/production/_ext/1164207549/tcpip_helpers.o
                0x9d0cc1dc                TCPIP_Helper_DoubleListMidRemove

.text.TCPIP_STACK_NetAddressGateway
                0x9d0cc204       0x28
 .text.TCPIP_STACK_NetAddressGateway
                0x9d0cc204       0x28 build/pic32mz_ef_sk/production/_ext/1164207549/tcpip_manager.o
                0x9d0cc204                TCPIP_STACK_NetAddressGateway

.text.TCPIP_STACK_NetAddressDnsPrimary
                0x9d0cc22c       0x28
 .text.TCPIP_STACK_NetAddressDnsPrimary
                0x9d0cc22c       0x28 build/pic32mz_ef_sk/production/_ext/1164207549/tcpip_manager.o
                0x9d0cc22c                TCPIP_STACK_NetAddressDnsPrimary

.text.TCPIP_STACK_NetAddressDnsSecond
                0x9d0cc254       0x28
 .text.TCPIP_STACK_NetAddressDnsSecond
                0x9d0cc254       0x28 build/pic32mz_ef_sk/production/_ext/1164207549/tcpip_manager.o
                0x9d0cc254                TCPIP_STACK_NetAddressDnsSecond

.text.TCPIP_STACK_NetMACAddressGet
                0x9d0cc27c       0x28
 .text.TCPIP_STACK_NetMACAddressGet
                0x9d0cc27c       0x28 build/pic32mz_ef_sk/production/_ext/1164207549/tcpip_manager.o
                0x9d0cc27c                TCPIP_STACK_NetMACAddressGet

.text._TCPIPStackSignalHandlerDeregister
                0x9d0cc2a4       0x28
 .text._TCPIPStackSignalHandlerDeregister
                0x9d0cc2a4       0x28 build/pic32mz_ef_sk/production/_ext/1164207549/tcpip_manager.o
                0x9d0cc2a4                _TCPIPStackSignalHandlerDeregister

.text.pvTaskIncrementMutexHeldCount
                0x9d0cc2cc       0x28
 .text.pvTaskIncrementMutexHeldCount
                0x9d0cc2cc       0x28 build/pic32mz_ef_sk/production/_ext/373060831/tasks.o
                0x9d0cc2cc                pvTaskIncrementMutexHeldCount

.text._snprintf_cdnopsuxX
                0x9d0cc2f4       0x28
 .text._snprintf_cdnopsuxX
                0x9d0cc2f4       0x28 c:/program files (x86)/microchip/xc32/v1.44/bin/bin/../../lib/gcc/pic32mx/4.8.3/../../../../pic32mx/lib/fpu64\libc.a(snprintf_cdnopsuxX.eo)
                0x9d0cc2f4                _snprintf_cdnopsuxX

.text.vApplicationStackOverflowHook
                0x9d0cc31c       0x24
 .text.vApplicationStackOverflowHook
                0x9d0cc31c       0x24 build/pic32mz_ef_sk/production/_ext/849053718/rtos_hooks.o
                0x9d0cc31c                vApplicationStackOverflowHook

.text.vApplicationMallocFailedHook
                0x9d0cc340       0x24
 .text.vApplicationMallocFailedHook
                0x9d0cc340       0x24 build/pic32mz_ef_sk/production/_ext/849053718/rtos_hooks.o
                0x9d0cc340                vApplicationMallocFailedHook

.text.DRV_ETHMAC_PIC32MACClose
                0x9d0cc364       0x24
 .text.DRV_ETHMAC_PIC32MACClose
                0x9d0cc364       0x24 build/pic32mz_ef_sk/production/_ext/1697634946/drv_ethmac.o
                0x9d0cc364                DRV_ETHMAC_PIC32MACClose

.text.SYS_TMR_TickCounterFrequencyGet
                0x9d0cc388       0x24
 .text.SYS_TMR_TickCounterFrequencyGet
                0x9d0cc388       0x24 build/pic32mz_ef_sk/production/_ext/2110151058/sys_tmr.o
                0x9d0cc388                SYS_TMR_TickCounterFrequencyGet

.text.SYS_TMR_SystemCountFrequencyGet
                0x9d0cc3ac       0x24
 .text.SYS_TMR_SystemCountFrequencyGet
                0x9d0cc3ac       0x24 build/pic32mz_ef_sk/production/_ext/2110151058/sys_tmr.o
                0x9d0cc3ac                SYS_TMR_SystemCountFrequencyGet

.text.TCPIP_TCP_Put
                0x9d0cc3d0       0x24
 .text.TCPIP_TCP_Put
                0x9d0cc3d0       0x24 build/pic32mz_ef_sk/production/_ext/1164207549/tcp.o
                0x9d0cc3d0                TCPIP_TCP_Put

.text._DHCPOptionWriteEnd
                0x9d0cc3f4       0x24
 .text._DHCPOptionWriteEnd
                0x9d0cc3f4       0x24 build/pic32mz_ef_sk/production/_ext/1164207549/dhcp.o

.text.TCPIP_ZCLL_IsEnabled
                0x9d0cc418       0x24
 .text.TCPIP_ZCLL_IsEnabled
                0x9d0cc418       0x24 build/pic32mz_ef_sk/production/_ext/1164207549/zero_conf_link_local.o
                0x9d0cc418                TCPIP_ZCLL_IsEnabled

.text.TCPIP_STACK_HeapHandleGet
                0x9d0cc43c       0x24
 .text.TCPIP_STACK_HeapHandleGet
                0x9d0cc43c       0x24 build/pic32mz_ef_sk/production/_ext/1164207549/tcpip_manager.o
                0x9d0cc43c                TCPIP_STACK_HeapHandleGet

.text.prvTaskExitError
                0x9d0cc460       0x24
 .text.prvTaskExitError
                0x9d0cc460       0x24 build/pic32mz_ef_sk/production/_ext/1282498061/port.o

.text.tolower   0x9d0cc484       0x24
 .text.tolower  0x9d0cc484       0x24 c:/program files (x86)/microchip/xc32/v1.44/bin/bin/../../lib/gcc/pic32mx/4.8.3/../../../../pic32mx/lib/fpu64\libc.a(ctypef.o)
                0x9d0cc484                tolower

.text.toupper   0x9d0cc4a8       0x24
 .text.toupper  0x9d0cc4a8       0x24 c:/program files (x86)/microchip/xc32/v1.44/bin/bin/../../lib/gcc/pic32mx/4.8.3/../../../../pic32mx/lib/fpu64\libc.a(ctypef.o)
                0x9d0cc4a8                toupper

.text.IntHandlerDrvUsartTransmitInstance0
                0x9d0cc4cc       0x20
 .text.IntHandlerDrvUsartTransmitInstance0
                0x9d0cc4cc       0x20 build/pic32mz_ef_sk/production/_ext/849053718/system_interrupt.o
                0x9d0cc4cc                IntHandlerDrvUsartTransmitInstance0

.text.IntHandlerDrvUsartReceiveInstance0
                0x9d0cc4ec       0x20
 .text.IntHandlerDrvUsartReceiveInstance0
                0x9d0cc4ec       0x20 build/pic32mz_ef_sk/production/_ext/849053718/system_interrupt.o
                0x9d0cc4ec                IntHandlerDrvUsartReceiveInstance0

.text.IntHandlerDrvUsartErrorInstance0
                0x9d0cc50c       0x20
 .text.IntHandlerDrvUsartErrorInstance0
                0x9d0cc50c       0x20 build/pic32mz_ef_sk/production/_ext/849053718/system_interrupt.o
                0x9d0cc50c                IntHandlerDrvUsartErrorInstance0

.text.IntHandlerDrvTmrInstance0
                0x9d0cc52c       0x20
 .text.IntHandlerDrvTmrInstance0
                0x9d0cc52c       0x20 build/pic32mz_ef_sk/production/_ext/849053718/system_interrupt.o
                0x9d0cc52c                IntHandlerDrvTmrInstance0

.text.IntHandlerDrvNvm
                0x9d0cc54c       0x20
 .text.IntHandlerDrvNvm
                0x9d0cc54c       0x20 build/pic32mz_ef_sk/production/_ext/849053718/system_interrupt.o
                0x9d0cc54c                IntHandlerDrvNvm

.text._WS_SERVER_Tasks
                0x9d0cc56c       0x20
 .text._WS_SERVER_Tasks
                0x9d0cc56c       0x20 build/pic32mz_ef_sk/production/_ext/849053718/system_tasks.o

.text._APP_Tasks
                0x9d0cc58c       0x20
 .text._APP_Tasks
                0x9d0cc58c       0x20 build/pic32mz_ef_sk/production/_ext/849053718/system_tasks.o

.text.main      0x9d0cc5ac       0x20
 .text.main     0x9d0cc5ac       0x20 build/pic32mz_ef_sk/production/_ext/1360937237/main.o
                0x9d0cc5ac                main

.text.WS_SERVER_Initialize
                0x9d0cc5cc       0x20
 .text.WS_SERVER_Initialize
                0x9d0cc5cc       0x20 build/pic32mz_ef_sk/production/_ext/1360937237/ws_server.o
                0x9d0cc5cc                WS_SERVER_Initialize

.rodata         0x9d0cc5ec       0x20
 .rodata        0x9d0cc5ec       0x20 build/pic32mz_ef_sk/production/_ext/1360937237/http_print.o

.text.DRV_ETHMAC_PIC32MACStatus
                0x9d0cc60c       0x20
 .text.DRV_ETHMAC_PIC32MACStatus
                0x9d0cc60c       0x20 build/pic32mz_ef_sk/production/_ext/1697634946/drv_ethmac.o
                0x9d0cc60c                DRV_ETHMAC_PIC32MACStatus

.text.DRV_NVM_IsAttached
                0x9d0cc62c       0x20
 .text.DRV_NVM_IsAttached
                0x9d0cc62c       0x20 build/pic32mz_ef_sk/production/_ext/184581597/drv_nvm.o
                0x9d0cc62c                DRV_NVM_IsAttached

.text.SYS_CMD_MESSAGE
                0x9d0cc64c       0x20
 .text.SYS_CMD_MESSAGE
                0x9d0cc64c       0x20 build/pic32mz_ef_sk/production/_ext/1891376032/sys_command.o
                0x9d0cc64c                SYS_CMD_MESSAGE

.text.SYS_INT_Disable
                0x9d0cc66c       0x20
 .text.SYS_INT_Disable
                0x9d0cc66c       0x20 build/pic32mz_ef_sk/production/_ext/1042686532/sys_int_pic32.o
                0x9d0cc66c                SYS_INT_Disable

.text.TCPIP_IPV6_MacPacketTxAck
                0x9d0cc68c       0x20
 .text.TCPIP_IPV6_MacPacketTxAck
                0x9d0cc68c       0x20 build/pic32mz_ef_sk/production/_ext/1164207549/ipv6.o

.text.TCPIP_IPV6_ArrayGet
                0x9d0cc6ac       0x20
 .text.TCPIP_IPV6_ArrayGet
                0x9d0cc6ac       0x20 build/pic32mz_ef_sk/production/_ext/1164207549/ipv6.o
                0x9d0cc6ac                TCPIP_IPV6_ArrayGet

.text.TCPIP_IPV6_Get
                0x9d0cc6cc       0x20
 .text.TCPIP_IPV6_Get
                0x9d0cc6cc       0x20 build/pic32mz_ef_sk/production/_ext/1164207549/ipv6.o
                0x9d0cc6cc                TCPIP_IPV6_Get

.text.TCPIP_ICMPV6_Flush
                0x9d0cc6ec       0x20
 .text.TCPIP_ICMPV6_Flush
                0x9d0cc6ec       0x20 build/pic32mz_ef_sk/production/_ext/1164207549/icmpv6.o
                0x9d0cc6ec                TCPIP_ICMPV6_Flush

.text.TCPIP_HEAP_MallocOutline
                0x9d0cc70c       0x20
 .text.TCPIP_HEAP_MallocOutline
                0x9d0cc70c       0x20 build/pic32mz_ef_sk/production/_ext/1164207549/tcpip_heap_alloc.o
                0x9d0cc70c                TCPIP_HEAP_MallocOutline

.text.TCPIP_HEAP_CallocOutline
                0x9d0cc72c       0x20
 .text.TCPIP_HEAP_CallocOutline
                0x9d0cc72c       0x20 build/pic32mz_ef_sk/production/_ext/1164207549/tcpip_heap_alloc.o
                0x9d0cc72c                TCPIP_HEAP_CallocOutline

.text.TCPIP_HEAP_FreeOutline
                0x9d0cc74c       0x20
 .text.TCPIP_HEAP_FreeOutline
                0x9d0cc74c       0x20 build/pic32mz_ef_sk/production/_ext/1164207549/tcpip_heap_alloc.o
                0x9d0cc74c                TCPIP_HEAP_FreeOutline

.rodata         0x9d0cc76c       0x20
 .rodata        0x9d0cc76c       0x20 build/pic32mz_ef_sk/production/_ext/1164207549/arp.o

.text.TCPIP_DNS_OAHASH_KeyCompare
                0x9d0cc78c       0x20
 .text.TCPIP_DNS_OAHASH_KeyCompare
                0x9d0cc78c       0x20 build/pic32mz_ef_sk/production/_ext/1164207549/dns.o

.text.TCPIP_DNS_GetIPv4Addresses
                0x9d0cc7ac       0x20
 .text.TCPIP_DNS_GetIPv4Addresses
                0x9d0cc7ac       0x20 build/pic32mz_ef_sk/production/_ext/1164207549/dns.o
                0x9d0cc7ac                TCPIP_DNS_GetIPv4Addresses

.text.TCPIP_DNS_GetIPv6Addresses
                0x9d0cc7cc       0x20
 .text.TCPIP_DNS_GetIPv6Addresses
                0x9d0cc7cc       0x20 build/pic32mz_ef_sk/production/_ext/1164207549/dns.o
                0x9d0cc7cc                TCPIP_DNS_GetIPv6Addresses

.text.TCPIP_DNS_Enable
                0x9d0cc7ec       0x20
 .text.TCPIP_DNS_Enable
                0x9d0cc7ec       0x20 build/pic32mz_ef_sk/production/_ext/1164207549/dns.o
                0x9d0cc7ec                TCPIP_DNS_Enable

.text.TCPIP_STACK_Status
                0x9d0cc80c       0x20
 .text.TCPIP_STACK_Status
                0x9d0cc80c       0x20 build/pic32mz_ef_sk/production/_ext/1164207549/tcpip_manager.o
                0x9d0cc80c                TCPIP_STACK_Status

.text.TCPIP_STACK_NetIsUp
                0x9d0cc82c       0x20
 .text.TCPIP_STACK_NetIsUp
                0x9d0cc82c       0x20 build/pic32mz_ef_sk/production/_ext/1164207549/tcpip_manager.o
                0x9d0cc82c                TCPIP_STACK_NetIsUp

.text.TCPIP_STACK_AddressServiceCanStart
                0x9d0cc84c       0x20
 .text.TCPIP_STACK_AddressServiceCanStart
                0x9d0cc84c       0x20 build/pic32mz_ef_sk/production/_ext/1164207549/tcpip_manager.o
                0x9d0cc84c                TCPIP_STACK_AddressServiceCanStart

.rodata         0x9d0cc86c       0x20
 .rodata        0x9d0cc86c       0x20 build/pic32mz_ef_sk/production/_ext/1164207549/tcpip_packet.o

.text.vListInitialise
                0x9d0cc88c       0x20
 .text.vListInitialise
                0x9d0cc88c       0x20 build/pic32mz_ef_sk/production/_ext/373060831/list.o
                0x9d0cc88c                vListInitialise

.text._ICMPTxPktAcknowledge
                0x9d0cc8ac       0x20
 .text._ICMPTxPktAcknowledge
                0x9d0cc8ac       0x20 build/pic32mz_ef_sk/production/_ext/1164207549/icmp.o

.text.IntHandler_ETHMAC
                0x9d0cc8cc       0x1c
 .text.IntHandler_ETHMAC
                0x9d0cc8cc       0x1c build/pic32mz_ef_sk/production/_ext/849053718/system_interrupt.o
                0x9d0cc8cc                IntHandler_ETHMAC

.text.DRV_ETHPHY_Deinitialize
                0x9d0cc8e8       0x1c
 .text.DRV_ETHPHY_Deinitialize
                0x9d0cc8e8       0x1c build/pic32mz_ef_sk/production/_ext/521481140/drv_ethphy.o
                0x9d0cc8e8                DRV_ETHPHY_Deinitialize

.text.DRV_ETHPHY_VendorDataSet
                0x9d0cc904       0x1c
 .text.DRV_ETHPHY_VendorDataSet
                0x9d0cc904       0x1c build/pic32mz_ef_sk/production/_ext/521481140/drv_ethphy.o
                0x9d0cc904                DRV_ETHPHY_VendorDataSet

.text._DRV_ETHPHY_ClientOpSmiScan
                0x9d0cc920       0x1c
 .text._DRV_ETHPHY_ClientOpSmiScan
                0x9d0cc920       0x1c build/pic32mz_ef_sk/production/_ext/521481140/drv_ethphy.o

.rodata         0x9d0cc93c       0x1c
 .rodata        0x9d0cc93c       0x1c build/pic32mz_ef_sk/production/_ext/941160041/drv_tmr.o

.text.SYS_FS_Tasks
                0x9d0cc958       0x1c
 .text.SYS_FS_Tasks
                0x9d0cc958       0x1c build/pic32mz_ef_sk/production/_ext/1750042194/sys_fs.o
                0x9d0cc958                SYS_FS_Tasks

.text.SYS_RANDOM_PseudoGet
                0x9d0cc974       0x1c
 .text.SYS_RANDOM_PseudoGet
                0x9d0cc974       0x1c build/pic32mz_ef_sk/production/_ext/470001640/sys_random.o
                0x9d0cc974                SYS_RANDOM_PseudoGet

.text.SYS_TMR_CallbackStop
                0x9d0cc990       0x1c
 .text.SYS_TMR_CallbackStop
                0x9d0cc990       0x1c build/pic32mz_ef_sk/production/_ext/2110151058/sys_tmr.o
                0x9d0cc990                SYS_TMR_CallbackStop

.text.SYS_TMR_CallbackPeriodic
                0x9d0cc9ac       0x1c
 .text.SYS_TMR_CallbackPeriodic
                0x9d0cc9ac       0x1c build/pic32mz_ef_sk/production/_ext/2110151058/sys_tmr.o
                0x9d0cc9ac                SYS_TMR_CallbackPeriodic

.text.btohexa_high
                0x9d0cc9c8       0x1c
 .text.btohexa_high
                0x9d0cc9c8       0x1c build/pic32mz_ef_sk/production/_ext/1886247299/helpers.o
                0x9d0cc9c8                btohexa_high

.text.btohexa_low
                0x9d0cc9e4       0x1c
 .text.btohexa_low
                0x9d0cc9e4       0x1c build/pic32mz_ef_sk/production/_ext/1886247299/helpers.o
                0x9d0cc9e4                btohexa_low

.text.TCPIP_IPV6_PacketIPProtocolSet
                0x9d0cca00       0x1c
 .text.TCPIP_IPV6_PacketIPProtocolSet
                0x9d0cca00       0x1c build/pic32mz_ef_sk/production/_ext/1164207549/ipv6.o
                0x9d0cca00                TCPIP_IPV6_PacketIPProtocolSet

.text.TCPIP_IPV6_RxBufferSet
                0x9d0cca1c       0x1c
 .text.TCPIP_IPV6_RxBufferSet
                0x9d0cca1c       0x1c build/pic32mz_ef_sk/production/_ext/1164207549/ipv6.o
                0x9d0cca1c                TCPIP_IPV6_RxBufferSet

.text.TCPIP_IPV6_UpperLayerHeaderPtrGet
                0x9d0cca38       0x1c
 .text.TCPIP_IPV6_UpperLayerHeaderPtrGet
                0x9d0cca38       0x1c build/pic32mz_ef_sk/production/_ext/1164207549/ipv6.o
                0x9d0cca38                TCPIP_IPV6_UpperLayerHeaderPtrGet

.text.TCPIP_TCP_Get
                0x9d0cca54       0x1c
 .text.TCPIP_TCP_Get
                0x9d0cca54       0x1c build/pic32mz_ef_sk/production/_ext/1164207549/tcp.o
                0x9d0cca54                TCPIP_TCP_Get

.text.TCPIP_UDP_ServerOpen
                0x9d0cca70       0x1c
 .text.TCPIP_UDP_ServerOpen
                0x9d0cca70       0x1c build/pic32mz_ef_sk/production/_ext/1164207549/udp.o
                0x9d0cca70                TCPIP_UDP_ServerOpen

.text.TCPIP_UDP_ClientOpen
                0x9d0cca8c       0x1c
 .text.TCPIP_UDP_ClientOpen
                0x9d0cca8c       0x1c build/pic32mz_ef_sk/production/_ext/1164207549/udp.o
                0x9d0cca8c                TCPIP_UDP_ClientOpen

.text.TCPIP_UDP_TxPutIsReady
                0x9d0ccaa8       0x1c
 .text.TCPIP_UDP_TxPutIsReady
                0x9d0ccaa8       0x1c build/pic32mz_ef_sk/production/_ext/1164207549/udp.o
                0x9d0ccaa8                TCPIP_UDP_TxPutIsReady

.text.TCPIP_UDP_Get
                0x9d0ccac4       0x1c
 .text.TCPIP_UDP_Get
                0x9d0ccac4       0x1c build/pic32mz_ef_sk/production/_ext/1164207549/udp.o
                0x9d0ccac4                TCPIP_UDP_Get

.text.TCPIP_DNS_Resolve
                0x9d0ccae0       0x1c
 .text.TCPIP_DNS_Resolve
                0x9d0ccae0       0x1c build/pic32mz_ef_sk/production/_ext/1164207549/dns.o
                0x9d0ccae0                TCPIP_DNS_Resolve

.text.TCPIP_DNS_IsNameResolved
                0x9d0ccafc       0x1c
 .text.TCPIP_DNS_IsNameResolved
                0x9d0ccafc       0x1c build/pic32mz_ef_sk/production/_ext/1164207549/dns.o
                0x9d0ccafc                TCPIP_DNS_IsNameResolved

.text.TCPIP_SMTP_Flush
                0x9d0ccb18       0x1c
 .text.TCPIP_SMTP_Flush
                0x9d0ccb18       0x1c build/pic32mz_ef_sk/production/_ext/1164207549/smtp.o
                0x9d0ccb18                TCPIP_SMTP_Flush

.text._Command_ZcllOnOff
                0x9d0ccb34       0x1c
 .text._Command_ZcllOnOff
                0x9d0ccb34       0x1c build/pic32mz_ef_sk/production/_ext/1164207549/tcpip_commands.o

.text._Command_DHCPSOnOff
                0x9d0ccb50       0x1c
 .text._Command_DHCPSOnOff
                0x9d0ccb50       0x1c build/pic32mz_ef_sk/production/_ext/1164207549/tcpip_commands.o

.text.TCPIP_Helper_ChecksumFold
                0x9d0ccb6c       0x1c
 .text.TCPIP_Helper_ChecksumFold
                0x9d0ccb6c       0x1c build/pic32mz_ef_sk/production/_ext/1164207549/tcpip_helpers.o
                0x9d0ccb6c                TCPIP_Helper_ChecksumFold

.text.TCPIP_STACK_NetDefaultIPv6GatewayGet
                0x9d0ccb88       0x1c
 .text.TCPIP_STACK_NetDefaultIPv6GatewayGet
                0x9d0ccb88       0x1c build/pic32mz_ef_sk/production/_ext/1164207549/tcpip_manager.o
                0x9d0ccb88                TCPIP_STACK_NetDefaultIPv6GatewayGet

.text.TCPIP_Notification_Initialize
                0x9d0ccba4       0x1c
 .text.TCPIP_Notification_Initialize
                0x9d0ccba4       0x1c build/pic32mz_ef_sk/production/_ext/1164207549/tcpip_notify.o
                0x9d0ccba4                TCPIP_Notification_Initialize

.text.vPortClearInterruptMaskFromISR
                0x9d0ccbc0       0x1c
 .text.vPortClearInterruptMaskFromISR
                0x9d0ccbc0       0x1c build/pic32mz_ef_sk/production/_ext/1282498061/port.o
                0x9d0ccbc0                vPortClearInterruptMaskFromISR

.text.vQueueDelete
                0x9d0ccbdc       0x1c
 .text.vQueueDelete
                0x9d0ccbdc       0x1c build/pic32mz_ef_sk/production/_ext/373060831/queue.o
                0x9d0ccbdc                vQueueDelete

.text.nullHandshake
                0x9d0ccbf8       0x1c
 .text.nullHandshake
                0x9d0ccbf8       0x1c build/pic32mz_ef_sk/production/_ext/1360937237/websocket.o
                0x9d0ccbf8                nullHandshake

.text.srand     0x9d0ccc14       0x1c
 .text.srand    0x9d0ccc14       0x1c c:/program files (x86)/microchip/xc32/v1.44/bin/bin/../../lib/gcc/pic32mx/4.8.3/../../../../pic32mx/lib/fpu64\libc.a(rand.o)
                0x9d0ccc14                srand

.text.SYS_DEVCON_JTAGEnable
                0x9d0ccc30       0x18
 .text.SYS_DEVCON_JTAGEnable
                0x9d0ccc30       0x18 build/pic32mz_ef_sk/production/_ext/1868830280/sys_devcon.o
                0x9d0ccc30                SYS_DEVCON_JTAGEnable

.text._STREAMER_Tasks
                0x9d0ccc48       0x18
 .text._STREAMER_Tasks
                0x9d0ccc48       0x18 build/pic32mz_ef_sk/production/_ext/849053718/system_tasks.o

.text.DRV_ETHPHY_Status
                0x9d0ccc60       0x18
 .text.DRV_ETHPHY_Status
                0x9d0ccc60       0x18 build/pic32mz_ef_sk/production/_ext/521481140/drv_ethphy.o
                0x9d0ccc60                DRV_ETHPHY_Status

.text.DRV_ETHPHY_ClientStatus
                0x9d0ccc78       0x18
 .text.DRV_ETHPHY_ClientStatus
                0x9d0ccc78       0x18 build/pic32mz_ef_sk/production/_ext/521481140/drv_ethphy.o
                0x9d0ccc78                DRV_ETHPHY_ClientStatus

.text.DRV_ETHPHY_ClientOperationResult
                0x9d0ccc90       0x18
 .text.DRV_ETHPHY_ClientOperationResult
                0x9d0ccc90       0x18 build/pic32mz_ef_sk/production/_ext/521481140/drv_ethphy.o
                0x9d0ccc90                DRV_ETHPHY_ClientOperationResult

.text.SYS_TMR_ModuleStatusGet
                0x9d0ccca8       0x18
 .text.SYS_TMR_ModuleStatusGet
                0x9d0ccca8       0x18 build/pic32mz_ef_sk/production/_ext/2110151058/sys_tmr.o
                0x9d0ccca8                SYS_TMR_ModuleStatusGet

.text.TCPIP_ARP_HashKeyCompare
                0x9d0cccc0       0x18
 .text.TCPIP_ARP_HashKeyCompare
                0x9d0cccc0       0x18 build/pic32mz_ef_sk/production/_ext/1164207549/arp.o
                0x9d0cccc0                TCPIP_ARP_HashKeyCompare

.text.TCPIP_STACK_NetIndexGet
                0x9d0cccd8       0x18
 .text.TCPIP_STACK_NetIndexGet
                0x9d0cccd8       0x18 build/pic32mz_ef_sk/production/_ext/1164207549/tcpip_manager.o
                0x9d0cccd8                TCPIP_STACK_NetIndexGet

.text.TCPIP_STACK_MACObjectGet
                0x9d0cccf0       0x18
 .text.TCPIP_STACK_MACObjectGet
                0x9d0cccf0       0x18 build/pic32mz_ef_sk/production/_ext/1164207549/tcpip_manager.o
                0x9d0cccf0                TCPIP_STACK_MACObjectGet

.text.TCPIP_STACK_NetIxGet
                0x9d0ccd08       0x18
 .text.TCPIP_STACK_NetIxGet
                0x9d0ccd08       0x18 build/pic32mz_ef_sk/production/_ext/1164207549/tcpip_manager.o
                0x9d0ccd08                TCPIP_STACK_NetIxGet

.text.TCPIP_STACK_GatewayAddressSet
                0x9d0ccd20       0x18
 .text.TCPIP_STACK_GatewayAddressSet
                0x9d0ccd20       0x18 build/pic32mz_ef_sk/production/_ext/1164207549/tcpip_manager.o
                0x9d0ccd20                TCPIP_STACK_GatewayAddressSet

.text.TCPIP_STACK_PrimaryDNSAddressSet
                0x9d0ccd38       0x18
 .text.TCPIP_STACK_PrimaryDNSAddressSet
                0x9d0ccd38       0x18 build/pic32mz_ef_sk/production/_ext/1164207549/tcpip_manager.o
                0x9d0ccd38                TCPIP_STACK_PrimaryDNSAddressSet

.text.TCPIP_STACK_SecondaryDNSAddressSet
                0x9d0ccd50       0x18
 .text.TCPIP_STACK_SecondaryDNSAddressSet
                0x9d0ccd50       0x18 build/pic32mz_ef_sk/production/_ext/1164207549/tcpip_manager.o
                0x9d0ccd50                TCPIP_STACK_SecondaryDNSAddressSet

.text           0x9d0ccd68       0x18
 .text          0x9d0ccd68       0x18 c:/program files (x86)/microchip/xc32/v1.44/bin/bin/../../lib/gcc/pic32mx/4.8.3/../../../../pic32mx/lib/fpu64\libpic32.a(default-nmi-handler.o)
                0x9d0ccd68                _nmi_handler

.text.abort     0x9d0ccd80       0x18
 .text.abort    0x9d0ccd80       0x18 c:/program files (x86)/microchip/xc32/v1.44/bin/bin/../../lib/gcc/pic32mx/4.8.3/../../../../pic32mx/lib/fpu64\libc.a(signal.o)
                0x9d0ccd80                abort

.text.SYS_DEVCON_Initialize
                0x9d0ccd98       0x14
 .text.SYS_DEVCON_Initialize
                0x9d0ccd98       0x14 build/pic32mz_ef_sk/production/_ext/1868830280/sys_devcon.o
                0x9d0ccd98                SYS_DEVCON_Initialize

.text.SYS_INT_Initialize
                0x9d0ccdac       0x14
 .text.SYS_INT_Initialize
                0x9d0ccdac       0x14 build/pic32mz_ef_sk/production/_ext/1042686532/sys_int_pic32.o
                0x9d0ccdac                SYS_INT_Initialize

.text.TCPIP_SMTP_PutIsDone
                0x9d0ccdc0       0x14
 .text.TCPIP_SMTP_PutIsDone
                0x9d0ccdc0       0x14 build/pic32mz_ef_sk/production/_ext/1164207549/smtp.o
                0x9d0ccdc0                TCPIP_SMTP_PutIsDone

.text.vTaskSuspendAll
                0x9d0ccdd4       0x14
 .text.vTaskSuspendAll
                0x9d0ccdd4       0x14 build/pic32mz_ef_sk/production/_ext/373060831/tasks.o
                0x9d0ccdd4                vTaskSuspendAll

.text.vTaskSetTimeOutState
                0x9d0ccde8       0x14
 .text.vTaskSetTimeOutState
                0x9d0ccde8       0x14 build/pic32mz_ef_sk/production/_ext/373060831/tasks.o
                0x9d0ccde8                vTaskSetTimeOutState

.rodata         0x9d0ccdfc       0x20
 .rodata        0x9d0ccdfc       0x10 build/pic32mz_ef_sk/production/_ext/521481140/drv_extphy_smsc8740.o
                0x9d0ccdfc                DRV_ETHPHY_OBJECT_SMSC_LAN8740
 .rodata        0x9d0cce0c       0x10 build/pic32mz_ef_sk/production/_ext/1886247299/sys_fs_wrapper.o

.text.TCPIP_ARP_HashKeyCopy
                0x9d0cce1c       0x10
 .text.TCPIP_ARP_HashKeyCopy
                0x9d0cce1c       0x10 build/pic32mz_ef_sk/production/_ext/1164207549/arp.o
                0x9d0cce1c                TCPIP_ARP_HashKeyCopy

.text.TCPIP_HTTP_CurrentConnectionCallbackPosSet
                0x9d0cce2c       0x10
 .text.TCPIP_HTTP_CurrentConnectionCallbackPosSet
                0x9d0cce2c       0x10 build/pic32mz_ef_sk/production/_ext/1164207549/http.o
                0x9d0cce2c                TCPIP_HTTP_CurrentConnectionCallbackPosSet

.text.TCPIP_HTTP_CurrentConnectionByteCountDec
                0x9d0cce3c       0x10
 .text.TCPIP_HTTP_CurrentConnectionByteCountDec
                0x9d0cce3c       0x10 build/pic32mz_ef_sk/production/_ext/1164207549/http.o
                0x9d0cce3c                TCPIP_HTTP_CurrentConnectionByteCountDec

.text._FieldSetUserStart
                0x9d0cce4c       0x10
 .text._FieldSetUserStart
                0x9d0cce4c       0x10 build/pic32mz_ef_sk/production/_ext/1164207549/tcpip_announce.o
                0x9d0cce4c                _FieldSetUserStart

.text.TCPIP_Helper_SingleListInitialize
                0x9d0cce5c       0x10
 .text.TCPIP_Helper_SingleListInitialize
                0x9d0cce5c       0x10 build/pic32mz_ef_sk/production/_ext/1164207549/tcpip_helpers.o
                0x9d0cce5c                TCPIP_Helper_SingleListInitialize

.text.TCPIP_Helper_DoubleListInitialize
                0x9d0cce6c       0x10
 .text.TCPIP_Helper_DoubleListInitialize
                0x9d0cce6c       0x10 build/pic32mz_ef_sk/production/_ext/1164207549/tcpip_helpers.o
                0x9d0cce6c                TCPIP_Helper_DoubleListInitialize

.text.vTaskMissedYield
                0x9d0cce7c       0x10
 .text.vTaskMissedYield
                0x9d0cce7c       0x10 build/pic32mz_ef_sk/production/_ext/373060831/tasks.o
                0x9d0cce7c                vTaskMissedYield

.text.SYS_CLK_SystemFrequencyGet
                0x9d00fff4        0xc
 .text.SYS_CLK_SystemFrequencyGet
                0x9d00fff4        0xc build/pic32mz_ef_sk/production/_ext/571564127/sys_clk_pic32mz.o
                0x9d00fff4                SYS_CLK_SystemFrequencyGet

.text.DRV_ETHMAC_PIC32MACEventPendingGet
                0x9d0cce8c        0xc
 .text.DRV_ETHMAC_PIC32MACEventPendingGet
                0x9d0cce8c        0xc build/pic32mz_ef_sk/production/_ext/1697634946/drv_ethmac.o
                0x9d0cce8c                DRV_ETHMAC_PIC32MACEventPendingGet

.text._DRV_ETHMAC_GetFrmTxOk
                0x9d0cce98        0xc
 .text._DRV_ETHMAC_GetFrmTxOk
                0x9d0cce98        0xc build/pic32mz_ef_sk/production/_ext/1697634946/drv_ethmac.o

.text._DRV_ETHMAC_GetFrmRxOk
                0x9d0ccea4        0xc
 .text._DRV_ETHMAC_GetFrmRxOk
                0x9d0ccea4        0xc build/pic32mz_ef_sk/production/_ext/1697634946/drv_ethmac.o

.text._DRV_ETHMAC_GetFrmPktCount
                0x9d0cceb0        0xc
 .text._DRV_ETHMAC_GetFrmPktCount
                0x9d0cceb0        0xc build/pic32mz_ef_sk/production/_ext/1697634946/drv_ethmac.o

.text._DRV_ETHMAC_GetFrmRxOvflow
                0x9d0ccebc        0xc
 .text._DRV_ETHMAC_GetFrmRxOvflow
                0x9d0ccebc        0xc build/pic32mz_ef_sk/production/_ext/1697634946/drv_ethmac.o

.text._DRV_ETHMAC_GetFrmFcsError
                0x9d0ccec8        0xc
 .text._DRV_ETHMAC_GetFrmFcsError
                0x9d0ccec8        0xc build/pic32mz_ef_sk/production/_ext/1697634946/drv_ethmac.o

.text._DRV_ETHMAC_GetAlignError
                0x9d0cced4        0xc
 .text._DRV_ETHMAC_GetAlignError
                0x9d0cced4        0xc build/pic32mz_ef_sk/production/_ext/1697634946/drv_ethmac.o

.text._DRV_ETHMAC_GetSCollisionCount
                0x9d0ccee0        0xc
 .text._DRV_ETHMAC_GetSCollisionCount
                0x9d0ccee0        0xc build/pic32mz_ef_sk/production/_ext/1697634946/drv_ethmac.o

.text._DRV_ETHMAC_GetMCollisionCount
                0x9d0cceec        0xc
 .text._DRV_ETHMAC_GetMCollisionCount
                0x9d0cceec        0xc build/pic32mz_ef_sk/production/_ext/1697634946/drv_ethmac.o

.text.DRV_EXTPHY_SMIClockGet
                0x9d0ccef8        0xc
 .text.DRV_EXTPHY_SMIClockGet
                0x9d0ccef8        0xc build/pic32mz_ef_sk/production/_ext/521481140/drv_extphy_smsc8740.o

.text.TCPIP_IPV6_SetReadPtr
                0x9d0ccf04        0xc
 .text.TCPIP_IPV6_SetReadPtr
                0x9d0ccf04        0xc build/pic32mz_ef_sk/production/_ext/1164207549/ipv6.o
                0x9d0ccf04                TCPIP_IPV6_SetReadPtr

.text.TCPIP_SMTP_IsBusy
                0x9d0ccf10        0xc
 .text.TCPIP_SMTP_IsBusy
                0x9d0ccf10        0xc build/pic32mz_ef_sk/production/_ext/1164207549/smtp.o
                0x9d0ccf10                TCPIP_SMTP_IsBusy

.text.TCPIP_STACK_NumberOfNetworksGet
                0x9d0ccf1c        0xc
 .text.TCPIP_STACK_NumberOfNetworksGet
                0x9d0ccf1c        0xc build/pic32mz_ef_sk/production/_ext/1164207549/tcpip_manager.o
                0x9d0ccf1c                TCPIP_STACK_NumberOfNetworksGet

.text.TCPIP_STACK_NetBIOSName
                0x9d0ccf28        0xc
 .text.TCPIP_STACK_NetBIOSName
                0x9d0ccf28        0xc build/pic32mz_ef_sk/production/_ext/1164207549/tcpip_manager.o
                0x9d0ccf28                TCPIP_STACK_NetBIOSName

.text._TCPIPStackAddressServiceIsRunning
                0x9d0ccf34        0xc
 .text._TCPIPStackAddressServiceIsRunning
                0x9d0ccf34        0xc build/pic32mz_ef_sk/production/_ext/1164207549/tcpip_manager.o
                0x9d0ccf34                _TCPIPStackAddressServiceIsRunning

.text.APP_Initialize
                0x9d0ccf40        0x8
 .text.APP_Initialize
                0x9d0ccf40        0x8 build/pic32mz_ef_sk/production/_ext/1360937237/app.o
                0x9d0ccf40                APP_Initialize

.text.STREAMER_Initialize
                0x9d0ccf48        0x8
 .text.STREAMER_Initialize
                0x9d0ccf48        0x8 build/pic32mz_ef_sk/production/_ext/1360937237/streamer.o
                0x9d0ccf48                STREAMER_Initialize

.text.TCPIP_HTTP_Print_ddns_user
                0x9d0ccf50        0x8
 .text.TCPIP_HTTP_Print_ddns_user
                0x9d0ccf50        0x8 build/pic32mz_ef_sk/production/_ext/1360937237/custom_http_app.o
                0x9d0ccf50                TCPIP_HTTP_Print_ddns_user

.text.TCPIP_HTTP_Print_ddns_pass
                0x9d0ccf58        0x8
 .text.TCPIP_HTTP_Print_ddns_pass
                0x9d0ccf58        0x8 build/pic32mz_ef_sk/production/_ext/1360937237/custom_http_app.o
                0x9d0ccf58                TCPIP_HTTP_Print_ddns_pass

.text.TCPIP_HTTP_Print_ddns_host
                0x9d0ccf60        0x8
 .text.TCPIP_HTTP_Print_ddns_host
                0x9d0ccf60        0x8 build/pic32mz_ef_sk/production/_ext/1360937237/custom_http_app.o
                0x9d0ccf60                TCPIP_HTTP_Print_ddns_host

.text.TCPIP_HTTP_Print_ddns_service
                0x9d0ccf68        0x8
 .text.TCPIP_HTTP_Print_ddns_service
                0x9d0ccf68        0x8 build/pic32mz_ef_sk/production/_ext/1360937237/custom_http_app.o
                0x9d0ccf68                TCPIP_HTTP_Print_ddns_service

.text.TCPIP_HTTP_Print_read_comm
                0x9d0ccf70        0x8
 .text.TCPIP_HTTP_Print_read_comm
                0x9d0ccf70        0x8 build/pic32mz_ef_sk/production/_ext/1360937237/custom_http_app.o
                0x9d0ccf70                TCPIP_HTTP_Print_read_comm

.text.TCPIP_HTTP_Print_write_comm
                0x9d0ccf78        0x8
 .text.TCPIP_HTTP_Print_write_comm
                0x9d0ccf78        0x8 build/pic32mz_ef_sk/production/_ext/1360937237/custom_http_app.o
                0x9d0ccf78                TCPIP_HTTP_Print_write_comm

.text.DRV_ETHMAC_PIC32MACReinitialize
                0x9d0ccf80        0x8
 .text.DRV_ETHMAC_PIC32MACReinitialize
                0x9d0ccf80        0x8 build/pic32mz_ef_sk/production/_ext/1697634946/drv_ethmac.o
                0x9d0ccf80                DRV_ETHMAC_PIC32MACReinitialize

.text.DRV_ETHMAC_PIC32MACPowerMode
                0x9d0ccf88        0x8
 .text.DRV_ETHMAC_PIC32MACPowerMode
                0x9d0ccf88        0x8 build/pic32mz_ef_sk/production/_ext/1697634946/drv_ethmac.o
                0x9d0ccf88                DRV_ETHMAC_PIC32MACPowerMode

.text._DRV_ETHPHY_ClientOpNone
                0x9d0ccf90        0x8
 .text._DRV_ETHPHY_ClientOpNone
                0x9d0ccf90        0x8 build/pic32mz_ef_sk/production/_ext/521481140/drv_ethphy.o

.text.DRV_ETHPHY_SMIRead
                0x9d0ccf98        0x8
 .text.DRV_ETHPHY_SMIRead
                0x9d0ccf98        0x8 build/pic32mz_ef_sk/production/_ext/521481140/drv_ethphy.o
                0x9d0ccf98                DRV_ETHPHY_SMIRead

.text.DRV_ETHPHY_SMIWrite
                0x9d0ccfa0        0x8
 .text.DRV_ETHPHY_SMIWrite
                0x9d0ccfa0        0x8 build/pic32mz_ef_sk/production/_ext/521481140/drv_ethphy.o
                0x9d0ccfa0                DRV_ETHPHY_SMIWrite

.text.DRV_ETHPHY_SMIScanStart
                0x9d0ccfa8        0x8
 .text.DRV_ETHPHY_SMIScanStart
                0x9d0ccfa8        0x8 build/pic32mz_ef_sk/production/_ext/521481140/drv_ethphy.o
                0x9d0ccfa8                DRV_ETHPHY_SMIScanStart

.text.DRV_ETHPHY_SMIScanStop
                0x9d0ccfb0        0x8
 .text.DRV_ETHPHY_SMIScanStop
                0x9d0ccfb0        0x8 build/pic32mz_ef_sk/production/_ext/521481140/drv_ethphy.o
                0x9d0ccfb0                DRV_ETHPHY_SMIScanStop

.text.DRV_ETHPHY_SMIScanStatusGet
                0x9d0ccfb8        0x8
 .text.DRV_ETHPHY_SMIScanStatusGet
                0x9d0ccfb8        0x8 build/pic32mz_ef_sk/production/_ext/521481140/drv_ethphy.o
                0x9d0ccfb8                DRV_ETHPHY_SMIScanStatusGet

.text.DRV_ETHPHY_SMIScanDataGet
                0x9d0ccfc0        0x8
 .text.DRV_ETHPHY_SMIScanDataGet
                0x9d0ccfc0        0x8 build/pic32mz_ef_sk/production/_ext/521481140/drv_ethphy.o
                0x9d0ccfc0                DRV_ETHPHY_SMIScanDataGet

.text.DRV_ETHPHY_SMIStatus
                0x9d0ccfc8        0x8
 .text.DRV_ETHPHY_SMIStatus
                0x9d0ccfc8        0x8 build/pic32mz_ef_sk/production/_ext/521481140/drv_ethphy.o
                0x9d0ccfc8                DRV_ETHPHY_SMIStatus

.text.DRV_ETHPHY_SMIClockSet
                0x9d0ccfd0        0x8
 .text.DRV_ETHPHY_SMIClockSet
                0x9d0ccfd0        0x8 build/pic32mz_ef_sk/production/_ext/521481140/drv_ethphy.o
                0x9d0ccfd0                DRV_ETHPHY_SMIClockSet

.text.DRV_MIIM_Reinitialize
                0x9d0ccfd8        0x8
 .text.DRV_MIIM_Reinitialize
                0x9d0ccfd8        0x8 build/pic32mz_ef_sk/production/_ext/1470245908/drv_miim.o
                0x9d0ccfd8                DRV_MIIM_Reinitialize

.text.GetCommandCharacter
                0x9d0ccfe0        0x8
 .text.GetCommandCharacter
                0x9d0ccfe0        0x8 build/pic32mz_ef_sk/production/_ext/1891376032/sys_command.o

.text.SYS_DEBUG_ErrorLevelGet
                0x9d0ccfe8        0x8
 .text.SYS_DEBUG_ErrorLevelGet
                0x9d0ccfe8        0x8 build/pic32mz_ef_sk/production/_ext/2137108136/sys_debug.o
                0x9d0ccfe8                SYS_DEBUG_ErrorLevelGet

.rodata         0x9d0ccff0        0x8
 .rodata        0x9d0ccff0        0x8 build/pic32mz_ef_sk/production/_ext/1750042194/sys_fs.o

.text.TCPIP_IPV4_IsFragmentationEnabled
                0x9d0ccff8        0x8
 .text.TCPIP_IPV4_IsFragmentationEnabled
                0x9d0ccff8        0x8 build/pic32mz_ef_sk/production/_ext/1164207549/ipv4.o
                0x9d0ccff8                TCPIP_IPV4_IsFragmentationEnabled

.text.TCPIP_IPV6_DestAddressGet
                0x9d0cd000        0x8
 .text.TCPIP_IPV6_DestAddressGet
                0x9d0cd000        0x8 build/pic32mz_ef_sk/production/_ext/1164207549/ipv6.o
                0x9d0cd000                TCPIP_IPV6_DestAddressGet

.text.TCPIP_IPV6_SourceAddressGet
                0x9d0cd008        0x8
 .text.TCPIP_IPV6_SourceAddressGet
                0x9d0cd008        0x8 build/pic32mz_ef_sk/production/_ext/1164207549/ipv6.o
                0x9d0cd008                TCPIP_IPV6_SourceAddressGet

.text.TCPIP_IPV6_GetReadPtrInRx
                0x9d0cd010        0x8
 .text.TCPIP_IPV6_GetReadPtrInRx
                0x9d0cd010        0x8 build/pic32mz_ef_sk/production/_ext/1164207549/ipv6.o
                0x9d0cd010                TCPIP_IPV6_GetReadPtrInRx

.text.TCPIP_IPV6_SetPacketMacAcknowledge
                0x9d0cd018        0x8
 .text.TCPIP_IPV6_SetPacketMacAcknowledge
                0x9d0cd018        0x8 build/pic32mz_ef_sk/production/_ext/1164207549/ipv6.o
                0x9d0cd018                TCPIP_IPV6_SetPacketMacAcknowledge

.text._DHCPOptionProcessEnd
                0x9d0cd020        0x8
 .text._DHCPOptionProcessEnd
                0x9d0cd020        0x8 build/pic32mz_ef_sk/production/_ext/1164207549/dhcp.o

.text.TCPIP_HTTP_CurrentConnectionFileGet
                0x9d0cd028        0x8
 .text.TCPIP_HTTP_CurrentConnectionFileGet
                0x9d0cd028        0x8 build/pic32mz_ef_sk/production/_ext/1164207549/http.o
                0x9d0cd028                TCPIP_HTTP_CurrentConnectionFileGet

.text.TCPIP_HTTP_CurrentConnectionPostSmGet
                0x9d0cd030        0x8
 .text.TCPIP_HTTP_CurrentConnectionPostSmGet
                0x9d0cd030        0x8 build/pic32mz_ef_sk/production/_ext/1164207549/http.o
                0x9d0cd030                TCPIP_HTTP_CurrentConnectionPostSmGet

.text.TCPIP_HTTP_CurrentConnectionPostSmSet
                0x9d0cd038        0x8
 .text.TCPIP_HTTP_CurrentConnectionPostSmSet
                0x9d0cd038        0x8 build/pic32mz_ef_sk/production/_ext/1164207549/http.o
                0x9d0cd038                TCPIP_HTTP_CurrentConnectionPostSmSet

.text.TCPIP_HTTP_CurrentConnectionDataBufferGet
                0x9d0cd040        0x8
 .text.TCPIP_HTTP_CurrentConnectionDataBufferGet
                0x9d0cd040        0x8 build/pic32mz_ef_sk/production/_ext/1164207549/http.o
                0x9d0cd040                TCPIP_HTTP_CurrentConnectionDataBufferGet

.text.TCPIP_HTTP_CurrentConnectionDataBufferSizeGet
                0x9d0cd048        0x8
 .text.TCPIP_HTTP_CurrentConnectionDataBufferSizeGet
                0x9d0cd048        0x8 build/pic32mz_ef_sk/production/_ext/1164207549/http.o
                0x9d0cd048                TCPIP_HTTP_CurrentConnectionDataBufferSizeGet

.text.TCPIP_HTTP_CurrentConnectionStatusSet
                0x9d0cd050        0x8
 .text.TCPIP_HTTP_CurrentConnectionStatusSet
                0x9d0cd050        0x8 build/pic32mz_ef_sk/production/_ext/1164207549/http.o
                0x9d0cd050                TCPIP_HTTP_CurrentConnectionStatusSet

.text.TCPIP_HTTP_CurrentConnectionHasArgsSet
                0x9d0cd058        0x8
 .text.TCPIP_HTTP_CurrentConnectionHasArgsSet
                0x9d0cd058        0x8 build/pic32mz_ef_sk/production/_ext/1164207549/http.o
                0x9d0cd058                TCPIP_HTTP_CurrentConnectionHasArgsSet

.text.TCPIP_HTTP_CurrentConnectionByteCountGet
                0x9d0cd060        0x8
 .text.TCPIP_HTTP_CurrentConnectionByteCountGet
                0x9d0cd060        0x8 build/pic32mz_ef_sk/production/_ext/1164207549/http.o
                0x9d0cd060                TCPIP_HTTP_CurrentConnectionByteCountGet

.text.TCPIP_HTTP_CurrentConnectionSocketGet
                0x9d0cd068        0x8
 .text.TCPIP_HTTP_CurrentConnectionSocketGet
                0x9d0cd068        0x8 build/pic32mz_ef_sk/production/_ext/1164207549/http.o
                0x9d0cd068                TCPIP_HTTP_CurrentConnectionSocketGet

.text._FieldSetNone
                0x9d0cd070        0x8
 .text._FieldSetNone
                0x9d0cd070        0x8 build/pic32mz_ef_sk/production/_ext/1164207549/tcpip_announce.o
                0x9d0cd070                _FieldSetNone

.text.TCPIP_STACK_NetDefaultGet
                0x9d0cd078        0x8
 .text.TCPIP_STACK_NetDefaultGet
                0x9d0cd078        0x8 build/pic32mz_ef_sk/production/_ext/1164207549/tcpip_manager.o
                0x9d0cd078                TCPIP_STACK_NetDefaultGet

.text.TCPIP_STACK_NetGetType
                0x9d0cd080        0x8
 .text.TCPIP_STACK_NetGetType
                0x9d0cd080        0x8 build/pic32mz_ef_sk/production/_ext/1164207549/tcpip_manager.o
                0x9d0cd080                TCPIP_STACK_NetGetType

.text.TCPIP_PKT_Deinitialize
                0x9d0cd088        0x8
 .text.TCPIP_PKT_Deinitialize
                0x9d0cd088        0x8 build/pic32mz_ef_sk/production/_ext/1164207549/tcpip_packet.o
                0x9d0cd088                TCPIP_PKT_Deinitialize

.text.vPortFree
                0x9d0cd090        0x8
 .text.vPortFree
                0x9d0cd090        0x8 build/pic32mz_ef_sk/production/_ext/1107379230/heap_1.o
                0x9d0cd090                vPortFree

.text.vListInitialiseItem
                0x9d0cd098        0x8
 .text.vListInitialiseItem
                0x9d0cd098        0x8 build/pic32mz_ef_sk/production/_ext/373060831/list.o
                0x9d0cd098                vListInitialiseItem

.rodata         0x9d0cd0a0        0x8
 .rodata        0x9d0cd0a0        0x8 build/pic32mz_ef_sk/production/_ext/373060831/tasks.o

.text._on_reset
                0x9d0cd0a8        0x8
 .text._on_reset
                0x9d0cd0a8        0x8 c:/program files (x86)/microchip/xc32/v1.44/bin/bin/../../lib/gcc/pic32mx/4.8.3/../../../../pic32mx/lib/fpu64\libpic32.a(default-on-reset.o)
                0x9d0cd0a8                _on_reset

.text._on_bootstrap
                0x9d0cd0b0        0x8
 .text._on_bootstrap
                0x9d0cd0b0        0x8 c:/program files (x86)/microchip/xc32/v1.44/bin/bin/../../lib/gcc/pic32mx/4.8.3/../../../../pic32mx/lib/fpu64\libpic32.a(default-on-bootstrap.o)
                0x9d0cd0b0                _on_bootstrap

.text._cleanup  0x9d0cd0b8        0x8
 .text._cleanup
                0x9d0cd0b8        0x8 c:/program files (x86)/microchip/xc32/v1.44/bin/bin/../../lib/gcc/pic32mx/4.8.3/../../../../pic32mx/lib/fpu64\libc.a(stdclean_simple.o)
                0x9d0cd0b8                _cleanup

.rodata         0x9d0cd0c0        0x8
 .rodata        0x9d0cd0c0        0x8 c:/program files (x86)/microchip/xc32/v1.44/bin/bin/../../lib/gcc/pic32mx/4.8.3/../../../../pic32mx/lib/fpu64\libmfd.a(s_frexp.o)

.rodata         0x9d0af564        0x4
 .rodata        0x9d0af564        0x4 build/pic32mz_ef_sk/production/_ext/1282498061/port.o
                0x9d0af564                xISRStackTop
